
bin/main.elf:     file format elf32-littlearm


Disassembly of section .start:

40000000 <_mainCRTStartup>:
40000000:	e59f3114 	ldr	r3, [pc, #276]	; 4000011c <.INTMASK+0x8>
40000004:	e3530000 	cmp	r3, #0
40000008:	059f3108 	ldreq	r3, [pc, #264]	; 40000118 <.INTMASK+0x4>
4000000c:	e1a0d003 	mov	sp, r3
40000010:	e92d000c 	push	{r2, r3}
40000014:	e3a03b21 	mov	r3, #33792	; 0x8400
40000018:	e34031c2 	movt	r3, #450	; 0x1c2
4000001c:	e3a02044 	mov	r2, #68	; 0x44
40000020:	e5832000 	str	r2, [r3]
40000024:	e8bd000c 	pop	{r2, r3}
40000028:	e10f2000 	mrs	r2, CPSR
4000002c:	e312000f 	tst	r2, #15
40000030:	0a000015 	beq	4000008c <_mainCRTStartup+0x8c>
40000034:	e321f0d1 	msr	CPSR_c, #209	; 0xd1
40000038:	e1a0d003 	mov	sp, r3
4000003c:	e24daa01 	sub	sl, sp, #4096	; 0x1000
40000040:	e1a0300a 	mov	r3, sl
40000044:	e321f0d7 	msr	CPSR_c, #215	; 0xd7
40000048:	e1a0d003 	mov	sp, r3
4000004c:	e2433a01 	sub	r3, r3, #4096	; 0x1000
40000050:	e321f0db 	msr	CPSR_c, #219	; 0xdb
40000054:	e1a0d003 	mov	sp, r3
40000058:	e2433a01 	sub	r3, r3, #4096	; 0x1000
4000005c:	e321f0d2 	msr	CPSR_c, #210	; 0xd2
40000060:	e1a0d003 	mov	sp, r3
40000064:	e2433a02 	sub	r3, r3, #8192	; 0x2000
40000068:	e321f0d3 	msr	CPSR_c, #211	; 0xd3
4000006c:	e1a0d003 	mov	sp, r3
40000070:	e2433902 	sub	r3, r3, #32768	; 0x8000
40000074:	e3c330ff 	bic	r3, r3, #255	; 0xff
40000078:	e3c33cff 	bic	r3, r3, #65280	; 0xff00
4000007c:	e5033004 	str	r3, [r3, #-4]
40000080:	e9532000 	ldmdb	r3, {sp}^
40000084:	e38220c0 	orr	r2, r2, #192	; 0xc0
40000088:	e121f002 	msr	CPSR_c, r2
4000008c:	e243a801 	sub	sl, r3, #65536	; 0x10000
40000090:	e3b01000 	movs	r1, #0
40000094:	e1a0b001 	mov	fp, r1
40000098:	e1a07001 	mov	r7, r1
4000009c:	e59f0084 	ldr	r0, [pc, #132]	; 40000128 <.INTMASK+0x14>
400000a0:	e59f2084 	ldr	r2, [pc, #132]	; 4000012c <.INTMASK+0x18>
400000a4:	e0522000 	subs	r2, r2, r0
400000a8:	eb003018 	bl	4000c110 <memset>
400000ac:	e59f306c 	ldr	r3, [pc, #108]	; 40000120 <.INTMASK+0xc>
400000b0:	e3530000 	cmp	r3, #0
400000b4:	0a000001 	beq	400000c0 <_mainCRTStartup+0xc0>
400000b8:	e1a0e00f 	mov	lr, pc
400000bc:	e1a0f003 	mov	pc, r3
400000c0:	e59f305c 	ldr	r3, [pc, #92]	; 40000124 <.INTMASK+0x10>
400000c4:	e3530000 	cmp	r3, #0
400000c8:	0a000001 	beq	400000d4 <_mainCRTStartup+0xd4>
400000cc:	e1a0e00f 	mov	lr, pc
400000d0:	e1a0f003 	mov	pc, r3
400000d4:	e3b00000 	movs	r0, #0
400000d8:	e3b01000 	movs	r1, #0
400000dc:	e1b04000 	movs	r4, r0
400000e0:	e1b05001 	movs	r5, r1
400000e4:	e59f0044 	ldr	r0, [pc, #68]	; 40000130 <.INTMASK+0x1c>
400000e8:	eb002b36 	bl	4000adc8 <atexit>
400000ec:	eb002cdd 	bl	4000b468 <__libc_init_array>
400000f0:	e1b00004 	movs	r0, r4
400000f4:	e1b01005 	movs	r1, r5
400000f8:	eb0001a2 	bl	40000788 <main>
400000fc:	eb002b39 	bl	4000ade8 <exit>

40000100 <_enable_interrupts>:
40000100:	e10f2000 	mrs	r2, CPSR
40000104:	059f3008 	ldreq	r3, [pc, #8]	; 40000114 <.INTMASK>
40000108:	e0022003 	and	r2, r2, r3
4000010c:	e129f002 	msr	CPSR_fc, r2
40000110:	e12fff1e 	bx	lr

40000114 <.INTMASK>:
40000114:	ffffff3f 	.word	0xffffff3f
40000118:	00080000 	.word	0x00080000
4000011c:	c0000000 	.word	0xc0000000
	...
40000128:	4001a50c 	.word	0x4001a50c
4000012c:	4011a584 	.word	0x4011a584
40000130:	4000ae1c 	.word	0x4000ae1c

40000134 <__exception_table_start__>:
40000134:	e59ff018 	ldr	pc, [pc, #24]	; 40000154 <__exception_table_start__+0x20>
40000138:	e59ff018 	ldr	pc, [pc, #24]	; 40000158 <__exception_table_start__+0x24>
4000013c:	e59ff018 	ldr	pc, [pc, #24]	; 4000015c <__exception_table_start__+0x28>
40000140:	e59ff018 	ldr	pc, [pc, #24]	; 40000160 <__exception_table_start__+0x2c>
40000144:	e59ff018 	ldr	pc, [pc, #24]	; 40000164 <__exception_table_start__+0x30>
40000148:	e59ff018 	ldr	pc, [pc, #24]	; 40000168 <__exception_table_start__+0x34>
4000014c:	e59ff018 	ldr	pc, [pc, #24]	; 4000016c <__exception_table_start__+0x38>
40000150:	e59ff018 	ldr	pc, [pc, #24]	; 40000170 <__exception_table_start__+0x3c>
40000154:	400012a4 	.word	0x400012a4
40000158:	400012c0 	.word	0x400012c0
4000015c:	40001304 	.word	0x40001304
40000160:	40001324 	.word	0x40001324
40000164:	40001340 	.word	0x40001340
40000168:	4000135c 	.word	0x4000135c
4000016c:	40001378 	.word	0x40001378
40000170:	40001394 	.word	0x40001394

40000174 <__interrupt_table_start__>:
40000174:	ea000441 	b	40001280 <__isr_undefined>
40000178:	ea000440 	b	40001280 <__isr_undefined>
4000017c:	ea00043f 	b	40001280 <__isr_undefined>
40000180:	ea00043e 	b	40001280 <__isr_undefined>
40000184:	ea00043d 	b	40001280 <__isr_undefined>
40000188:	ea00043c 	b	40001280 <__isr_undefined>
4000018c:	ea00043b 	b	40001280 <__isr_undefined>
40000190:	ea00043a 	b	40001280 <__isr_undefined>
40000194:	ea000439 	b	40001280 <__isr_undefined>
40000198:	ea000438 	b	40001280 <__isr_undefined>
4000019c:	ea000437 	b	40001280 <__isr_undefined>
400001a0:	ea000436 	b	40001280 <__isr_undefined>
400001a4:	ea000435 	b	40001280 <__isr_undefined>
400001a8:	ea000434 	b	40001280 <__isr_undefined>
400001ac:	ea000433 	b	40001280 <__isr_undefined>
400001b0:	ea000432 	b	40001280 <__isr_undefined>
400001b4:	ea000431 	b	40001280 <__isr_undefined>
400001b8:	ea000430 	b	40001280 <__isr_undefined>
400001bc:	ea00042f 	b	40001280 <__isr_undefined>
400001c0:	ea00042e 	b	40001280 <__isr_undefined>
400001c4:	ea00042d 	b	40001280 <__isr_undefined>
400001c8:	ea00042c 	b	40001280 <__isr_undefined>
400001cc:	ea00042b 	b	40001280 <__isr_undefined>
400001d0:	ea00042a 	b	40001280 <__isr_undefined>
400001d4:	e59ff0e8 	ldr	pc, [pc, #232]	; 400002c4 <__interrupt_table_start__+0x150>
400001d8:	ea000428 	b	40001280 <__isr_undefined>
400001dc:	ea000427 	b	40001280 <__isr_undefined>
400001e0:	ea000426 	b	40001280 <__isr_undefined>
400001e4:	ea000425 	b	40001280 <__isr_undefined>
400001e8:	ea000424 	b	40001280 <__isr_undefined>
400001ec:	ea000423 	b	40001280 <__isr_undefined>
400001f0:	ea000422 	b	40001280 <__isr_undefined>
400001f4:	ea000421 	b	40001280 <__isr_undefined>
400001f8:	ea000420 	b	40001280 <__isr_undefined>
400001fc:	ea00041f 	b	40001280 <__isr_undefined>
40000200:	ea00041e 	b	40001280 <__isr_undefined>
40000204:	ea00041d 	b	40001280 <__isr_undefined>
40000208:	ea00041c 	b	40001280 <__isr_undefined>
4000020c:	ea00041b 	b	40001280 <__isr_undefined>
40000210:	ea00041a 	b	40001280 <__isr_undefined>
40000214:	ea000419 	b	40001280 <__isr_undefined>
40000218:	ea000418 	b	40001280 <__isr_undefined>
4000021c:	ea000417 	b	40001280 <__isr_undefined>
40000220:	ea000416 	b	40001280 <__isr_undefined>
40000224:	ea000415 	b	40001280 <__isr_undefined>
40000228:	ea000414 	b	40001280 <__isr_undefined>
4000022c:	ea000413 	b	40001280 <__isr_undefined>
40000230:	ea000412 	b	40001280 <__isr_undefined>
40000234:	ea000411 	b	40001280 <__isr_undefined>
40000238:	ea000410 	b	40001280 <__isr_undefined>
4000023c:	ea00040f 	b	40001280 <__isr_undefined>
40000240:	ea00040e 	b	40001280 <__isr_undefined>
40000244:	ea00040d 	b	40001280 <__isr_undefined>
40000248:	ea00040c 	b	40001280 <__isr_undefined>
4000024c:	ea00040b 	b	40001280 <__isr_undefined>
40000250:	ea00040a 	b	40001280 <__isr_undefined>
40000254:	ea000409 	b	40001280 <__isr_undefined>
40000258:	ea000408 	b	40001280 <__isr_undefined>
4000025c:	ea000407 	b	40001280 <__isr_undefined>
40000260:	ea000406 	b	40001280 <__isr_undefined>
40000264:	ea000405 	b	40001280 <__isr_undefined>
40000268:	ea000404 	b	40001280 <__isr_undefined>
4000026c:	ea000403 	b	40001280 <__isr_undefined>
40000270:	ea000402 	b	40001280 <__isr_undefined>
40000274:	ea000401 	b	40001280 <__isr_undefined>
40000278:	ea000400 	b	40001280 <__isr_undefined>
4000027c:	ea0003ff 	b	40001280 <__isr_undefined>
40000280:	ea0003fe 	b	40001280 <__isr_undefined>
40000284:	ea0003fd 	b	40001280 <__isr_undefined>
40000288:	ea0003fc 	b	40001280 <__isr_undefined>
4000028c:	ea0003fb 	b	40001280 <__isr_undefined>
40000290:	ea0003fa 	b	40001280 <__isr_undefined>
40000294:	ea0003f9 	b	40001280 <__isr_undefined>
40000298:	ea0003f8 	b	40001280 <__isr_undefined>
4000029c:	ea0003f7 	b	40001280 <__isr_undefined>
400002a0:	ea0003f6 	b	40001280 <__isr_undefined>
400002a4:	ea0003f5 	b	40001280 <__isr_undefined>
400002a8:	ea0003f4 	b	40001280 <__isr_undefined>
400002ac:	ea0003f3 	b	40001280 <__isr_undefined>
400002b0:	ea0003f2 	b	40001280 <__isr_undefined>
400002b4:	ea0003f1 	b	40001280 <__isr_undefined>
400002b8:	ea0003f0 	b	40001280 <__isr_undefined>
400002bc:	ea0003ef 	b	40001280 <__isr_undefined>
400002c0:	ea0003ee 	b	40001280 <__isr_undefined>
400002c4:	40000698 	.word	0x40000698

Disassembly of section .text:

400002c8 <_ZN6Serial4UartC1Ej>:
400002c8:	e52db004 	push	{fp}		; (str fp, [sp, #-4]!)
400002cc:	e28db000 	add	fp, sp, #0
400002d0:	e24dd00c 	sub	sp, sp, #12
400002d4:	e50b0008 	str	r0, [fp, #-8]
400002d8:	e50b100c 	str	r1, [fp, #-12]
400002dc:	e51b200c 	ldr	r2, [fp, #-12]
400002e0:	e51b3008 	ldr	r3, [fp, #-8]
400002e4:	e5832000 	str	r2, [r3]
400002e8:	e51b3008 	ldr	r3, [fp, #-8]
400002ec:	e3a02000 	mov	r2, #0
400002f0:	e5c32004 	strb	r2, [r3, #4]
400002f4:	e51b3008 	ldr	r3, [fp, #-8]
400002f8:	e1a00003 	mov	r0, r3
400002fc:	e28bd000 	add	sp, fp, #0
40000300:	e49db004 	pop	{fp}		; (ldr fp, [sp], #4)
40000304:	e12fff1e 	bx	lr

40000308 <_ZN6Serial4Uart8ReadByteEv>:
40000308:	e52db004 	push	{fp}		; (str fp, [sp, #-4]!)
4000030c:	e28db000 	add	fp, sp, #0
40000310:	e24dd00c 	sub	sp, sp, #12
40000314:	e50b0008 	str	r0, [fp, #-8]
40000318:	e51b3008 	ldr	r3, [fp, #-8]
4000031c:	e5933000 	ldr	r3, [r3]
40000320:	e5933000 	ldr	r3, [r3]
40000324:	e6ef3073 	uxtb	r3, r3
40000328:	e1a00003 	mov	r0, r3
4000032c:	e28bd000 	add	sp, fp, #0
40000330:	e49db004 	pop	{fp}		; (ldr fp, [sp], #4)
40000334:	e12fff1e 	bx	lr

40000338 <_ZN6Serial4Uart9WriteByteEh>:
40000338:	e92d4800 	push	{fp, lr}
4000033c:	e28db004 	add	fp, sp, #4
40000340:	e24dd008 	sub	sp, sp, #8
40000344:	e50b0008 	str	r0, [fp, #-8]
40000348:	e1a03001 	mov	r3, r1
4000034c:	e54b3009 	strb	r3, [fp, #-9]
40000350:	e55b3009 	ldrb	r3, [fp, #-9]
40000354:	e1a01003 	mov	r1, r3
40000358:	e51b0008 	ldr	r0, [fp, #-8]
4000035c:	eb00004e 	bl	4000049c <_ZN6Serial4Uart4sendEj>
40000360:	e320f000 	nop	{0}
40000364:	e24bd004 	sub	sp, fp, #4
40000368:	e8bd8800 	pop	{fp, pc}

4000036c <_ZN6Serial4Uart10SetDivisorEt>:
4000036c:	e92d4800 	push	{fp, lr}
40000370:	e28db004 	add	fp, sp, #4
40000374:	e24dd008 	sub	sp, sp, #8
40000378:	e50b0008 	str	r0, [fp, #-8]
4000037c:	e1a03001 	mov	r3, r1
40000380:	e14b30ba 	strh	r3, [fp, #-10]
40000384:	e51b0008 	ldr	r0, [fp, #-8]
40000388:	eb0008d3 	bl	400026dc <_ZN6Serial4Uart6IsBusyEv>
4000038c:	e1a03000 	mov	r3, r0
40000390:	e3530000 	cmp	r3, #0
40000394:	0a000001 	beq	400003a0 <_ZN6Serial4Uart10SetDivisorEt+0x34>
40000398:	e320f000 	nop	{0}
4000039c:	eafffff8 	b	40000384 <_ZN6Serial4Uart10SetDivisorEt+0x18>
400003a0:	e51b3008 	ldr	r3, [fp, #-8]
400003a4:	e5932000 	ldr	r2, [r3]
400003a8:	e5d2300c 	ldrb	r3, [r2, #12]
400003ac:	e3833080 	orr	r3, r3, #128	; 0x80
400003b0:	e5c2300c 	strb	r3, [r2, #12]
400003b4:	e51b3008 	ldr	r3, [fp, #-8]
400003b8:	e5933000 	ldr	r3, [r3]
400003bc:	e15b20ba 	ldrh	r2, [fp, #-10]
400003c0:	e6ef2072 	uxtb	r2, r2
400003c4:	e5832000 	str	r2, [r3]
400003c8:	e51b3008 	ldr	r3, [fp, #-8]
400003cc:	e5933000 	ldr	r3, [r3]
400003d0:	e15b20ba 	ldrh	r2, [fp, #-10]
400003d4:	e1a02422 	lsr	r2, r2, #8
400003d8:	e6ff2072 	uxth	r2, r2
400003dc:	e5832004 	str	r2, [r3, #4]
400003e0:	e51b3008 	ldr	r3, [fp, #-8]
400003e4:	e5932000 	ldr	r2, [r3]
400003e8:	e5d2300c 	ldrb	r3, [r2, #12]
400003ec:	e7c7339f 	bfc	r3, #7, #1
400003f0:	e5c2300c 	strb	r3, [r2, #12]
400003f4:	e320f000 	nop	{0}
400003f8:	e24bd004 	sub	sp, fp, #4
400003fc:	e8bd8800 	pop	{fp, pc}

40000400 <_ZN6Serial4Uart10GetDivisorEv>:
40000400:	e52db004 	push	{fp}		; (str fp, [sp, #-4]!)
40000404:	e28db000 	add	fp, sp, #0
40000408:	e24dd014 	sub	sp, sp, #20
4000040c:	e50b0010 	str	r0, [fp, #-16]
40000410:	e51b3010 	ldr	r3, [fp, #-16]
40000414:	e5932000 	ldr	r2, [r3]
40000418:	e5d2300c 	ldrb	r3, [r2, #12]
4000041c:	e3833080 	orr	r3, r3, #128	; 0x80
40000420:	e5c2300c 	strb	r3, [r2, #12]
40000424:	e51b3010 	ldr	r3, [fp, #-16]
40000428:	e5933000 	ldr	r3, [r3]
4000042c:	e5933000 	ldr	r3, [r3]
40000430:	e14b30b6 	strh	r3, [fp, #-6]
40000434:	e51b3010 	ldr	r3, [fp, #-16]
40000438:	e5933000 	ldr	r3, [r3]
4000043c:	e5933004 	ldr	r3, [r3, #4]
40000440:	e1a03403 	lsl	r3, r3, #8
40000444:	e6ff2073 	uxth	r2, r3
40000448:	e15b30b6 	ldrh	r3, [fp, #-6]
4000044c:	e1823003 	orr	r3, r2, r3
40000450:	e14b30b6 	strh	r3, [fp, #-6]
40000454:	e51b3010 	ldr	r3, [fp, #-16]
40000458:	e5932000 	ldr	r2, [r3]
4000045c:	e5d2300c 	ldrb	r3, [r2, #12]
40000460:	e7c7339f 	bfc	r3, #7, #1
40000464:	e5c2300c 	strb	r3, [r2, #12]
40000468:	e15b30b6 	ldrh	r3, [fp, #-6]
4000046c:	e1a00003 	mov	r0, r3
40000470:	e28bd000 	add	sp, fp, #0
40000474:	e49db004 	pop	{fp}		; (ldr fp, [sp], #4)
40000478:	e12fff1e 	bx	lr

4000047c <_ZN6Serial4Uart13DumpRegistersEv>:
4000047c:	e52db004 	push	{fp}		; (str fp, [sp, #-4]!)
40000480:	e28db000 	add	fp, sp, #0
40000484:	e24dd00c 	sub	sp, sp, #12
40000488:	e50b0008 	str	r0, [fp, #-8]
4000048c:	e320f000 	nop	{0}
40000490:	e28bd000 	add	sp, fp, #0
40000494:	e49db004 	pop	{fp}		; (ldr fp, [sp], #4)
40000498:	e12fff1e 	bx	lr

4000049c <_ZN6Serial4Uart4sendEj>:
4000049c:	e92d4800 	push	{fp, lr}
400004a0:	e28db004 	add	fp, sp, #4
400004a4:	e24dd008 	sub	sp, sp, #8
400004a8:	e50b0008 	str	r0, [fp, #-8]
400004ac:	e50b100c 	str	r1, [fp, #-12]
400004b0:	e51b0008 	ldr	r0, [fp, #-8]
400004b4:	eb000877 	bl	40002698 <_ZN6Serial4Uart13IsTxHoldEmptyEv>
400004b8:	e1a03000 	mov	r3, r0
400004bc:	e2233001 	eor	r3, r3, #1
400004c0:	e6ef3073 	uxtb	r3, r3
400004c4:	e3530000 	cmp	r3, #0
400004c8:	0a000001 	beq	400004d4 <_ZN6Serial4Uart4sendEj+0x38>
400004cc:	e320f000 	nop	{0}
400004d0:	eafffff6 	b	400004b0 <_ZN6Serial4Uart4sendEj+0x14>
400004d4:	e51b3008 	ldr	r3, [fp, #-8]
400004d8:	e5933000 	ldr	r3, [r3]
400004dc:	e51b200c 	ldr	r2, [fp, #-12]
400004e0:	e5832000 	str	r2, [r3]
400004e4:	e320f000 	nop	{0}
400004e8:	e24bd004 	sub	sp, fp, #4
400004ec:	e8bd8800 	pop	{fp, pc}

400004f0 <_ZN6Serial4Uart10hexstringsEj>:
400004f0:	e92d4800 	push	{fp, lr}
400004f4:	e28db004 	add	fp, sp, #4
400004f8:	e24dd010 	sub	sp, sp, #16
400004fc:	e50b0010 	str	r0, [fp, #-16]
40000500:	e50b1014 	str	r1, [fp, #-20]	; 0xffffffec
40000504:	e3a03020 	mov	r3, #32
40000508:	e50b3008 	str	r3, [fp, #-8]
4000050c:	e51b3008 	ldr	r3, [fp, #-8]
40000510:	e2433004 	sub	r3, r3, #4
40000514:	e50b3008 	str	r3, [fp, #-8]
40000518:	e51b2014 	ldr	r2, [fp, #-20]	; 0xffffffec
4000051c:	e51b3008 	ldr	r3, [fp, #-8]
40000520:	e1a03332 	lsr	r3, r2, r3
40000524:	e203300f 	and	r3, r3, #15
40000528:	e50b300c 	str	r3, [fp, #-12]
4000052c:	e51b300c 	ldr	r3, [fp, #-12]
40000530:	e3530009 	cmp	r3, #9
40000534:	9a000003 	bls	40000548 <_ZN6Serial4Uart10hexstringsEj+0x58>
40000538:	e51b300c 	ldr	r3, [fp, #-12]
4000053c:	e2833037 	add	r3, r3, #55	; 0x37
40000540:	e50b300c 	str	r3, [fp, #-12]
40000544:	ea000002 	b	40000554 <_ZN6Serial4Uart10hexstringsEj+0x64>
40000548:	e51b300c 	ldr	r3, [fp, #-12]
4000054c:	e2833030 	add	r3, r3, #48	; 0x30
40000550:	e50b300c 	str	r3, [fp, #-12]
40000554:	e51b100c 	ldr	r1, [fp, #-12]
40000558:	e51b0010 	ldr	r0, [fp, #-16]
4000055c:	ebffffce 	bl	4000049c <_ZN6Serial4Uart4sendEj>
40000560:	e51b3008 	ldr	r3, [fp, #-8]
40000564:	e3530000 	cmp	r3, #0
40000568:	0a000000 	beq	40000570 <_ZN6Serial4Uart10hexstringsEj+0x80>
4000056c:	eaffffe6 	b	4000050c <_ZN6Serial4Uart10hexstringsEj+0x1c>
40000570:	e320f000 	nop	{0}
40000574:	e3a01020 	mov	r1, #32
40000578:	e51b0010 	ldr	r0, [fp, #-16]
4000057c:	ebffffc6 	bl	4000049c <_ZN6Serial4Uart4sendEj>
40000580:	e320f000 	nop	{0}
40000584:	e24bd004 	sub	sp, fp, #4
40000588:	e8bd8800 	pop	{fp, pc}

4000058c <_ZN6Serial4Uart9hexstringEj>:
4000058c:	e92d4800 	push	{fp, lr}
40000590:	e28db004 	add	fp, sp, #4
40000594:	e24dd008 	sub	sp, sp, #8
40000598:	e50b0008 	str	r0, [fp, #-8]
4000059c:	e50b100c 	str	r1, [fp, #-12]
400005a0:	e51b100c 	ldr	r1, [fp, #-12]
400005a4:	e51b0008 	ldr	r0, [fp, #-8]
400005a8:	ebffffd0 	bl	400004f0 <_ZN6Serial4Uart10hexstringsEj>
400005ac:	e3a0100d 	mov	r1, #13
400005b0:	e51b0008 	ldr	r0, [fp, #-8]
400005b4:	ebffffb8 	bl	4000049c <_ZN6Serial4Uart4sendEj>
400005b8:	e3a0100a 	mov	r1, #10
400005bc:	e51b0008 	ldr	r0, [fp, #-8]
400005c0:	ebffffb5 	bl	4000049c <_ZN6Serial4Uart4sendEj>
400005c4:	e320f000 	nop	{0}
400005c8:	e24bd004 	sub	sp, fp, #4
400005cc:	e8bd8800 	pop	{fp, pc}

400005d0 <_ZN6Serial4Uart4putsEPKc>:
400005d0:	e92d4800 	push	{fp, lr}
400005d4:	e28db004 	add	fp, sp, #4
400005d8:	e24dd010 	sub	sp, sp, #16
400005dc:	e50b0010 	str	r0, [fp, #-16]
400005e0:	e50b1014 	str	r1, [fp, #-20]	; 0xffffffec
400005e4:	e51b3014 	ldr	r3, [fp, #-20]	; 0xffffffec
400005e8:	e50b3008 	str	r3, [fp, #-8]
400005ec:	e51b3008 	ldr	r3, [fp, #-8]
400005f0:	e5d33000 	ldrb	r3, [r3]
400005f4:	e3530000 	cmp	r3, #0
400005f8:	0a000008 	beq	40000620 <_ZN6Serial4Uart4putsEPKc+0x50>
400005fc:	e51b3008 	ldr	r3, [fp, #-8]
40000600:	e5d33000 	ldrb	r3, [r3]
40000604:	e1a01003 	mov	r1, r3
40000608:	e51b0010 	ldr	r0, [fp, #-16]
4000060c:	ebffffa2 	bl	4000049c <_ZN6Serial4Uart4sendEj>
40000610:	e51b3008 	ldr	r3, [fp, #-8]
40000614:	e2833001 	add	r3, r3, #1
40000618:	e50b3008 	str	r3, [fp, #-8]
4000061c:	eafffff2 	b	400005ec <_ZN6Serial4Uart4putsEPKc+0x1c>
40000620:	e320f000 	nop	{0}
40000624:	e24bd004 	sub	sp, fp, #4
40000628:	e8bd8800 	pop	{fp, pc}

4000062c <_ZN6Serial4Uart10EnableFifoEb>:
4000062c:	e52db004 	push	{fp}		; (str fp, [sp, #-4]!)
40000630:	e28db000 	add	fp, sp, #0
40000634:	e24dd00c 	sub	sp, sp, #12
40000638:	e50b0008 	str	r0, [fp, #-8]
4000063c:	e1a03001 	mov	r3, r1
40000640:	e54b3009 	strb	r3, [fp, #-9]
40000644:	e55b3009 	ldrb	r3, [fp, #-9]
40000648:	e3530000 	cmp	r3, #0
4000064c:	0a000005 	beq	40000668 <_ZN6Serial4Uart10EnableFifoEb+0x3c>
40000650:	e51b3008 	ldr	r3, [fp, #-8]
40000654:	e5932000 	ldr	r2, [r3]
40000658:	e5d23008 	ldrb	r3, [r2, #8]
4000065c:	e3833001 	orr	r3, r3, #1
40000660:	e5c23008 	strb	r3, [r2, #8]
40000664:	ea000004 	b	4000067c <_ZN6Serial4Uart10EnableFifoEb+0x50>
40000668:	e51b3008 	ldr	r3, [fp, #-8]
4000066c:	e5932000 	ldr	r2, [r3]
40000670:	e5d23008 	ldrb	r3, [r2, #8]
40000674:	e7c0301f 	bfc	r3, #0, #1
40000678:	e5c23008 	strb	r3, [r2, #8]
4000067c:	e51b3008 	ldr	r3, [fp, #-8]
40000680:	e55b2009 	ldrb	r2, [fp, #-9]
40000684:	e5c32004 	strb	r2, [r3, #4]
40000688:	e320f000 	nop	{0}
4000068c:	e28bd000 	add	sp, fp, #0
40000690:	e49db004 	pop	{fp}		; (ldr fp, [sp], #4)
40000694:	e12fff1e 	bx	lr

40000698 <isr_Timer2>:
40000698:	e24ee004 	sub	lr, lr, #4
4000069c:	e92d581f 	push	{r0, r1, r2, r3, r4, fp, ip, lr}
400006a0:	e28db01c 	add	fp, sp, #28
400006a4:	e30708a8 	movw	r0, #30888	; 0x78a8
400006a8:	e3440001 	movt	r0, #16385	; 0x4001
400006ac:	eb002eeb 	bl	4000c260 <printf>
400006b0:	e30a350c 	movw	r3, #42252	; 0xa50c
400006b4:	e3443001 	movt	r3, #16385	; 0x4001
400006b8:	e5933000 	ldr	r3, [r3]
400006bc:	e2832001 	add	r2, r3, #1
400006c0:	e30a350c 	movw	r3, #42252	; 0xa50c
400006c4:	e3443001 	movt	r3, #16385	; 0x4001
400006c8:	e5832000 	str	r2, [r3]
400006cc:	e320f000 	nop	{0}
400006d0:	e24bd01c 	sub	sp, fp, #28
400006d4:	e8fd981f 	ldm	sp!, {r0, r1, r2, r3, r4, fp, ip, pc}^

400006d8 <_Z4funcv>:
400006d8:	e92d4800 	push	{fp, lr}
400006dc:	e28db004 	add	fp, sp, #4
400006e0:	e30708b8 	movw	r0, #30904	; 0x78b8
400006e4:	e3440001 	movt	r0, #16385	; 0x4001
400006e8:	eb002edc 	bl	4000c260 <printf>
400006ec:	e320f000 	nop	{0}
400006f0:	e8bd8800 	pop	{fp, pc}

400006f4 <_Z5pdataPK1u>:
400006f4:	e92d4800 	push	{fp, lr}
400006f8:	e28db004 	add	fp, sp, #4
400006fc:	e24dd008 	sub	sp, sp, #8
40000700:	e50b0008 	str	r0, [fp, #-8]
40000704:	e51b3008 	ldr	r3, [fp, #-8]
40000708:	e5933000 	ldr	r3, [r3]
4000070c:	e1a01823 	lsr	r1, r3, #16
40000710:	e51b3008 	ldr	r3, [fp, #-8]
40000714:	e5933000 	ldr	r3, [r3]
40000718:	e6ff3073 	uxth	r3, r3
4000071c:	e1a02003 	mov	r2, r3
40000720:	e30708c0 	movw	r0, #30912	; 0x78c0
40000724:	e3440001 	movt	r0, #16385	; 0x4001
40000728:	eb002ecc 	bl	4000c260 <printf>
4000072c:	e51b3008 	ldr	r3, [fp, #-8]
40000730:	e5933004 	ldr	r3, [r3, #4]
40000734:	e1a01823 	lsr	r1, r3, #16
40000738:	e51b3008 	ldr	r3, [fp, #-8]
4000073c:	e5933004 	ldr	r3, [r3, #4]
40000740:	e6ff3073 	uxth	r3, r3
40000744:	e1a02003 	mov	r2, r3
40000748:	e30708d8 	movw	r0, #30936	; 0x78d8
4000074c:	e3440001 	movt	r0, #16385	; 0x4001
40000750:	eb002ec2 	bl	4000c260 <printf>
40000754:	e51b3008 	ldr	r3, [fp, #-8]
40000758:	e5933008 	ldr	r3, [r3, #8]
4000075c:	e1a01823 	lsr	r1, r3, #16
40000760:	e51b3008 	ldr	r3, [fp, #-8]
40000764:	e5933008 	ldr	r3, [r3, #8]
40000768:	e6ff3073 	uxth	r3, r3
4000076c:	e1a02003 	mov	r2, r3
40000770:	e30708f0 	movw	r0, #30960	; 0x78f0
40000774:	e3440001 	movt	r0, #16385	; 0x4001
40000778:	eb002eb8 	bl	4000c260 <printf>
4000077c:	e320f000 	nop	{0}
40000780:	e24bd004 	sub	sp, fp, #4
40000784:	e8bd8800 	pop	{fp, pc}

40000788 <main>:
40000788:	e92d4800 	push	{fp, lr}
4000078c:	e28db004 	add	fp, sp, #4
40000790:	e24dd0d0 	sub	sp, sp, #208	; 0xd0
40000794:	e50b00b8 	str	r0, [fp, #-184]	; 0xffffff48
40000798:	e50b10bc 	str	r1, [fp, #-188]	; 0xffffff44
4000079c:	e3070908 	movw	r0, #30984	; 0x7908
400007a0:	e3440001 	movt	r0, #16385	; 0x4001
400007a4:	eb002ead 	bl	4000c260 <printf>
400007a8:	ee103f10 	mrc	15, 0, r3, cr0, cr0, {0}
400007ac:	e50b30a0 	str	r3, [fp, #-160]	; 0xffffff60
400007b0:	ee103f30 	mrc	15, 0, r3, cr0, cr0, {1}
400007b4:	e50b309c 	str	r3, [fp, #-156]	; 0xffffff64
400007b8:	ee103f50 	mrc	15, 0, r3, cr0, cr0, {2}
400007bc:	e50b3098 	str	r3, [fp, #-152]	; 0xffffff68
400007c0:	ee103f70 	mrc	15, 0, r3, cr0, cr0, {3}
400007c4:	e50b3094 	str	r3, [fp, #-148]	; 0xffffff6c
400007c8:	ee103fb0 	mrc	15, 0, r3, cr0, cr0, {5}
400007cc:	e50b3090 	str	r3, [fp, #-144]	; 0xffffff70
400007d0:	ee103f11 	mrc	15, 0, r3, cr0, cr1, {0}
400007d4:	e50b308c 	str	r3, [fp, #-140]	; 0xffffff74
400007d8:	ee103f31 	mrc	15, 0, r3, cr0, cr1, {1}
400007dc:	e50b3088 	str	r3, [fp, #-136]	; 0xffffff78
400007e0:	ee103f51 	mrc	15, 0, r3, cr0, cr1, {2}
400007e4:	e50b3084 	str	r3, [fp, #-132]	; 0xffffff7c
400007e8:	ee103f71 	mrc	15, 0, r3, cr0, cr1, {3}
400007ec:	e50b3080 	str	r3, [fp, #-128]	; 0xffffff80
400007f0:	ee103f91 	mrc	15, 0, r3, cr0, cr1, {4}
400007f4:	e50b307c 	str	r3, [fp, #-124]	; 0xffffff84
400007f8:	ee103fb1 	mrc	15, 0, r3, cr0, cr1, {5}
400007fc:	e50b3078 	str	r3, [fp, #-120]	; 0xffffff88
40000800:	ee103fd1 	mrc	15, 0, r3, cr0, cr1, {6}
40000804:	e50b3074 	str	r3, [fp, #-116]	; 0xffffff8c
40000808:	ee103ff1 	mrc	15, 0, r3, cr0, cr1, {7}
4000080c:	e50b3070 	str	r3, [fp, #-112]	; 0xffffff90
40000810:	ee103f12 	mrc	15, 0, r3, cr0, cr2, {0}
40000814:	e50b306c 	str	r3, [fp, #-108]	; 0xffffff94
40000818:	ee103f32 	mrc	15, 0, r3, cr0, cr2, {1}
4000081c:	e50b3068 	str	r3, [fp, #-104]	; 0xffffff98
40000820:	ee103f52 	mrc	15, 0, r3, cr0, cr2, {2}
40000824:	e50b3064 	str	r3, [fp, #-100]	; 0xffffff9c
40000828:	ee103f72 	mrc	15, 0, r3, cr0, cr2, {3}
4000082c:	e50b3060 	str	r3, [fp, #-96]	; 0xffffffa0
40000830:	ee103f92 	mrc	15, 0, r3, cr0, cr2, {4}
40000834:	e50b305c 	str	r3, [fp, #-92]	; 0xffffffa4
40000838:	ee303f30 	mrc	15, 1, r3, cr0, cr0, {1}
4000083c:	e50b3058 	str	r3, [fp, #-88]	; 0xffffffa8
40000840:	ee303ff0 	mrc	15, 1, r3, cr0, cr0, {7}
40000844:	e50b3054 	str	r3, [fp, #-84]	; 0xffffffac
40000848:	ee303f10 	mrc	15, 1, r3, cr0, cr0, {0}
4000084c:	e50b3050 	str	r3, [fp, #-80]	; 0xffffffb0
40000850:	ee503f10 	mrc	15, 2, r3, cr0, cr0, {0}
40000854:	e50b304c 	str	r3, [fp, #-76]	; 0xffffffb4
40000858:	e3070950 	movw	r0, #31056	; 0x7950
4000085c:	e3440001 	movt	r0, #16385	; 0x4001
40000860:	eb002e7e 	bl	4000c260 <printf>
40000864:	e51b30a0 	ldr	r3, [fp, #-160]	; 0xffffff60
40000868:	e1a01003 	mov	r1, r3
4000086c:	e3070958 	movw	r0, #31064	; 0x7958
40000870:	e3440001 	movt	r0, #16385	; 0x4001
40000874:	eb002e79 	bl	4000c260 <printf>
40000878:	e51b309c 	ldr	r3, [fp, #-156]	; 0xffffff64
4000087c:	e1a01003 	mov	r1, r3
40000880:	e307097c 	movw	r0, #31100	; 0x797c
40000884:	e3440001 	movt	r0, #16385	; 0x4001
40000888:	eb002e74 	bl	4000c260 <printf>
4000088c:	e51b3098 	ldr	r3, [fp, #-152]	; 0xffffff68
40000890:	e1a01003 	mov	r1, r3
40000894:	e30709a0 	movw	r0, #31136	; 0x79a0
40000898:	e3440001 	movt	r0, #16385	; 0x4001
4000089c:	eb002e6f 	bl	4000c260 <printf>
400008a0:	e51b3094 	ldr	r3, [fp, #-148]	; 0xffffff6c
400008a4:	e1a01003 	mov	r1, r3
400008a8:	e30709c4 	movw	r0, #31172	; 0x79c4
400008ac:	e3440001 	movt	r0, #16385	; 0x4001
400008b0:	eb002e6a 	bl	4000c260 <printf>
400008b4:	e51b3090 	ldr	r3, [fp, #-144]	; 0xffffff70
400008b8:	e1a01003 	mov	r1, r3
400008bc:	e30709e8 	movw	r0, #31208	; 0x79e8
400008c0:	e3440001 	movt	r0, #16385	; 0x4001
400008c4:	eb002e65 	bl	4000c260 <printf>
400008c8:	e51b308c 	ldr	r3, [fp, #-140]	; 0xffffff74
400008cc:	e1a01003 	mov	r1, r3
400008d0:	e3070a0c 	movw	r0, #31244	; 0x7a0c
400008d4:	e3440001 	movt	r0, #16385	; 0x4001
400008d8:	eb002e60 	bl	4000c260 <printf>
400008dc:	e51b3088 	ldr	r3, [fp, #-136]	; 0xffffff78
400008e0:	e1a01003 	mov	r1, r3
400008e4:	e3070a30 	movw	r0, #31280	; 0x7a30
400008e8:	e3440001 	movt	r0, #16385	; 0x4001
400008ec:	eb002e5b 	bl	4000c260 <printf>
400008f0:	e51b3084 	ldr	r3, [fp, #-132]	; 0xffffff7c
400008f4:	e1a01003 	mov	r1, r3
400008f8:	e3070a54 	movw	r0, #31316	; 0x7a54
400008fc:	e3440001 	movt	r0, #16385	; 0x4001
40000900:	eb002e56 	bl	4000c260 <printf>
40000904:	e51b3080 	ldr	r3, [fp, #-128]	; 0xffffff80
40000908:	e1a01003 	mov	r1, r3
4000090c:	e3070a78 	movw	r0, #31352	; 0x7a78
40000910:	e3440001 	movt	r0, #16385	; 0x4001
40000914:	eb002e51 	bl	4000c260 <printf>
40000918:	e51b307c 	ldr	r3, [fp, #-124]	; 0xffffff84
4000091c:	e1a01003 	mov	r1, r3
40000920:	e3070a9c 	movw	r0, #31388	; 0x7a9c
40000924:	e3440001 	movt	r0, #16385	; 0x4001
40000928:	eb002e4c 	bl	4000c260 <printf>
4000092c:	e51b3078 	ldr	r3, [fp, #-120]	; 0xffffff88
40000930:	e1a01003 	mov	r1, r3
40000934:	e3070ac0 	movw	r0, #31424	; 0x7ac0
40000938:	e3440001 	movt	r0, #16385	; 0x4001
4000093c:	eb002e47 	bl	4000c260 <printf>
40000940:	e51b3074 	ldr	r3, [fp, #-116]	; 0xffffff8c
40000944:	e1a01003 	mov	r1, r3
40000948:	e3070ae4 	movw	r0, #31460	; 0x7ae4
4000094c:	e3440001 	movt	r0, #16385	; 0x4001
40000950:	eb002e42 	bl	4000c260 <printf>
40000954:	e51b3070 	ldr	r3, [fp, #-112]	; 0xffffff90
40000958:	e1a01003 	mov	r1, r3
4000095c:	e3070b08 	movw	r0, #31496	; 0x7b08
40000960:	e3440001 	movt	r0, #16385	; 0x4001
40000964:	eb002e3d 	bl	4000c260 <printf>
40000968:	e51b306c 	ldr	r3, [fp, #-108]	; 0xffffff94
4000096c:	e1a01003 	mov	r1, r3
40000970:	e3070b2c 	movw	r0, #31532	; 0x7b2c
40000974:	e3440001 	movt	r0, #16385	; 0x4001
40000978:	eb002e38 	bl	4000c260 <printf>
4000097c:	e51b3068 	ldr	r3, [fp, #-104]	; 0xffffff98
40000980:	e1a01003 	mov	r1, r3
40000984:	e3070b50 	movw	r0, #31568	; 0x7b50
40000988:	e3440001 	movt	r0, #16385	; 0x4001
4000098c:	eb002e33 	bl	4000c260 <printf>
40000990:	e51b3064 	ldr	r3, [fp, #-100]	; 0xffffff9c
40000994:	e1a01003 	mov	r1, r3
40000998:	e3070b74 	movw	r0, #31604	; 0x7b74
4000099c:	e3440001 	movt	r0, #16385	; 0x4001
400009a0:	eb002e2e 	bl	4000c260 <printf>
400009a4:	e51b3060 	ldr	r3, [fp, #-96]	; 0xffffffa0
400009a8:	e1a01003 	mov	r1, r3
400009ac:	e3070b98 	movw	r0, #31640	; 0x7b98
400009b0:	e3440001 	movt	r0, #16385	; 0x4001
400009b4:	eb002e29 	bl	4000c260 <printf>
400009b8:	e51b305c 	ldr	r3, [fp, #-92]	; 0xffffffa4
400009bc:	e1a01003 	mov	r1, r3
400009c0:	e3070bbc 	movw	r0, #31676	; 0x7bbc
400009c4:	e3440001 	movt	r0, #16385	; 0x4001
400009c8:	eb002e24 	bl	4000c260 <printf>
400009cc:	e51b3058 	ldr	r3, [fp, #-88]	; 0xffffffa8
400009d0:	e1a01003 	mov	r1, r3
400009d4:	e3070be0 	movw	r0, #31712	; 0x7be0
400009d8:	e3440001 	movt	r0, #16385	; 0x4001
400009dc:	eb002e1f 	bl	4000c260 <printf>
400009e0:	e51b3054 	ldr	r3, [fp, #-84]	; 0xffffffac
400009e4:	e1a01003 	mov	r1, r3
400009e8:	e3070c04 	movw	r0, #31748	; 0x7c04
400009ec:	e3440001 	movt	r0, #16385	; 0x4001
400009f0:	eb002e1a 	bl	4000c260 <printf>
400009f4:	e51b3050 	ldr	r3, [fp, #-80]	; 0xffffffb0
400009f8:	e1a01003 	mov	r1, r3
400009fc:	e3070c28 	movw	r0, #31784	; 0x7c28
40000a00:	e3440001 	movt	r0, #16385	; 0x4001
40000a04:	eb002e15 	bl	4000c260 <printf>
40000a08:	e51b304c 	ldr	r3, [fp, #-76]	; 0xffffffb4
40000a0c:	e1a01003 	mov	r1, r3
40000a10:	e3070c4c 	movw	r0, #31820	; 0x7c4c
40000a14:	e3440001 	movt	r0, #16385	; 0x4001
40000a18:	eb002e10 	bl	4000c260 <printf>
40000a1c:	e3003134 	movw	r3, #308	; 0x134
40000a20:	e3443000 	movt	r3, #16384	; 0x4000
40000a24:	e50b3010 	str	r3, [fp, #-16]
40000a28:	ee0c3f10 	mcr	15, 0, r3, cr12, cr0, {0}
40000a2c:	e50b3010 	str	r3, [fp, #-16]
40000a30:	ee1c3f10 	mrc	15, 0, r3, cr12, cr0, {0}
40000a34:	e50b3014 	str	r3, [fp, #-20]	; 0xffffffec
40000a38:	ee1c3f30 	mrc	15, 0, r3, cr12, cr0, {1}
40000a3c:	e50b3018 	str	r3, [fp, #-24]	; 0xffffffe8
40000a40:	ee1c3f11 	mrc	15, 0, r3, cr12, cr1, {0}
40000a44:	e50b301c 	str	r3, [fp, #-28]	; 0xffffffe4
40000a48:	e3070c70 	movw	r0, #31856	; 0x7c70
40000a4c:	e3440001 	movt	r0, #16385	; 0x4001
40000a50:	eb002e02 	bl	4000c260 <printf>
40000a54:	e51b1014 	ldr	r1, [fp, #-20]	; 0xffffffec
40000a58:	e3070c78 	movw	r0, #31864	; 0x7c78
40000a5c:	e3440001 	movt	r0, #16385	; 0x4001
40000a60:	eb002dfe 	bl	4000c260 <printf>
40000a64:	e51b1018 	ldr	r1, [fp, #-24]	; 0xffffffe8
40000a68:	e3070c9c 	movw	r0, #31900	; 0x7c9c
40000a6c:	e3440001 	movt	r0, #16385	; 0x4001
40000a70:	eb002dfa 	bl	4000c260 <printf>
40000a74:	e51b101c 	ldr	r1, [fp, #-28]	; 0xffffffe4
40000a78:	e3070cc0 	movw	r0, #31936	; 0x7cc0
40000a7c:	e3440001 	movt	r0, #16385	; 0x4001
40000a80:	eb002df6 	bl	4000c260 <printf>
40000a84:	e3070ce4 	movw	r0, #31972	; 0x7ce4
40000a88:	e3440001 	movt	r0, #16385	; 0x4001
40000a8c:	eb002df3 	bl	4000c260 <printf>
40000a90:	e3a01098 	mov	r1, #152	; 0x98
40000a94:	e3070cf4 	movw	r0, #31988	; 0x7cf4
40000a98:	e3440001 	movt	r0, #16385	; 0x4001
40000a9c:	eb002def 	bl	4000c260 <printf>
40000aa0:	e3a0100c 	mov	r1, #12
40000aa4:	e3070d10 	movw	r0, #32016	; 0x7d10
40000aa8:	e3440001 	movt	r0, #16385	; 0x4001
40000aac:	eb002deb 	bl	4000c260 <printf>
40000ab0:	e3070d34 	movw	r0, #32052	; 0x7d34
40000ab4:	e3440001 	movt	r0, #16385	; 0x4001
40000ab8:	eb002de8 	bl	4000c260 <printf>
40000abc:	e3a00004 	mov	r0, #4
40000ac0:	eb00098d 	bl	400030fc <__cxa_allocate_exception>
40000ac4:	e1a03000 	mov	r3, r0
40000ac8:	e1a00003 	mov	r0, r3
40000acc:	e3a03014 	mov	r3, #20
40000ad0:	e5803000 	str	r3, [r0]
40000ad4:	e3a02000 	mov	r2, #0
40000ad8:	e3081318 	movw	r1, #33560	; 0x8318
40000adc:	e3441001 	movt	r1, #16385	; 0x4001
40000ae0:	eb0009fe 	bl	400032e0 <__cxa_throw>
40000ae4:	e51b3008 	ldr	r3, [fp, #-8]
40000ae8:	e3530003 	cmp	r3, #3
40000aec:	8a00000d 	bhi	40000b28 <main+0x3a0>
40000af0:	e51b3008 	ldr	r3, [fp, #-8]
40000af4:	e1a03103 	lsl	r3, r3, #2
40000af8:	e51b2024 	ldr	r2, [fp, #-36]	; 0xffffffdc
40000afc:	e0823003 	add	r3, r2, r3
40000b00:	e5933000 	ldr	r3, [r3]
40000b04:	e1a02003 	mov	r2, r3
40000b08:	e51b1008 	ldr	r1, [fp, #-8]
40000b0c:	e3070d40 	movw	r0, #32064	; 0x7d40
40000b10:	e3440001 	movt	r0, #16385	; 0x4001
40000b14:	eb002dd1 	bl	4000c260 <printf>
40000b18:	e51b3008 	ldr	r3, [fp, #-8]
40000b1c:	e2833001 	add	r3, r3, #1
40000b20:	e50b3008 	str	r3, [fp, #-8]
40000b24:	eaffffee 	b	40000ae4 <main+0x35c>
40000b28:	e30a3510 	movw	r3, #42256	; 0xa510
40000b2c:	e3443001 	movt	r3, #16385	; 0x4001
40000b30:	e3a02000 	mov	r2, #0
40000b34:	e5832000 	str	r2, [r3]
40000b38:	e30a3510 	movw	r3, #42256	; 0xa510
40000b3c:	e3443001 	movt	r3, #16385	; 0x4001
40000b40:	e3a02000 	mov	r2, #0
40000b44:	e5832004 	str	r2, [r3, #4]
40000b48:	e30a3510 	movw	r3, #42256	; 0xa510
40000b4c:	e3443001 	movt	r3, #16385	; 0x4001
40000b50:	e3a02000 	mov	r2, #0
40000b54:	e5832008 	str	r2, [r3, #8]
40000b58:	e10f3000 	mrs	r3, CPSR
40000b5c:	e50b3028 	str	r3, [fp, #-40]	; 0xffffffd8
40000b60:	e51b1028 	ldr	r1, [fp, #-40]	; 0xffffffd8
40000b64:	e3070d54 	movw	r0, #32084	; 0x7d54
40000b68:	e3440001 	movt	r0, #16385	; 0x4001
40000b6c:	eb002dbb 	bl	4000c260 <printf>
40000b70:	eb000233 	bl	40001444 <_ZN6vensos4core9interrupt15init_interruptsEv>
40000b74:	e10f3000 	mrs	r3, CPSR
40000b78:	e50b3028 	str	r3, [fp, #-40]	; 0xffffffd8
40000b7c:	e51b1028 	ldr	r1, [fp, #-40]	; 0xffffffd8
40000b80:	e3070d54 	movw	r0, #32084	; 0x7d54
40000b84:	e3440001 	movt	r0, #16385	; 0x4001
40000b88:	eb002db4 	bl	4000c260 <printf>
40000b8c:	e3a03b03 	mov	r3, #3072	; 0xc00
40000b90:	e34031c2 	movt	r3, #450	; 0x1c2
40000b94:	e5932000 	ldr	r2, [r3]
40000b98:	e3822004 	orr	r2, r2, #4
40000b9c:	e5832000 	str	r2, [r3]
40000ba0:	e3a03b03 	mov	r3, #3072	; 0xc00
40000ba4:	e34031c2 	movt	r3, #450	; 0x1c2
40000ba8:	e3a02a01 	mov	r2, #4096	; 0x1000
40000bac:	e5832034 	str	r2, [r3, #52]	; 0x34
40000bb0:	e3a03b03 	mov	r3, #3072	; 0xc00
40000bb4:	e34031c2 	movt	r3, #450	; 0x1c2
40000bb8:	e5932030 	ldr	r2, [r3, #48]	; 0x30
40000bbc:	e3822001 	orr	r2, r2, #1
40000bc0:	e5832030 	str	r2, [r3, #48]	; 0x30
40000bc4:	e3a03b03 	mov	r3, #3072	; 0xc00
40000bc8:	e34031c2 	movt	r3, #450	; 0x1c2
40000bcc:	e5933030 	ldr	r3, [r3, #48]	; 0x30
40000bd0:	e7e13253 	ubfx	r3, r3, #4, #2
40000bd4:	e6ef3073 	uxtb	r3, r3
40000bd8:	e50b302c 	str	r3, [fp, #-44]	; 0xffffffd4
40000bdc:	e3a03b03 	mov	r3, #3072	; 0xc00
40000be0:	e34031c2 	movt	r3, #450	; 0x1c2
40000be4:	e5933030 	ldr	r3, [r3, #48]	; 0x30
40000be8:	e7e13153 	ubfx	r3, r3, #2, #2
40000bec:	e6ef3073 	uxtb	r3, r3
40000bf0:	e50b3030 	str	r3, [fp, #-48]	; 0xffffffd0
40000bf4:	e3a03b03 	mov	r3, #3072	; 0xc00
40000bf8:	e34031c2 	movt	r3, #450	; 0x1c2
40000bfc:	e5933030 	ldr	r3, [r3, #48]	; 0x30
40000c00:	e7e03053 	ubfx	r3, r3, #0, #1
40000c04:	e6ef3073 	uxtb	r3, r3
40000c08:	e50b3034 	str	r3, [fp, #-52]	; 0xffffffcc
40000c0c:	e3a03b03 	mov	r3, #3072	; 0xc00
40000c10:	e34031c2 	movt	r3, #450	; 0x1c2
40000c14:	e5933030 	ldr	r3, [r3, #48]	; 0x30
40000c18:	e7e03353 	ubfx	r3, r3, #6, #1
40000c1c:	e6ef3073 	uxtb	r3, r3
40000c20:	e50b3038 	str	r3, [fp, #-56]	; 0xffffffc8
40000c24:	e3a03b03 	mov	r3, #3072	; 0xc00
40000c28:	e34031c2 	movt	r3, #450	; 0x1c2
40000c2c:	e5933030 	ldr	r3, [r3, #48]	; 0x30
40000c30:	e7e030d3 	ubfx	r3, r3, #1, #1
40000c34:	e6ef3073 	uxtb	r3, r3
40000c38:	e50b303c 	str	r3, [fp, #-60]	; 0xffffffc4
40000c3c:	e3a03b03 	mov	r3, #3072	; 0xc00
40000c40:	e34031c2 	movt	r3, #450	; 0x1c2
40000c44:	e5933034 	ldr	r3, [r3, #52]	; 0x34
40000c48:	e50b3040 	str	r3, [fp, #-64]	; 0xffffffc0
40000c4c:	e3a03b03 	mov	r3, #3072	; 0xc00
40000c50:	e34031c2 	movt	r3, #450	; 0x1c2
40000c54:	e5933038 	ldr	r3, [r3, #56]	; 0x38
40000c58:	e50b3044 	str	r3, [fp, #-68]	; 0xffffffbc
40000c5c:	e3a03b03 	mov	r3, #3072	; 0xc00
40000c60:	e34031c2 	movt	r3, #450	; 0x1c2
40000c64:	e5933030 	ldr	r3, [r3, #48]	; 0x30
40000c68:	e50b3048 	str	r3, [fp, #-72]	; 0xffffffb8
40000c6c:	e51b3048 	ldr	r3, [fp, #-72]	; 0xffffffb8
40000c70:	e58d3010 	str	r3, [sp, #16]
40000c74:	e51b3044 	ldr	r3, [fp, #-68]	; 0xffffffbc
40000c78:	e58d300c 	str	r3, [sp, #12]
40000c7c:	e51b3040 	ldr	r3, [fp, #-64]	; 0xffffffc0
40000c80:	e58d3008 	str	r3, [sp, #8]
40000c84:	e51b303c 	ldr	r3, [fp, #-60]	; 0xffffffc4
40000c88:	e58d3004 	str	r3, [sp, #4]
40000c8c:	e51b3038 	ldr	r3, [fp, #-56]	; 0xffffffc8
40000c90:	e58d3000 	str	r3, [sp]
40000c94:	e51b3034 	ldr	r3, [fp, #-52]	; 0xffffffcc
40000c98:	e51b2030 	ldr	r2, [fp, #-48]	; 0xffffffd0
40000c9c:	e51b102c 	ldr	r1, [fp, #-44]	; 0xffffffd4
40000ca0:	e3070d64 	movw	r0, #32100	; 0x7d64
40000ca4:	e3440001 	movt	r0, #16385	; 0x4001
40000ca8:	eb002d6c 	bl	4000c260 <printf>
40000cac:	e3a03000 	mov	r3, #0
40000cb0:	e50b300c 	str	r3, [fp, #-12]
40000cb4:	e3a03b03 	mov	r3, #3072	; 0xc00
40000cb8:	e34031c2 	movt	r3, #450	; 0x1c2
40000cbc:	e5931038 	ldr	r1, [r3, #56]	; 0x38
40000cc0:	e30a350c 	movw	r3, #42252	; 0xa50c
40000cc4:	e3443001 	movt	r3, #16385	; 0x4001
40000cc8:	e5933000 	ldr	r3, [r3]
40000ccc:	e1a02003 	mov	r2, r3
40000cd0:	e3070db0 	movw	r0, #32176	; 0x7db0
40000cd4:	e3440001 	movt	r0, #16385	; 0x4001
40000cd8:	eb002d60 	bl	4000c260 <printf>
40000cdc:	e51b300c 	ldr	r3, [fp, #-12]
40000ce0:	e2833001 	add	r3, r3, #1
40000ce4:	e50b300c 	str	r3, [fp, #-12]
40000ce8:	e51b300c 	ldr	r3, [fp, #-12]
40000cec:	e353001e 	cmp	r3, #30
40000cf0:	daffffef 	ble	40000cb4 <main+0x52c>
40000cf4:	e3a03b03 	mov	r3, #3072	; 0xc00
40000cf8:	e34031c2 	movt	r3, #450	; 0x1c2
40000cfc:	e5933004 	ldr	r3, [r3, #4]
40000d00:	e7e03153 	ubfx	r3, r3, #2, #1
40000d04:	e6ef3073 	uxtb	r3, r3
40000d08:	e1a01003 	mov	r1, r3
40000d0c:	e3070dd0 	movw	r0, #32208	; 0x7dd0
40000d10:	e3440001 	movt	r0, #16385	; 0x4001
40000d14:	eb002d51 	bl	4000c260 <printf>
40000d18:	eb0001a4 	bl	400013b0 <_ZN6vensos4core9interrupt16print_int_ctrlerEv>
40000d1c:	eafffffe 	b	40000d1c <main+0x594>
40000d20:	e1a02000 	mov	r2, r0
40000d24:	e1a03001 	mov	r3, r1
40000d28:	e3530001 	cmp	r3, #1
40000d2c:	0a000000 	beq	40000d34 <main+0x5ac>
40000d30:	eb000a46 	bl	40003650 <__cxa_end_cleanup>
40000d34:	e1a03002 	mov	r3, r2
40000d38:	e1a00003 	mov	r0, r3
40000d3c:	eb000baf 	bl	40003c00 <__cxa_begin_catch>
40000d40:	e1a03000 	mov	r3, r0
40000d44:	e5933000 	ldr	r3, [r3]
40000d48:	e50b3020 	str	r3, [fp, #-32]	; 0xffffffe0
40000d4c:	e51b1020 	ldr	r1, [fp, #-32]	; 0xffffffe0
40000d50:	e3070ddc 	movw	r0, #32220	; 0x7ddc
40000d54:	e3440001 	movt	r0, #16385	; 0x4001
40000d58:	eb002d40 	bl	4000c260 <printf>
40000d5c:	eb000bc7 	bl	40003c80 <__cxa_end_catch>
40000d60:	e3070df4 	movw	r0, #32244	; 0x7df4
40000d64:	e3440001 	movt	r0, #16385	; 0x4001
40000d68:	eb002d3c 	bl	4000c260 <printf>
40000d6c:	e3a01b03 	mov	r1, #3072	; 0xc00
40000d70:	e34011c2 	movt	r1, #450	; 0x1c2
40000d74:	e3070e08 	movw	r0, #32264	; 0x7e08
40000d78:	e3440001 	movt	r0, #16385	; 0x4001
40000d7c:	eb002d37 	bl	4000c260 <printf>
40000d80:	e3073e18 	movw	r3, #32280	; 0x7e18
40000d84:	e3443001 	movt	r3, #16385	; 0x4001
40000d88:	e24bc0b0 	sub	ip, fp, #176	; 0xb0
40000d8c:	e893000f 	ldm	r3, {r0, r1, r2, r3}
40000d90:	e88c000f 	stm	ip, {r0, r1, r2, r3}
40000d94:	e24b30b0 	sub	r3, fp, #176	; 0xb0
40000d98:	e50b3024 	str	r3, [fp, #-36]	; 0xffffffdc
40000d9c:	e3a03000 	mov	r3, #0
40000da0:	e50b3008 	str	r3, [fp, #-8]
40000da4:	eaffff4e 	b	40000ae4 <main+0x35c>
40000da8:	eb000bb4 	bl	40003c80 <__cxa_end_catch>
40000dac:	eb000a27 	bl	40003650 <__cxa_end_cleanup>

40000db0 <_init>:
40000db0:	e92d4830 	push	{r4, r5, fp, lr}
40000db4:	e28db00c 	add	fp, sp, #12
40000db8:	e3a00008 	mov	r0, #8
40000dbc:	eb00091f 	bl	40003240 <_Znwj>
40000dc0:	e1a03000 	mov	r3, r0
40000dc4:	e1a04003 	mov	r4, r3
40000dc8:	e3a01b21 	mov	r1, #33792	; 0x8400
40000dcc:	e34011c2 	movt	r1, #450	; 0x1c2
40000dd0:	e1a00004 	mov	r0, r4
40000dd4:	ebfffd3b 	bl	400002c8 <_ZN6Serial4UartC1Ej>
40000dd8:	e30a351c 	movw	r3, #42268	; 0xa51c
40000ddc:	e3443001 	movt	r3, #16385	; 0x4001
40000de0:	e5834000 	str	r4, [r3]
40000de4:	ea000002 	b	40000df4 <_init+0x44>
40000de8:	e1a00004 	mov	r0, r4
40000dec:	eb000af6 	bl	400039cc <_ZdlPv>
40000df0:	eb000a16 	bl	40003650 <__cxa_end_cleanup>
40000df4:	e8bd8830 	pop	{r4, r5, fp, pc}

40000df8 <_fini>:
40000df8:	e52db004 	push	{fp}		; (str fp, [sp, #-4]!)
40000dfc:	e28db000 	add	fp, sp, #0
40000e00:	e320f000 	nop	{0}
40000e04:	e28bd000 	add	sp, fp, #0
40000e08:	e49db004 	pop	{fp}		; (ldr fp, [sp], #4)
40000e0c:	e12fff1e 	bx	lr

40000e10 <_exit>:
40000e10:	e52db004 	push	{fp}		; (str fp, [sp, #-4]!)
40000e14:	e28db000 	add	fp, sp, #0
40000e18:	eafffffe 	b	40000e18 <_exit+0x8>

40000e1c <_open_r>:
40000e1c:	e52db004 	push	{fp}		; (str fp, [sp, #-4]!)
40000e20:	e28db000 	add	fp, sp, #0
40000e24:	e24dd014 	sub	sp, sp, #20
40000e28:	e50b0008 	str	r0, [fp, #-8]
40000e2c:	e50b100c 	str	r1, [fp, #-12]
40000e30:	e50b2010 	str	r2, [fp, #-16]
40000e34:	e50b3014 	str	r3, [fp, #-20]	; 0xffffffec
40000e38:	e3a03000 	mov	r3, #0
40000e3c:	e1a00003 	mov	r0, r3
40000e40:	e28bd000 	add	sp, fp, #0
40000e44:	e49db004 	pop	{fp}		; (ldr fp, [sp], #4)
40000e48:	e12fff1e 	bx	lr

40000e4c <_close_r>:
40000e4c:	e52db004 	push	{fp}		; (str fp, [sp, #-4]!)
40000e50:	e28db000 	add	fp, sp, #0
40000e54:	e24dd00c 	sub	sp, sp, #12
40000e58:	e50b0008 	str	r0, [fp, #-8]
40000e5c:	e50b100c 	str	r1, [fp, #-12]
40000e60:	e3a03000 	mov	r3, #0
40000e64:	e1a00003 	mov	r0, r3
40000e68:	e28bd000 	add	sp, fp, #0
40000e6c:	e49db004 	pop	{fp}		; (ldr fp, [sp], #4)
40000e70:	e12fff1e 	bx	lr

40000e74 <_read_r>:
40000e74:	e92d4800 	push	{fp, lr}
40000e78:	e28db004 	add	fp, sp, #4
40000e7c:	e24dd018 	sub	sp, sp, #24
40000e80:	e50b0010 	str	r0, [fp, #-16]
40000e84:	e50b1014 	str	r1, [fp, #-20]	; 0xffffffec
40000e88:	e50b2018 	str	r2, [fp, #-24]	; 0xffffffe8
40000e8c:	e50b301c 	str	r3, [fp, #-28]	; 0xffffffe4
40000e90:	e51b3018 	ldr	r3, [fp, #-24]	; 0xffffffe8
40000e94:	e50b300c 	str	r3, [fp, #-12]
40000e98:	e3a03000 	mov	r3, #0
40000e9c:	e50b3008 	str	r3, [fp, #-8]
40000ea0:	e51b2008 	ldr	r2, [fp, #-8]
40000ea4:	e51b301c 	ldr	r3, [fp, #-28]	; 0xffffffe4
40000ea8:	e1520003 	cmp	r2, r3
40000eac:	2a00000f 	bcs	40000ef0 <_read_r+0x7c>
40000eb0:	e30a351c 	movw	r3, #42268	; 0xa51c
40000eb4:	e3443001 	movt	r3, #16385	; 0x4001
40000eb8:	e5933000 	ldr	r3, [r3]
40000ebc:	e1a00003 	mov	r0, r3
40000ec0:	ebfffd10 	bl	40000308 <_ZN6Serial4Uart8ReadByteEv>
40000ec4:	e1a03000 	mov	r3, r0
40000ec8:	e1a02003 	mov	r2, r3
40000ecc:	e51b300c 	ldr	r3, [fp, #-12]
40000ed0:	e5c32000 	strb	r2, [r3]
40000ed4:	e51b300c 	ldr	r3, [fp, #-12]
40000ed8:	e2833001 	add	r3, r3, #1
40000edc:	e50b300c 	str	r3, [fp, #-12]
40000ee0:	e51b3008 	ldr	r3, [fp, #-8]
40000ee4:	e2833001 	add	r3, r3, #1
40000ee8:	e50b3008 	str	r3, [fp, #-8]
40000eec:	eaffffeb 	b	40000ea0 <_read_r+0x2c>
40000ef0:	e51b301c 	ldr	r3, [fp, #-28]	; 0xffffffe4
40000ef4:	e1a00003 	mov	r0, r3
40000ef8:	e24bd004 	sub	sp, fp, #4
40000efc:	e8bd8800 	pop	{fp, pc}

40000f00 <_write_r>:
40000f00:	e92d4800 	push	{fp, lr}
40000f04:	e28db004 	add	fp, sp, #4
40000f08:	e24dd018 	sub	sp, sp, #24
40000f0c:	e50b0010 	str	r0, [fp, #-16]
40000f10:	e50b1014 	str	r1, [fp, #-20]	; 0xffffffec
40000f14:	e50b2018 	str	r2, [fp, #-24]	; 0xffffffe8
40000f18:	e50b301c 	str	r3, [fp, #-28]	; 0xffffffe4
40000f1c:	e51b3018 	ldr	r3, [fp, #-24]	; 0xffffffe8
40000f20:	e50b300c 	str	r3, [fp, #-12]
40000f24:	e3a03000 	mov	r3, #0
40000f28:	e50b3008 	str	r3, [fp, #-8]
40000f2c:	e51b2008 	ldr	r2, [fp, #-8]
40000f30:	e51b301c 	ldr	r3, [fp, #-28]	; 0xffffffe4
40000f34:	e1520003 	cmp	r2, r3
40000f38:	2a00000e 	bcs	40000f78 <_write_r+0x78>
40000f3c:	e30a351c 	movw	r3, #42268	; 0xa51c
40000f40:	e3443001 	movt	r3, #16385	; 0x4001
40000f44:	e5932000 	ldr	r2, [r3]
40000f48:	e51b300c 	ldr	r3, [fp, #-12]
40000f4c:	e5d33000 	ldrb	r3, [r3]
40000f50:	e1a01003 	mov	r1, r3
40000f54:	e1a00002 	mov	r0, r2
40000f58:	ebfffcf6 	bl	40000338 <_ZN6Serial4Uart9WriteByteEh>
40000f5c:	e51b300c 	ldr	r3, [fp, #-12]
40000f60:	e2833001 	add	r3, r3, #1
40000f64:	e50b300c 	str	r3, [fp, #-12]
40000f68:	e51b3008 	ldr	r3, [fp, #-8]
40000f6c:	e2833001 	add	r3, r3, #1
40000f70:	e50b3008 	str	r3, [fp, #-8]
40000f74:	eaffffec 	b	40000f2c <_write_r+0x2c>
40000f78:	e51b301c 	ldr	r3, [fp, #-28]	; 0xffffffe4
40000f7c:	e1a00003 	mov	r0, r3
40000f80:	e24bd004 	sub	sp, fp, #4
40000f84:	e8bd8800 	pop	{fp, pc}

40000f88 <_lseek_r>:
40000f88:	e52db004 	push	{fp}		; (str fp, [sp, #-4]!)
40000f8c:	e28db000 	add	fp, sp, #0
40000f90:	e24dd014 	sub	sp, sp, #20
40000f94:	e50b0008 	str	r0, [fp, #-8]
40000f98:	e50b100c 	str	r1, [fp, #-12]
40000f9c:	e50b2010 	str	r2, [fp, #-16]
40000fa0:	e50b3014 	str	r3, [fp, #-20]	; 0xffffffec
40000fa4:	e3a03000 	mov	r3, #0
40000fa8:	e1a00003 	mov	r0, r3
40000fac:	e28bd000 	add	sp, fp, #0
40000fb0:	e49db004 	pop	{fp}		; (ldr fp, [sp], #4)
40000fb4:	e12fff1e 	bx	lr

40000fb8 <_fstat_r>:
40000fb8:	e52db004 	push	{fp}		; (str fp, [sp, #-4]!)
40000fbc:	e28db000 	add	fp, sp, #0
40000fc0:	e24dd014 	sub	sp, sp, #20
40000fc4:	e50b0008 	str	r0, [fp, #-8]
40000fc8:	e50b100c 	str	r1, [fp, #-12]
40000fcc:	e50b2010 	str	r2, [fp, #-16]
40000fd0:	e51b3010 	ldr	r3, [fp, #-16]
40000fd4:	e3a02a02 	mov	r2, #8192	; 0x2000
40000fd8:	e5832004 	str	r2, [r3, #4]
40000fdc:	e3a03000 	mov	r3, #0
40000fe0:	e1a00003 	mov	r0, r3
40000fe4:	e28bd000 	add	sp, fp, #0
40000fe8:	e49db004 	pop	{fp}		; (ldr fp, [sp], #4)
40000fec:	e12fff1e 	bx	lr

40000ff0 <_stat_r>:
40000ff0:	e52db004 	push	{fp}		; (str fp, [sp, #-4]!)
40000ff4:	e28db000 	add	fp, sp, #0
40000ff8:	e24dd014 	sub	sp, sp, #20
40000ffc:	e50b0008 	str	r0, [fp, #-8]
40001000:	e50b100c 	str	r1, [fp, #-12]
40001004:	e50b2010 	str	r2, [fp, #-16]
40001008:	e51b3010 	ldr	r3, [fp, #-16]
4000100c:	e3a02a02 	mov	r2, #8192	; 0x2000
40001010:	e5832004 	str	r2, [r3, #4]
40001014:	e3a03000 	mov	r3, #0
40001018:	e1a00003 	mov	r0, r3
4000101c:	e28bd000 	add	sp, fp, #0
40001020:	e49db004 	pop	{fp}		; (ldr fp, [sp], #4)
40001024:	e12fff1e 	bx	lr

40001028 <_isatty_r>:
40001028:	e52db004 	push	{fp}		; (str fp, [sp, #-4]!)
4000102c:	e28db000 	add	fp, sp, #0
40001030:	e24dd00c 	sub	sp, sp, #12
40001034:	e50b0008 	str	r0, [fp, #-8]
40001038:	e50b100c 	str	r1, [fp, #-12]
4000103c:	e3a03001 	mov	r3, #1
40001040:	e1a00003 	mov	r0, r3
40001044:	e28bd000 	add	sp, fp, #0
40001048:	e49db004 	pop	{fp}		; (ldr fp, [sp], #4)
4000104c:	e12fff1e 	bx	lr

40001050 <_link_r>:
40001050:	e52db004 	push	{fp}		; (str fp, [sp, #-4]!)
40001054:	e28db000 	add	fp, sp, #0
40001058:	e24dd014 	sub	sp, sp, #20
4000105c:	e50b0008 	str	r0, [fp, #-8]
40001060:	e50b100c 	str	r1, [fp, #-12]
40001064:	e50b2010 	str	r2, [fp, #-16]
40001068:	e51b3008 	ldr	r3, [fp, #-8]
4000106c:	e3a0201f 	mov	r2, #31
40001070:	e5832000 	str	r2, [r3]
40001074:	e3e03000 	mvn	r3, #0
40001078:	e1a00003 	mov	r0, r3
4000107c:	e28bd000 	add	sp, fp, #0
40001080:	e49db004 	pop	{fp}		; (ldr fp, [sp], #4)
40001084:	e12fff1e 	bx	lr

40001088 <_unlink_r>:
40001088:	e52db004 	push	{fp}		; (str fp, [sp, #-4]!)
4000108c:	e28db000 	add	fp, sp, #0
40001090:	e24dd00c 	sub	sp, sp, #12
40001094:	e50b0008 	str	r0, [fp, #-8]
40001098:	e50b100c 	str	r1, [fp, #-12]
4000109c:	e51b3008 	ldr	r3, [fp, #-8]
400010a0:	e3a02002 	mov	r2, #2
400010a4:	e5832000 	str	r2, [r3]
400010a8:	e3e03000 	mvn	r3, #0
400010ac:	e1a00003 	mov	r0, r3
400010b0:	e28bd000 	add	sp, fp, #0
400010b4:	e49db004 	pop	{fp}		; (ldr fp, [sp], #4)
400010b8:	e12fff1e 	bx	lr

400010bc <_fork_r>:
400010bc:	e52db004 	push	{fp}		; (str fp, [sp, #-4]!)
400010c0:	e28db000 	add	fp, sp, #0
400010c4:	e24dd00c 	sub	sp, sp, #12
400010c8:	e50b0008 	str	r0, [fp, #-8]
400010cc:	e51b3008 	ldr	r3, [fp, #-8]
400010d0:	e3a0200b 	mov	r2, #11
400010d4:	e5832000 	str	r2, [r3]
400010d8:	e3e03000 	mvn	r3, #0
400010dc:	e1a00003 	mov	r0, r3
400010e0:	e28bd000 	add	sp, fp, #0
400010e4:	e49db004 	pop	{fp}		; (ldr fp, [sp], #4)
400010e8:	e12fff1e 	bx	lr

400010ec <_execve>:
400010ec:	e52db004 	push	{fp}		; (str fp, [sp, #-4]!)
400010f0:	e28db000 	add	fp, sp, #0
400010f4:	e24dd014 	sub	sp, sp, #20
400010f8:	e50b0008 	str	r0, [fp, #-8]
400010fc:	e50b100c 	str	r1, [fp, #-12]
40001100:	e50b2010 	str	r2, [fp, #-16]
40001104:	e30a3584 	movw	r3, #42372	; 0xa584
40001108:	e3443011 	movt	r3, #16401	; 0x4011
4000110c:	e3a0200c 	mov	r2, #12
40001110:	e5832000 	str	r2, [r3]
40001114:	e3e03000 	mvn	r3, #0
40001118:	e1a00003 	mov	r0, r3
4000111c:	e28bd000 	add	sp, fp, #0
40001120:	e49db004 	pop	{fp}		; (ldr fp, [sp], #4)
40001124:	e12fff1e 	bx	lr

40001128 <_getpid>:
40001128:	e52db004 	push	{fp}		; (str fp, [sp, #-4]!)
4000112c:	e28db000 	add	fp, sp, #0
40001130:	e3a03001 	mov	r3, #1
40001134:	e1a00003 	mov	r0, r3
40001138:	e28bd000 	add	sp, fp, #0
4000113c:	e49db004 	pop	{fp}		; (ldr fp, [sp], #4)
40001140:	e12fff1e 	bx	lr

40001144 <_times>:
40001144:	e52db004 	push	{fp}		; (str fp, [sp, #-4]!)
40001148:	e28db000 	add	fp, sp, #0
4000114c:	e24dd00c 	sub	sp, sp, #12
40001150:	e50b0008 	str	r0, [fp, #-8]
40001154:	e3e03000 	mvn	r3, #0
40001158:	e1a00003 	mov	r0, r3
4000115c:	e28bd000 	add	sp, fp, #0
40001160:	e49db004 	pop	{fp}		; (ldr fp, [sp], #4)
40001164:	e12fff1e 	bx	lr

40001168 <_wait_r>:
40001168:	e52db004 	push	{fp}		; (str fp, [sp, #-4]!)
4000116c:	e28db000 	add	fp, sp, #0
40001170:	e24dd00c 	sub	sp, sp, #12
40001174:	e50b0008 	str	r0, [fp, #-8]
40001178:	e50b100c 	str	r1, [fp, #-12]
4000117c:	e51b3008 	ldr	r3, [fp, #-8]
40001180:	e3a0200a 	mov	r2, #10
40001184:	e5832000 	str	r2, [r3]
40001188:	e3e03000 	mvn	r3, #0
4000118c:	e1a00003 	mov	r0, r3
40001190:	e28bd000 	add	sp, fp, #0
40001194:	e49db004 	pop	{fp}		; (ldr fp, [sp], #4)
40001198:	e12fff1e 	bx	lr

4000119c <_kill>:
4000119c:	e52db004 	push	{fp}		; (str fp, [sp, #-4]!)
400011a0:	e28db000 	add	fp, sp, #0
400011a4:	e24dd00c 	sub	sp, sp, #12
400011a8:	e50b0008 	str	r0, [fp, #-8]
400011ac:	e50b100c 	str	r1, [fp, #-12]
400011b0:	e30a3584 	movw	r3, #42372	; 0xa584
400011b4:	e3443011 	movt	r3, #16401	; 0x4011
400011b8:	e3a02016 	mov	r2, #22
400011bc:	e5832000 	str	r2, [r3]
400011c0:	e3e03000 	mvn	r3, #0
400011c4:	e1a00003 	mov	r0, r3
400011c8:	e28bd000 	add	sp, fp, #0
400011cc:	e49db004 	pop	{fp}		; (ldr fp, [sp], #4)
400011d0:	e12fff1e 	bx	lr

400011d4 <_sbrk_r>:
400011d4:	e52db004 	push	{fp}		; (str fp, [sp, #-4]!)
400011d8:	e28db000 	add	fp, sp, #0
400011dc:	e24dd014 	sub	sp, sp, #20
400011e0:	e50b0010 	str	r0, [fp, #-16]
400011e4:	e30a3524 	movw	r3, #42276	; 0xa524
400011e8:	e3443011 	movt	r3, #16401	; 0x4011
400011ec:	e5933000 	ldr	r3, [r3]
400011f0:	e3530000 	cmp	r3, #0
400011f4:	1a000003 	bne	40001208 <_sbrk_r+0x34>
400011f8:	e30a3524 	movw	r3, #42276	; 0xa524
400011fc:	e3443011 	movt	r3, #16401	; 0x4011
40001200:	e3a02000 	mov	r2, #0
40001204:	e5832000 	str	r2, [r3]
40001208:	e30a3524 	movw	r3, #42276	; 0xa524
4000120c:	e3443011 	movt	r3, #16401	; 0x4011
40001210:	e5933000 	ldr	r3, [r3]
40001214:	e50b3008 	str	r3, [fp, #-8]
40001218:	e30a3524 	movw	r3, #42276	; 0xa524
4000121c:	e3443011 	movt	r3, #16401	; 0x4011
40001220:	e5932000 	ldr	r2, [r3]
40001224:	e51b3010 	ldr	r3, [fp, #-16]
40001228:	e0823003 	add	r3, r2, r3
4000122c:	e1a02003 	mov	r2, r3
40001230:	e30a3524 	movw	r3, #42276	; 0xa524
40001234:	e3443001 	movt	r3, #16385	; 0x4001
40001238:	e0423003 	sub	r3, r2, r3
4000123c:	e3530601 	cmp	r3, #1048576	; 0x100000
40001240:	da000001 	ble	4000124c <_sbrk_r+0x78>
40001244:	e3a03000 	mov	r3, #0
40001248:	ea000008 	b	40001270 <_sbrk_r+0x9c>
4000124c:	e30a3524 	movw	r3, #42276	; 0xa524
40001250:	e3443011 	movt	r3, #16401	; 0x4011
40001254:	e5932000 	ldr	r2, [r3]
40001258:	e51b3010 	ldr	r3, [fp, #-16]
4000125c:	e0822003 	add	r2, r2, r3
40001260:	e30a3524 	movw	r3, #42276	; 0xa524
40001264:	e3443011 	movt	r3, #16401	; 0x4011
40001268:	e5832000 	str	r2, [r3]
4000126c:	e51b3008 	ldr	r3, [fp, #-8]
40001270:	e1a00003 	mov	r0, r3
40001274:	e28bd000 	add	sp, fp, #0
40001278:	e49db004 	pop	{fp}		; (ldr fp, [sp], #4)
4000127c:	e12fff1e 	bx	lr

40001280 <__isr_undefined>:
40001280:	e24ee004 	sub	lr, lr, #4
40001284:	e92d581f 	push	{r0, r1, r2, r3, r4, fp, ip, lr}
40001288:	e28db01c 	add	fp, sp, #28
4000128c:	e3070e2c 	movw	r0, #32300	; 0x7e2c
40001290:	e3440001 	movt	r0, #16385	; 0x4001
40001294:	eb002bf1 	bl	4000c260 <printf>
40001298:	e320f000 	nop	{0}
4000129c:	e24bd01c 	sub	sp, fp, #28
400012a0:	e8fd981f 	ldm	sp!, {r0, r1, r2, r3, r4, fp, ip, pc}^

400012a4 <_reset_vect>:
400012a4:	e92d4800 	push	{fp, lr}
400012a8:	e28db004 	add	fp, sp, #4
400012ac:	e3070e40 	movw	r0, #32320	; 0x7e40
400012b0:	e3440001 	movt	r0, #16385	; 0x4001
400012b4:	eb002be9 	bl	4000c260 <printf>
400012b8:	eb00003c 	bl	400013b0 <_ZN6vensos4core9interrupt16print_int_ctrlerEv>
400012bc:	eafffffe 	b	400012bc <_reset_vect+0x18>

400012c0 <_undefined_instruction_vect>:
400012c0:	e24ee004 	sub	lr, lr, #4
400012c4:	e92d581f 	push	{r0, r1, r2, r3, r4, fp, ip, lr}
400012c8:	e28db01c 	add	fp, sp, #28
400012cc:	e3070e50 	movw	r0, #32336	; 0x7e50
400012d0:	e3440001 	movt	r0, #16385	; 0x4001
400012d4:	eb002be1 	bl	4000c260 <printf>
400012d8:	eb000034 	bl	400013b0 <_ZN6vensos4core9interrupt16print_int_ctrlerEv>
400012dc:	e3a03b01 	mov	r3, #1024	; 0x400
400012e0:	e34031c2 	movt	r3, #450	; 0x1c2
400012e4:	e5932070 	ldr	r2, [r3, #112]	; 0x70
400012e8:	e7d82c1f 	bfc	r2, #24, #1
400012ec:	e5832070 	str	r2, [r3, #112]	; 0x70
400012f0:	ebfffce8 	bl	40000698 <isr_Timer2>
400012f4:	e3070e70 	movw	r0, #32368	; 0x7e70
400012f8:	e3440001 	movt	r0, #16385	; 0x4001
400012fc:	eb002bd7 	bl	4000c260 <printf>
40001300:	eafffffe 	b	40001300 <_undefined_instruction_vect+0x40>

40001304 <_software_interrupt_vect>:
40001304:	e24ee004 	sub	lr, lr, #4
40001308:	e92d581f 	push	{r0, r1, r2, r3, r4, fp, ip, lr}
4000130c:	e28db01c 	add	fp, sp, #28
40001310:	e3070e8c 	movw	r0, #32396	; 0x7e8c
40001314:	e3440001 	movt	r0, #16385	; 0x4001
40001318:	eb002bd0 	bl	4000c260 <printf>
4000131c:	eb000023 	bl	400013b0 <_ZN6vensos4core9interrupt16print_int_ctrlerEv>
40001320:	eafffffe 	b	40001320 <_software_interrupt_vect+0x1c>

40001324 <_prefetch_abort_vect>:
40001324:	e92d4800 	push	{fp, lr}
40001328:	e28db004 	add	fp, sp, #4
4000132c:	e3070eac 	movw	r0, #32428	; 0x7eac
40001330:	e3440001 	movt	r0, #16385	; 0x4001
40001334:	eb002bc9 	bl	4000c260 <printf>
40001338:	eb00001c 	bl	400013b0 <_ZN6vensos4core9interrupt16print_int_ctrlerEv>
4000133c:	eafffffe 	b	4000133c <_prefetch_abort_vect+0x18>

40001340 <_data_abort_vect>:
40001340:	e92d4800 	push	{fp, lr}
40001344:	e28db004 	add	fp, sp, #4
40001348:	e3070ec8 	movw	r0, #32456	; 0x7ec8
4000134c:	e3440001 	movt	r0, #16385	; 0x4001
40001350:	eb002bc2 	bl	4000c260 <printf>
40001354:	eb000015 	bl	400013b0 <_ZN6vensos4core9interrupt16print_int_ctrlerEv>
40001358:	eafffffe 	b	40001358 <_data_abort_vect+0x18>

4000135c <_unused_handler_vect>:
4000135c:	e92d4800 	push	{fp, lr}
40001360:	e28db004 	add	fp, sp, #4
40001364:	e3070ee0 	movw	r0, #32480	; 0x7ee0
40001368:	e3440001 	movt	r0, #16385	; 0x4001
4000136c:	eb002bbb 	bl	4000c260 <printf>
40001370:	eb00000e 	bl	400013b0 <_ZN6vensos4core9interrupt16print_int_ctrlerEv>
40001374:	eafffffe 	b	40001374 <_unused_handler_vect+0x18>

40001378 <_interrupt_vect>:
40001378:	e92d4800 	push	{fp, lr}
4000137c:	e28db004 	add	fp, sp, #4
40001380:	e3070efc 	movw	r0, #32508	; 0x7efc
40001384:	e3440001 	movt	r0, #16385	; 0x4001
40001388:	eb002bb4 	bl	4000c260 <printf>
4000138c:	eb000007 	bl	400013b0 <_ZN6vensos4core9interrupt16print_int_ctrlerEv>
40001390:	eafffffe 	b	40001390 <_interrupt_vect+0x18>

40001394 <_fast_interrupt_vect>:
40001394:	e92d4800 	push	{fp, lr}
40001398:	e28db004 	add	fp, sp, #4
4000139c:	e3070f10 	movw	r0, #32528	; 0x7f10
400013a0:	e3440001 	movt	r0, #16385	; 0x4001
400013a4:	eb002bad 	bl	4000c260 <printf>
400013a8:	eb000000 	bl	400013b0 <_ZN6vensos4core9interrupt16print_int_ctrlerEv>
400013ac:	eafffffe 	b	400013ac <_fast_interrupt_vect+0x18>

400013b0 <_ZN6vensos4core9interrupt16print_int_ctrlerEv>:
400013b0:	e92d4800 	push	{fp, lr}
400013b4:	e28db004 	add	fp, sp, #4
400013b8:	e24dd008 	sub	sp, sp, #8
400013bc:	e3001174 	movw	r1, #372	; 0x174
400013c0:	e3441000 	movt	r1, #16384	; 0x4000
400013c4:	e30002c8 	movw	r0, #712	; 0x2c8
400013c8:	e3440000 	movt	r0, #16384	; 0x4000
400013cc:	e30022c8 	movw	r2, #712	; 0x2c8
400013d0:	e3442000 	movt	r2, #16384	; 0x4000
400013d4:	e3003174 	movw	r3, #372	; 0x174
400013d8:	e3443000 	movt	r3, #16384	; 0x4000
400013dc:	e0423003 	sub	r3, r2, r3
400013e0:	e1a02000 	mov	r2, r0
400013e4:	e3070f2c 	movw	r0, #32556	; 0x7f2c
400013e8:	e3440001 	movt	r0, #16385	; 0x4001
400013ec:	eb002b9b 	bl	4000c260 <printf>
400013f0:	e3a03000 	mov	r3, #0
400013f4:	e50b3008 	str	r3, [fp, #-8]
400013f8:	e51b3008 	ldr	r3, [fp, #-8]
400013fc:	e3530094 	cmp	r3, #148	; 0x94
40001400:	ca00000c 	bgt	40001438 <_ZN6vensos4core9interrupt16print_int_ctrlerEv+0x88>
40001404:	e51b3008 	ldr	r3, [fp, #-8]
40001408:	e2833507 	add	r3, r3, #29360128	; 0x1c00000
4000140c:	e2833b81 	add	r3, r3, #132096	; 0x20400
40001410:	e5933000 	ldr	r3, [r3]
40001414:	e1a02003 	mov	r2, r3
40001418:	e51b1008 	ldr	r1, [fp, #-8]
4000141c:	e3070f5c 	movw	r0, #32604	; 0x7f5c
40001420:	e3440001 	movt	r0, #16385	; 0x4001
40001424:	eb002b8d 	bl	4000c260 <printf>
40001428:	e51b3008 	ldr	r3, [fp, #-8]
4000142c:	e2833004 	add	r3, r3, #4
40001430:	e50b3008 	str	r3, [fp, #-8]
40001434:	eaffffef 	b	400013f8 <_ZN6vensos4core9interrupt16print_int_ctrlerEv+0x48>
40001438:	e320f000 	nop	{0}
4000143c:	e24bd004 	sub	sp, fp, #4
40001440:	e8bd8800 	pop	{fp, pc}

40001444 <_ZN6vensos4core9interrupt15init_interruptsEv>:
40001444:	e92d4800 	push	{fp, lr}
40001448:	e28db004 	add	fp, sp, #4
4000144c:	e3001174 	movw	r1, #372	; 0x174
40001450:	e3441000 	movt	r1, #16384	; 0x4000
40001454:	e30002c8 	movw	r0, #712	; 0x2c8
40001458:	e3440000 	movt	r0, #16384	; 0x4000
4000145c:	e30022c8 	movw	r2, #712	; 0x2c8
40001460:	e3442000 	movt	r2, #16384	; 0x4000
40001464:	e3003174 	movw	r3, #372	; 0x174
40001468:	e3443000 	movt	r3, #16384	; 0x4000
4000146c:	e0423003 	sub	r3, r2, r3
40001470:	e1a02000 	mov	r2, r0
40001474:	e3070f2c 	movw	r0, #32556	; 0x7f2c
40001478:	e3440001 	movt	r0, #16385	; 0x4001
4000147c:	eb002b77 	bl	4000c260 <printf>
40001480:	e3a03b01 	mov	r3, #1024	; 0x400
40001484:	e34031c2 	movt	r3, #450	; 0x1c2
40001488:	e3002174 	movw	r2, #372	; 0x174
4000148c:	e3442000 	movt	r2, #16384	; 0x4000
40001490:	e5832004 	str	r2, [r3, #4]
40001494:	e3a03b01 	mov	r3, #1024	; 0x400
40001498:	e34031c2 	movt	r3, #450	; 0x1c2
4000149c:	e5932050 	ldr	r2, [r3, #80]	; 0x50
400014a0:	e3822401 	orr	r2, r2, #16777216	; 0x1000000
400014a4:	e5832050 	str	r2, [r3, #80]	; 0x50
400014a8:	e3a03b01 	mov	r3, #1024	; 0x400
400014ac:	e34031c2 	movt	r3, #450	; 0x1c2
400014b0:	e5932084 	ldr	r2, [r3, #132]	; 0x84
400014b4:	e3822803 	orr	r2, r2, #196608	; 0x30000
400014b8:	e5832084 	str	r2, [r3, #132]	; 0x84
400014bc:	e3a03b01 	mov	r3, #1024	; 0x400
400014c0:	e34031c2 	movt	r3, #450	; 0x1c2
400014c4:	e5932040 	ldr	r2, [r3, #64]	; 0x40
400014c8:	e3822401 	orr	r2, r2, #16777216	; 0x1000000
400014cc:	e5832040 	str	r2, [r3, #64]	; 0x40
400014d0:	e3a03b01 	mov	r3, #1024	; 0x400
400014d4:	e34031c2 	movt	r3, #450	; 0x1c2
400014d8:	e5932070 	ldr	r2, [r3, #112]	; 0x70
400014dc:	e3822401 	orr	r2, r2, #16777216	; 0x1000000
400014e0:	e5832070 	str	r2, [r3, #112]	; 0x70
400014e4:	ebfffb05 	bl	40000100 <_enable_interrupts>
400014e8:	e320f000 	nop	{0}
400014ec:	e8bd8800 	pop	{fp, pc}

400014f0 <__restore_core_regs>:
400014f0:	e2801034 	add	r1, r0, #52	; 0x34
400014f4:	e8910038 	ldm	r1, {r3, r4, r5}
400014f8:	e1a02005 	mov	r2, r5
400014fc:	e92d001c 	push	{r2, r3, r4}
40001500:	e8900fff 	ldm	r0, {r0, r1, r2, r3, r4, r5, r6, r7, r8, r9, sl, fp}
40001504:	e89d7000 	ldm	sp, {ip, sp, lr}
40001508:	e12fff1c 	bx	ip

4000150c <__gnu_Unwind_Restore_VFP>:
4000150c:	ec900b21 	fldmiax	r0, {d0-d15}	;@ Deprecated
40001510:	e12fff1e 	bx	lr

40001514 <__gnu_Unwind_Save_VFP>:
40001514:	ec800b21 	fstmiax	r0, {d0-d15}	;@ Deprecated
40001518:	e12fff1e 	bx	lr

4000151c <__gnu_Unwind_Restore_VFP_D>:
4000151c:	ec900b20 	vldmia	r0, {d0-d15}
40001520:	e12fff1e 	bx	lr

40001524 <__gnu_Unwind_Save_VFP_D>:
40001524:	ec800b20 	vstmia	r0, {d0-d15}
40001528:	e12fff1e 	bx	lr

4000152c <__gnu_Unwind_Restore_VFP_D_16_to_31>:
4000152c:	ecd00b20 	vldmia	r0, {d16-d31}
40001530:	e12fff1e 	bx	lr

40001534 <__gnu_Unwind_Save_VFP_D_16_to_31>:
40001534:	ecc00b20 	vstmia	r0, {d16-d31}
40001538:	e12fff1e 	bx	lr

4000153c <__gnu_Unwind_Restore_WMMXD>:
4000153c:	ecf00102 	ldfe	f0, [r0], #8
40001540:	ecf01102 	ldfe	f1, [r0], #8
40001544:	ecf02102 	ldfe	f2, [r0], #8
40001548:	ecf03102 	ldfe	f3, [r0], #8
4000154c:	ecf04102 	ldfe	f4, [r0], #8
40001550:	ecf05102 	ldfe	f5, [r0], #8
40001554:	ecf06102 	ldfe	f6, [r0], #8
40001558:	ecf07102 	ldfe	f7, [r0], #8
4000155c:	ecf08102 	ldfp	f0, [r0], #8
40001560:	ecf09102 	ldfp	f1, [r0], #8
40001564:	ecf0a102 	ldfp	f2, [r0], #8
40001568:	ecf0b102 	ldfp	f3, [r0], #8
4000156c:	ecf0c102 	ldfp	f4, [r0], #8
40001570:	ecf0d102 	ldfp	f5, [r0], #8
40001574:	ecf0e102 	ldfp	f6, [r0], #8
40001578:	ecf0f102 	ldfp	f7, [r0], #8
4000157c:	e12fff1e 	bx	lr

40001580 <__gnu_Unwind_Save_WMMXD>:
40001580:	ece00102 	stfe	f0, [r0], #8
40001584:	ece01102 	stfe	f1, [r0], #8
40001588:	ece02102 	stfe	f2, [r0], #8
4000158c:	ece03102 	stfe	f3, [r0], #8
40001590:	ece04102 	stfe	f4, [r0], #8
40001594:	ece05102 	stfe	f5, [r0], #8
40001598:	ece06102 	stfe	f6, [r0], #8
4000159c:	ece07102 	stfe	f7, [r0], #8
400015a0:	ece08102 	stfp	f0, [r0], #8
400015a4:	ece09102 	stfp	f1, [r0], #8
400015a8:	ece0a102 	stfp	f2, [r0], #8
400015ac:	ece0b102 	stfp	f3, [r0], #8
400015b0:	ece0c102 	stfp	f4, [r0], #8
400015b4:	ece0d102 	stfp	f5, [r0], #8
400015b8:	ece0e102 	stfp	f6, [r0], #8
400015bc:	ece0f102 	stfp	f7, [r0], #8
400015c0:	e12fff1e 	bx	lr

400015c4 <__gnu_Unwind_Restore_WMMXC>:
400015c4:	fcb08101 	ldc2	1, cr8, [r0], #4
400015c8:	fcb09101 	ldc2	1, cr9, [r0], #4
400015cc:	fcb0a101 	ldc2	1, cr10, [r0], #4
400015d0:	fcb0b101 	ldc2	1, cr11, [r0], #4
400015d4:	e12fff1e 	bx	lr

400015d8 <__gnu_Unwind_Save_WMMXC>:
400015d8:	fca08101 	stc2	1, cr8, [r0], #4
400015dc:	fca09101 	stc2	1, cr9, [r0], #4
400015e0:	fca0a101 	stc2	1, cr10, [r0], #4
400015e4:	fca0b101 	stc2	1, cr11, [r0], #4
400015e8:	e12fff1e 	bx	lr

400015ec <_Unwind_RaiseException>:
400015ec:	e92de000 	push	{sp, lr, pc}
400015f0:	e92d1fff 	push	{r0, r1, r2, r3, r4, r5, r6, r7, r8, r9, sl, fp, ip}
400015f4:	e3a03000 	mov	r3, #0
400015f8:	e92d000c 	push	{r2, r3}
400015fc:	e28d1004 	add	r1, sp, #4
40001600:	eb002238 	bl	40009ee8 <__gnu_Unwind_RaiseException>
40001604:	e59de040 	ldr	lr, [sp, #64]	; 0x40
40001608:	e28dd048 	add	sp, sp, #72	; 0x48
4000160c:	e12fff1e 	bx	lr

40001610 <_Unwind_Resume>:
40001610:	e92de000 	push	{sp, lr, pc}
40001614:	e92d1fff 	push	{r0, r1, r2, r3, r4, r5, r6, r7, r8, r9, sl, fp, ip}
40001618:	e3a03000 	mov	r3, #0
4000161c:	e92d000c 	push	{r2, r3}
40001620:	e28d1004 	add	r1, sp, #4
40001624:	eb002260 	bl	40009fac <__gnu_Unwind_Resume>
40001628:	e59de040 	ldr	lr, [sp, #64]	; 0x40
4000162c:	e28dd048 	add	sp, sp, #72	; 0x48
40001630:	e12fff1e 	bx	lr

40001634 <_Unwind_Resume_or_Rethrow>:
40001634:	e92de000 	push	{sp, lr, pc}
40001638:	e92d1fff 	push	{r0, r1, r2, r3, r4, r5, r6, r7, r8, r9, sl, fp, ip}
4000163c:	e3a03000 	mov	r3, #0
40001640:	e92d000c 	push	{r2, r3}
40001644:	e28d1004 	add	r1, sp, #4
40001648:	eb002274 	bl	4000a020 <__gnu_Unwind_Resume_or_Rethrow>
4000164c:	e59de040 	ldr	lr, [sp, #64]	; 0x40
40001650:	e28dd048 	add	sp, sp, #72	; 0x48
40001654:	e12fff1e 	bx	lr

40001658 <_Unwind_ForcedUnwind>:
40001658:	e92de000 	push	{sp, lr, pc}
4000165c:	e92d1fff 	push	{r0, r1, r2, r3, r4, r5, r6, r7, r8, r9, sl, fp, ip}
40001660:	e3a03000 	mov	r3, #0
40001664:	e92d000c 	push	{r2, r3}
40001668:	e28d3004 	add	r3, sp, #4
4000166c:	eb002247 	bl	40009f90 <__gnu_Unwind_ForcedUnwind>
40001670:	e59de040 	ldr	lr, [sp, #64]	; 0x40
40001674:	e28dd048 	add	sp, sp, #72	; 0x48
40001678:	e12fff1e 	bx	lr

4000167c <_Unwind_Backtrace>:
4000167c:	e92de000 	push	{sp, lr, pc}
40001680:	e92d1fff 	push	{r0, r1, r2, r3, r4, r5, r6, r7, r8, r9, sl, fp, ip}
40001684:	e3a03000 	mov	r3, #0
40001688:	e92d000c 	push	{r2, r3}
4000168c:	e28d2004 	add	r2, sp, #4
40001690:	eb0022a9 	bl	4000a13c <__gnu_Unwind_Backtrace>
40001694:	e59de040 	ldr	lr, [sp, #64]	; 0x40
40001698:	e28dd048 	add	sp, sp, #72	; 0x48
4000169c:	e12fff1e 	bx	lr

400016a0 <strcmp>:
400016a0:	e020c001 	eor	ip, r0, r1
400016a4:	e31c0003 	tst	ip, #3
400016a8:	1a000021 	bne	40001734 <strcmp+0x94>
400016ac:	e210c003 	ands	ip, r0, #3
400016b0:	e3c00003 	bic	r0, r0, #3
400016b4:	e3c11003 	bic	r1, r1, #3
400016b8:	e4902004 	ldr	r2, [r0], #4
400016bc:	04913004 	ldreq	r3, [r1], #4
400016c0:	0a000006 	beq	400016e0 <strcmp+0x40>
400016c4:	e22cc003 	eor	ip, ip, #3
400016c8:	e3e034ff 	mvn	r3, #-16777216	; 0xff000000
400016cc:	e1a0c18c 	lsl	ip, ip, #3
400016d0:	e1a0cc33 	lsr	ip, r3, ip
400016d4:	e4913004 	ldr	r3, [r1], #4
400016d8:	e182200c 	orr	r2, r2, ip
400016dc:	e183300c 	orr	r3, r3, ip
400016e0:	e52d4004 	push	{r4}		; (str r4, [sp, #-4]!)
400016e4:	e3a04001 	mov	r4, #1
400016e8:	e1844404 	orr	r4, r4, r4, lsl #8
400016ec:	e1844804 	orr	r4, r4, r4, lsl #16
400016f0:	e042c004 	sub	ip, r2, r4
400016f4:	e1520003 	cmp	r2, r3
400016f8:	01ccc002 	biceq	ip, ip, r2
400016fc:	011c0384 	tsteq	ip, r4, lsl #7
40001700:	04902004 	ldreq	r2, [r0], #4
40001704:	04913004 	ldreq	r3, [r1], #4
40001708:	0afffff8 	beq	400016f0 <strcmp+0x50>
4000170c:	e1a00c02 	lsl	r0, r2, #24
40001710:	e1a02422 	lsr	r2, r2, #8
40001714:	e3500001 	cmp	r0, #1
40001718:	21500c03 	cmpcs	r0, r3, lsl #24
4000171c:	01a03423 	lsreq	r3, r3, #8
40001720:	0afffff9 	beq	4000170c <strcmp+0x6c>
40001724:	e20330ff 	and	r3, r3, #255	; 0xff
40001728:	e0630c20 	rsb	r0, r3, r0, lsr #24
4000172c:	e49d4004 	pop	{r4}		; (ldr r4, [sp], #4)
40001730:	e12fff1e 	bx	lr
40001734:	e3100003 	tst	r0, #3
40001738:	0a000006 	beq	40001758 <strcmp+0xb8>
4000173c:	e4d02001 	ldrb	r2, [r0], #1
40001740:	e4d13001 	ldrb	r3, [r1], #1
40001744:	e3520001 	cmp	r2, #1
40001748:	21520003 	cmpcs	r2, r3
4000174c:	0afffff8 	beq	40001734 <strcmp+0x94>
40001750:	e0420003 	sub	r0, r2, r3
40001754:	e12fff1e 	bx	lr
40001758:	e92d0030 	push	{r4, r5}
4000175c:	e3a04001 	mov	r4, #1
40001760:	e1844404 	orr	r4, r4, r4, lsl #8
40001764:	e1844804 	orr	r4, r4, r4, lsl #16
40001768:	e4902004 	ldr	r2, [r0], #4
4000176c:	e2015003 	and	r5, r1, #3
40001770:	e3c11003 	bic	r1, r1, #3
40001774:	e4913004 	ldr	r3, [r1], #4
40001778:	e3550002 	cmp	r5, #2
4000177c:	0a000017 	beq	400017e0 <strcmp+0x140>
40001780:	8a00002d 	bhi	4000183c <strcmp+0x19c>
40001784:	e3c254ff 	bic	r5, r2, #-16777216	; 0xff000000
40001788:	e1550423 	cmp	r5, r3, lsr #8
4000178c:	e042c004 	sub	ip, r2, r4
40001790:	e1ccc002 	bic	ip, ip, r2
40001794:	1a000007 	bne	400017b8 <strcmp+0x118>
40001798:	e01cc384 	ands	ip, ip, r4, lsl #7
4000179c:	04913004 	ldreq	r3, [r1], #4
400017a0:	1a000006 	bne	400017c0 <strcmp+0x120>
400017a4:	e0255002 	eor	r5, r5, r2
400017a8:	e1550c03 	cmp	r5, r3, lsl #24
400017ac:	1a000008 	bne	400017d4 <strcmp+0x134>
400017b0:	e4902004 	ldr	r2, [r0], #4
400017b4:	eafffff2 	b	40001784 <strcmp+0xe4>
400017b8:	e1a03423 	lsr	r3, r3, #8
400017bc:	ea000036 	b	4000189c <strcmp+0x1fc>
400017c0:	e3dcc4ff 	bics	ip, ip, #-16777216	; 0xff000000
400017c4:	1a000031 	bne	40001890 <strcmp+0x1f0>
400017c8:	e5d13000 	ldrb	r3, [r1]
400017cc:	e1a05c22 	lsr	r5, r2, #24
400017d0:	ea000031 	b	4000189c <strcmp+0x1fc>
400017d4:	e1a05c22 	lsr	r5, r2, #24
400017d8:	e20330ff 	and	r3, r3, #255	; 0xff
400017dc:	ea00002e 	b	4000189c <strcmp+0x1fc>
400017e0:	e1a05802 	lsl	r5, r2, #16
400017e4:	e042c004 	sub	ip, r2, r4
400017e8:	e1a05825 	lsr	r5, r5, #16
400017ec:	e1ccc002 	bic	ip, ip, r2
400017f0:	e1550823 	cmp	r5, r3, lsr #16
400017f4:	1a00000e 	bne	40001834 <strcmp+0x194>
400017f8:	e01cc384 	ands	ip, ip, r4, lsl #7
400017fc:	04913004 	ldreq	r3, [r1], #4
40001800:	1a000004 	bne	40001818 <strcmp+0x178>
40001804:	e0255002 	eor	r5, r5, r2
40001808:	e1550803 	cmp	r5, r3, lsl #16
4000180c:	1a000006 	bne	4000182c <strcmp+0x18c>
40001810:	e4902004 	ldr	r2, [r0], #4
40001814:	eafffff1 	b	400017e0 <strcmp+0x140>
40001818:	e1b0c80c 	lsls	ip, ip, #16
4000181c:	1a00001b 	bne	40001890 <strcmp+0x1f0>
40001820:	e1d130b0 	ldrh	r3, [r1]
40001824:	e1a05822 	lsr	r5, r2, #16
40001828:	ea00001b 	b	4000189c <strcmp+0x1fc>
4000182c:	e1a03803 	lsl	r3, r3, #16
40001830:	e1a05822 	lsr	r5, r2, #16
40001834:	e1a03823 	lsr	r3, r3, #16
40001838:	ea000017 	b	4000189c <strcmp+0x1fc>
4000183c:	e20250ff 	and	r5, r2, #255	; 0xff
40001840:	e1550c23 	cmp	r5, r3, lsr #24
40001844:	e042c004 	sub	ip, r2, r4
40001848:	e1ccc002 	bic	ip, ip, r2
4000184c:	1a000007 	bne	40001870 <strcmp+0x1d0>
40001850:	e01cc384 	ands	ip, ip, r4, lsl #7
40001854:	04913004 	ldreq	r3, [r1], #4
40001858:	1a000006 	bne	40001878 <strcmp+0x1d8>
4000185c:	e0255002 	eor	r5, r5, r2
40001860:	e1550403 	cmp	r5, r3, lsl #8
40001864:	1a000006 	bne	40001884 <strcmp+0x1e4>
40001868:	e4902004 	ldr	r2, [r0], #4
4000186c:	eafffff2 	b	4000183c <strcmp+0x19c>
40001870:	e1a03c23 	lsr	r3, r3, #24
40001874:	ea000008 	b	4000189c <strcmp+0x1fc>
40001878:	e31200ff 	tst	r2, #255	; 0xff
4000187c:	0a000003 	beq	40001890 <strcmp+0x1f0>
40001880:	e4913004 	ldr	r3, [r1], #4
40001884:	e1a05422 	lsr	r5, r2, #8
40001888:	e3c334ff 	bic	r3, r3, #-16777216	; 0xff000000
4000188c:	ea000002 	b	4000189c <strcmp+0x1fc>
40001890:	e3a00000 	mov	r0, #0
40001894:	e8bd0030 	pop	{r4, r5}
40001898:	e12fff1e 	bx	lr
4000189c:	e20520ff 	and	r2, r5, #255	; 0xff
400018a0:	e20300ff 	and	r0, r3, #255	; 0xff
400018a4:	e3500001 	cmp	r0, #1
400018a8:	21500002 	cmpcs	r0, r2
400018ac:	01a05425 	lsreq	r5, r5, #8
400018b0:	01a03423 	lsreq	r3, r3, #8
400018b4:	0afffff8 	beq	4000189c <strcmp+0x1fc>
400018b8:	e0420000 	sub	r0, r2, r0
400018bc:	e8bd0030 	pop	{r4, r5}
400018c0:	e12fff1e 	bx	lr

400018c4 <__udivsi3>:
400018c4:	e2512001 	subs	r2, r1, #1
400018c8:	012fff1e 	bxeq	lr
400018cc:	3a000036 	bcc	400019ac <__udivsi3+0xe8>
400018d0:	e1500001 	cmp	r0, r1
400018d4:	9a000022 	bls	40001964 <__udivsi3+0xa0>
400018d8:	e1110002 	tst	r1, r2
400018dc:	0a000023 	beq	40001970 <__udivsi3+0xac>
400018e0:	e311020e 	tst	r1, #-536870912	; 0xe0000000
400018e4:	01a01181 	lsleq	r1, r1, #3
400018e8:	03a03008 	moveq	r3, #8
400018ec:	13a03001 	movne	r3, #1
400018f0:	e3510201 	cmp	r1, #268435456	; 0x10000000
400018f4:	31510000 	cmpcc	r1, r0
400018f8:	31a01201 	lslcc	r1, r1, #4
400018fc:	31a03203 	lslcc	r3, r3, #4
40001900:	3afffffa 	bcc	400018f0 <__udivsi3+0x2c>
40001904:	e3510102 	cmp	r1, #-2147483648	; 0x80000000
40001908:	31510000 	cmpcc	r1, r0
4000190c:	31a01081 	lslcc	r1, r1, #1
40001910:	31a03083 	lslcc	r3, r3, #1
40001914:	3afffffa 	bcc	40001904 <__udivsi3+0x40>
40001918:	e3a02000 	mov	r2, #0
4000191c:	e1500001 	cmp	r0, r1
40001920:	20400001 	subcs	r0, r0, r1
40001924:	21822003 	orrcs	r2, r2, r3
40001928:	e15000a1 	cmp	r0, r1, lsr #1
4000192c:	204000a1 	subcs	r0, r0, r1, lsr #1
40001930:	218220a3 	orrcs	r2, r2, r3, lsr #1
40001934:	e1500121 	cmp	r0, r1, lsr #2
40001938:	20400121 	subcs	r0, r0, r1, lsr #2
4000193c:	21822123 	orrcs	r2, r2, r3, lsr #2
40001940:	e15001a1 	cmp	r0, r1, lsr #3
40001944:	204001a1 	subcs	r0, r0, r1, lsr #3
40001948:	218221a3 	orrcs	r2, r2, r3, lsr #3
4000194c:	e3500000 	cmp	r0, #0
40001950:	11b03223 	lsrsne	r3, r3, #4
40001954:	11a01221 	lsrne	r1, r1, #4
40001958:	1affffef 	bne	4000191c <__udivsi3+0x58>
4000195c:	e1a00002 	mov	r0, r2
40001960:	e12fff1e 	bx	lr
40001964:	03a00001 	moveq	r0, #1
40001968:	13a00000 	movne	r0, #0
4000196c:	e12fff1e 	bx	lr
40001970:	e3510801 	cmp	r1, #65536	; 0x10000
40001974:	21a01821 	lsrcs	r1, r1, #16
40001978:	23a02010 	movcs	r2, #16
4000197c:	33a02000 	movcc	r2, #0
40001980:	e3510c01 	cmp	r1, #256	; 0x100
40001984:	21a01421 	lsrcs	r1, r1, #8
40001988:	22822008 	addcs	r2, r2, #8
4000198c:	e3510010 	cmp	r1, #16
40001990:	21a01221 	lsrcs	r1, r1, #4
40001994:	22822004 	addcs	r2, r2, #4
40001998:	e3510004 	cmp	r1, #4
4000199c:	82822003 	addhi	r2, r2, #3
400019a0:	908220a1 	addls	r2, r2, r1, lsr #1
400019a4:	e1a00230 	lsr	r0, r0, r2
400019a8:	e12fff1e 	bx	lr
400019ac:	e3500000 	cmp	r0, #0
400019b0:	13e00000 	mvnne	r0, #0
400019b4:	ea000059 	b	40001b20 <__aeabi_idiv0>

400019b8 <__aeabi_uidivmod>:
400019b8:	e3510000 	cmp	r1, #0
400019bc:	0afffffa 	beq	400019ac <__udivsi3+0xe8>
400019c0:	e92d4003 	push	{r0, r1, lr}
400019c4:	ebffffbe 	bl	400018c4 <__udivsi3>
400019c8:	e8bd4006 	pop	{r1, r2, lr}
400019cc:	e0030092 	mul	r3, r2, r0
400019d0:	e0411003 	sub	r1, r1, r3
400019d4:	e12fff1e 	bx	lr

400019d8 <__divsi3>:
400019d8:	e3510000 	cmp	r1, #0
400019dc:	0a000043 	beq	40001af0 <.divsi3_skip_div0_test+0x110>

400019e0 <.divsi3_skip_div0_test>:
400019e0:	e020c001 	eor	ip, r0, r1
400019e4:	42611000 	rsbmi	r1, r1, #0
400019e8:	e2512001 	subs	r2, r1, #1
400019ec:	0a000027 	beq	40001a90 <.divsi3_skip_div0_test+0xb0>
400019f0:	e1b03000 	movs	r3, r0
400019f4:	42603000 	rsbmi	r3, r0, #0
400019f8:	e1530001 	cmp	r3, r1
400019fc:	9a000026 	bls	40001a9c <.divsi3_skip_div0_test+0xbc>
40001a00:	e1110002 	tst	r1, r2
40001a04:	0a000028 	beq	40001aac <.divsi3_skip_div0_test+0xcc>
40001a08:	e311020e 	tst	r1, #-536870912	; 0xe0000000
40001a0c:	01a01181 	lsleq	r1, r1, #3
40001a10:	03a02008 	moveq	r2, #8
40001a14:	13a02001 	movne	r2, #1
40001a18:	e3510201 	cmp	r1, #268435456	; 0x10000000
40001a1c:	31510003 	cmpcc	r1, r3
40001a20:	31a01201 	lslcc	r1, r1, #4
40001a24:	31a02202 	lslcc	r2, r2, #4
40001a28:	3afffffa 	bcc	40001a18 <.divsi3_skip_div0_test+0x38>
40001a2c:	e3510102 	cmp	r1, #-2147483648	; 0x80000000
40001a30:	31510003 	cmpcc	r1, r3
40001a34:	31a01081 	lslcc	r1, r1, #1
40001a38:	31a02082 	lslcc	r2, r2, #1
40001a3c:	3afffffa 	bcc	40001a2c <.divsi3_skip_div0_test+0x4c>
40001a40:	e3a00000 	mov	r0, #0
40001a44:	e1530001 	cmp	r3, r1
40001a48:	20433001 	subcs	r3, r3, r1
40001a4c:	21800002 	orrcs	r0, r0, r2
40001a50:	e15300a1 	cmp	r3, r1, lsr #1
40001a54:	204330a1 	subcs	r3, r3, r1, lsr #1
40001a58:	218000a2 	orrcs	r0, r0, r2, lsr #1
40001a5c:	e1530121 	cmp	r3, r1, lsr #2
40001a60:	20433121 	subcs	r3, r3, r1, lsr #2
40001a64:	21800122 	orrcs	r0, r0, r2, lsr #2
40001a68:	e15301a1 	cmp	r3, r1, lsr #3
40001a6c:	204331a1 	subcs	r3, r3, r1, lsr #3
40001a70:	218001a2 	orrcs	r0, r0, r2, lsr #3
40001a74:	e3530000 	cmp	r3, #0
40001a78:	11b02222 	lsrsne	r2, r2, #4
40001a7c:	11a01221 	lsrne	r1, r1, #4
40001a80:	1affffef 	bne	40001a44 <.divsi3_skip_div0_test+0x64>
40001a84:	e35c0000 	cmp	ip, #0
40001a88:	42600000 	rsbmi	r0, r0, #0
40001a8c:	e12fff1e 	bx	lr
40001a90:	e13c0000 	teq	ip, r0
40001a94:	42600000 	rsbmi	r0, r0, #0
40001a98:	e12fff1e 	bx	lr
40001a9c:	33a00000 	movcc	r0, #0
40001aa0:	01a00fcc 	asreq	r0, ip, #31
40001aa4:	03800001 	orreq	r0, r0, #1
40001aa8:	e12fff1e 	bx	lr
40001aac:	e3510801 	cmp	r1, #65536	; 0x10000
40001ab0:	21a01821 	lsrcs	r1, r1, #16
40001ab4:	23a02010 	movcs	r2, #16
40001ab8:	33a02000 	movcc	r2, #0
40001abc:	e3510c01 	cmp	r1, #256	; 0x100
40001ac0:	21a01421 	lsrcs	r1, r1, #8
40001ac4:	22822008 	addcs	r2, r2, #8
40001ac8:	e3510010 	cmp	r1, #16
40001acc:	21a01221 	lsrcs	r1, r1, #4
40001ad0:	22822004 	addcs	r2, r2, #4
40001ad4:	e3510004 	cmp	r1, #4
40001ad8:	82822003 	addhi	r2, r2, #3
40001adc:	908220a1 	addls	r2, r2, r1, lsr #1
40001ae0:	e35c0000 	cmp	ip, #0
40001ae4:	e1a00233 	lsr	r0, r3, r2
40001ae8:	42600000 	rsbmi	r0, r0, #0
40001aec:	e12fff1e 	bx	lr
40001af0:	e3500000 	cmp	r0, #0
40001af4:	c3e00102 	mvngt	r0, #-2147483648	; 0x80000000
40001af8:	b3a00102 	movlt	r0, #-2147483648	; 0x80000000
40001afc:	ea000007 	b	40001b20 <__aeabi_idiv0>

40001b00 <__aeabi_idivmod>:
40001b00:	e3510000 	cmp	r1, #0
40001b04:	0afffff9 	beq	40001af0 <.divsi3_skip_div0_test+0x110>
40001b08:	e92d4003 	push	{r0, r1, lr}
40001b0c:	ebffffb3 	bl	400019e0 <.divsi3_skip_div0_test>
40001b10:	e8bd4006 	pop	{r1, r2, lr}
40001b14:	e0030092 	mul	r3, r2, r0
40001b18:	e0411003 	sub	r1, r1, r3
40001b1c:	e12fff1e 	bx	lr

40001b20 <__aeabi_idiv0>:
40001b20:	e12fff1e 	bx	lr

40001b24 <__aeabi_drsub>:
40001b24:	e2211102 	eor	r1, r1, #-2147483648	; 0x80000000
40001b28:	ea000000 	b	40001b30 <__adddf3>

40001b2c <__aeabi_dsub>:
40001b2c:	e2233102 	eor	r3, r3, #-2147483648	; 0x80000000

40001b30 <__adddf3>:
40001b30:	e92d4030 	push	{r4, r5, lr}
40001b34:	e1a04081 	lsl	r4, r1, #1
40001b38:	e1a05083 	lsl	r5, r3, #1
40001b3c:	e1340005 	teq	r4, r5
40001b40:	01300002 	teqeq	r0, r2
40001b44:	1194c000 	orrsne	ip, r4, r0
40001b48:	1195c002 	orrsne	ip, r5, r2
40001b4c:	11f0cac4 	mvnsne	ip, r4, asr #21
40001b50:	11f0cac5 	mvnsne	ip, r5, asr #21
40001b54:	0a00008c 	beq	40001d8c <__adddf3+0x25c>
40001b58:	e1a04aa4 	lsr	r4, r4, #21
40001b5c:	e0745aa5 	rsbs	r5, r4, r5, lsr #21
40001b60:	b2655000 	rsblt	r5, r5, #0
40001b64:	da000006 	ble	40001b84 <__adddf3+0x54>
40001b68:	e0844005 	add	r4, r4, r5
40001b6c:	e0202002 	eor	r2, r0, r2
40001b70:	e0213003 	eor	r3, r1, r3
40001b74:	e0220000 	eor	r0, r2, r0
40001b78:	e0231001 	eor	r1, r3, r1
40001b7c:	e0202002 	eor	r2, r0, r2
40001b80:	e0213003 	eor	r3, r1, r3
40001b84:	e3550036 	cmp	r5, #54	; 0x36
40001b88:	88bd4030 	pophi	{r4, r5, lr}
40001b8c:	812fff1e 	bxhi	lr
40001b90:	e3110102 	tst	r1, #-2147483648	; 0x80000000
40001b94:	e1a01601 	lsl	r1, r1, #12
40001b98:	e3a0c601 	mov	ip, #1048576	; 0x100000
40001b9c:	e18c1621 	orr	r1, ip, r1, lsr #12
40001ba0:	0a000001 	beq	40001bac <__adddf3+0x7c>
40001ba4:	e2700000 	rsbs	r0, r0, #0
40001ba8:	e2e11000 	rsc	r1, r1, #0
40001bac:	e3130102 	tst	r3, #-2147483648	; 0x80000000
40001bb0:	e1a03603 	lsl	r3, r3, #12
40001bb4:	e18c3623 	orr	r3, ip, r3, lsr #12
40001bb8:	0a000001 	beq	40001bc4 <__adddf3+0x94>
40001bbc:	e2722000 	rsbs	r2, r2, #0
40001bc0:	e2e33000 	rsc	r3, r3, #0
40001bc4:	e1340005 	teq	r4, r5
40001bc8:	0a000069 	beq	40001d74 <__adddf3+0x244>
40001bcc:	e2444001 	sub	r4, r4, #1
40001bd0:	e275e020 	rsbs	lr, r5, #32
40001bd4:	ba000005 	blt	40001bf0 <__adddf3+0xc0>
40001bd8:	e1a0ce12 	lsl	ip, r2, lr
40001bdc:	e0900532 	adds	r0, r0, r2, lsr r5
40001be0:	e2a11000 	adc	r1, r1, #0
40001be4:	e0900e13 	adds	r0, r0, r3, lsl lr
40001be8:	e0b11553 	adcs	r1, r1, r3, asr r5
40001bec:	ea000006 	b	40001c0c <__adddf3+0xdc>
40001bf0:	e2455020 	sub	r5, r5, #32
40001bf4:	e28ee020 	add	lr, lr, #32
40001bf8:	e3520001 	cmp	r2, #1
40001bfc:	e1a0ce13 	lsl	ip, r3, lr
40001c00:	238cc002 	orrcs	ip, ip, #2
40001c04:	e0900553 	adds	r0, r0, r3, asr r5
40001c08:	e0b11fc3 	adcs	r1, r1, r3, asr #31
40001c0c:	e2015102 	and	r5, r1, #-2147483648	; 0x80000000
40001c10:	5a000002 	bpl	40001c20 <__adddf3+0xf0>
40001c14:	e27cc000 	rsbs	ip, ip, #0
40001c18:	e2f00000 	rscs	r0, r0, #0
40001c1c:	e2e11000 	rsc	r1, r1, #0
40001c20:	e3510601 	cmp	r1, #1048576	; 0x100000
40001c24:	3a00000f 	bcc	40001c68 <__adddf3+0x138>
40001c28:	e3510602 	cmp	r1, #2097152	; 0x200000
40001c2c:	3a000006 	bcc	40001c4c <__adddf3+0x11c>
40001c30:	e1b010a1 	lsrs	r1, r1, #1
40001c34:	e1b00060 	rrxs	r0, r0
40001c38:	e1a0c06c 	rrx	ip, ip
40001c3c:	e2844001 	add	r4, r4, #1
40001c40:	e1a02a84 	lsl	r2, r4, #21
40001c44:	e3720501 	cmn	r2, #4194304	; 0x400000
40001c48:	2a00006b 	bcs	40001dfc <__adddf3+0x2cc>
40001c4c:	e35c0102 	cmp	ip, #-2147483648	; 0x80000000
40001c50:	01b0c0a0 	lsrseq	ip, r0, #1
40001c54:	e2b00000 	adcs	r0, r0, #0
40001c58:	e0a11a04 	adc	r1, r1, r4, lsl #20
40001c5c:	e1811005 	orr	r1, r1, r5
40001c60:	e8bd4030 	pop	{r4, r5, lr}
40001c64:	e12fff1e 	bx	lr
40001c68:	e1b0c08c 	lsls	ip, ip, #1
40001c6c:	e0b00000 	adcs	r0, r0, r0
40001c70:	e0a11001 	adc	r1, r1, r1
40001c74:	e3110601 	tst	r1, #1048576	; 0x100000
40001c78:	e2444001 	sub	r4, r4, #1
40001c7c:	1afffff2 	bne	40001c4c <__adddf3+0x11c>
40001c80:	e3310000 	teq	r1, #0
40001c84:	13a03014 	movne	r3, #20
40001c88:	03a03034 	moveq	r3, #52	; 0x34
40001c8c:	01a01000 	moveq	r1, r0
40001c90:	03a00000 	moveq	r0, #0
40001c94:	e1a02001 	mov	r2, r1
40001c98:	e3520801 	cmp	r2, #65536	; 0x10000
40001c9c:	21a02822 	lsrcs	r2, r2, #16
40001ca0:	22433010 	subcs	r3, r3, #16
40001ca4:	e3520c01 	cmp	r2, #256	; 0x100
40001ca8:	21a02422 	lsrcs	r2, r2, #8
40001cac:	22433008 	subcs	r3, r3, #8
40001cb0:	e3520010 	cmp	r2, #16
40001cb4:	21a02222 	lsrcs	r2, r2, #4
40001cb8:	22433004 	subcs	r3, r3, #4
40001cbc:	e3520004 	cmp	r2, #4
40001cc0:	22433002 	subcs	r3, r3, #2
40001cc4:	304330a2 	subcc	r3, r3, r2, lsr #1
40001cc8:	e04331a2 	sub	r3, r3, r2, lsr #3
40001ccc:	e2532020 	subs	r2, r3, #32
40001cd0:	aa000007 	bge	40001cf4 <__adddf3+0x1c4>
40001cd4:	e292200c 	adds	r2, r2, #12
40001cd8:	da000004 	ble	40001cf0 <__adddf3+0x1c0>
40001cdc:	e282c014 	add	ip, r2, #20
40001ce0:	e262200c 	rsb	r2, r2, #12
40001ce4:	e1a00c11 	lsl	r0, r1, ip
40001ce8:	e1a01231 	lsr	r1, r1, r2
40001cec:	ea000004 	b	40001d04 <__adddf3+0x1d4>
40001cf0:	e2822014 	add	r2, r2, #20
40001cf4:	d262c020 	rsble	ip, r2, #32
40001cf8:	e1a01211 	lsl	r1, r1, r2
40001cfc:	d1811c30 	orrle	r1, r1, r0, lsr ip
40001d00:	d1a00210 	lslle	r0, r0, r2
40001d04:	e0544003 	subs	r4, r4, r3
40001d08:	a0811a04 	addge	r1, r1, r4, lsl #20
40001d0c:	a1811005 	orrge	r1, r1, r5
40001d10:	a8bd4030 	popge	{r4, r5, lr}
40001d14:	a12fff1e 	bxge	lr
40001d18:	e1e04004 	mvn	r4, r4
40001d1c:	e254401f 	subs	r4, r4, #31
40001d20:	aa00000f 	bge	40001d64 <__adddf3+0x234>
40001d24:	e294400c 	adds	r4, r4, #12
40001d28:	ca000006 	bgt	40001d48 <__adddf3+0x218>
40001d2c:	e2844014 	add	r4, r4, #20
40001d30:	e2642020 	rsb	r2, r4, #32
40001d34:	e1a00430 	lsr	r0, r0, r4
40001d38:	e1800211 	orr	r0, r0, r1, lsl r2
40001d3c:	e1851431 	orr	r1, r5, r1, lsr r4
40001d40:	e8bd4030 	pop	{r4, r5, lr}
40001d44:	e12fff1e 	bx	lr
40001d48:	e264400c 	rsb	r4, r4, #12
40001d4c:	e2642020 	rsb	r2, r4, #32
40001d50:	e1a00230 	lsr	r0, r0, r2
40001d54:	e1800411 	orr	r0, r0, r1, lsl r4
40001d58:	e1a01005 	mov	r1, r5
40001d5c:	e8bd4030 	pop	{r4, r5, lr}
40001d60:	e12fff1e 	bx	lr
40001d64:	e1a00431 	lsr	r0, r1, r4
40001d68:	e1a01005 	mov	r1, r5
40001d6c:	e8bd4030 	pop	{r4, r5, lr}
40001d70:	e12fff1e 	bx	lr
40001d74:	e3340000 	teq	r4, #0
40001d78:	e2233601 	eor	r3, r3, #1048576	; 0x100000
40001d7c:	02211601 	eoreq	r1, r1, #1048576	; 0x100000
40001d80:	02844001 	addeq	r4, r4, #1
40001d84:	12455001 	subne	r5, r5, #1
40001d88:	eaffff8f 	b	40001bcc <__adddf3+0x9c>
40001d8c:	e1f0cac4 	mvns	ip, r4, asr #21
40001d90:	11f0cac5 	mvnsne	ip, r5, asr #21
40001d94:	0a00001d 	beq	40001e10 <__adddf3+0x2e0>
40001d98:	e1340005 	teq	r4, r5
40001d9c:	01300002 	teqeq	r0, r2
40001da0:	0a000004 	beq	40001db8 <__adddf3+0x288>
40001da4:	e194c000 	orrs	ip, r4, r0
40001da8:	01a01003 	moveq	r1, r3
40001dac:	01a00002 	moveq	r0, r2
40001db0:	e8bd4030 	pop	{r4, r5, lr}
40001db4:	e12fff1e 	bx	lr
40001db8:	e1310003 	teq	r1, r3
40001dbc:	13a01000 	movne	r1, #0
40001dc0:	13a00000 	movne	r0, #0
40001dc4:	18bd4030 	popne	{r4, r5, lr}
40001dc8:	112fff1e 	bxne	lr
40001dcc:	e1b0caa4 	lsrs	ip, r4, #21
40001dd0:	1a000004 	bne	40001de8 <__adddf3+0x2b8>
40001dd4:	e1b00080 	lsls	r0, r0, #1
40001dd8:	e0b11001 	adcs	r1, r1, r1
40001ddc:	23811102 	orrcs	r1, r1, #-2147483648	; 0x80000000
40001de0:	e8bd4030 	pop	{r4, r5, lr}
40001de4:	e12fff1e 	bx	lr
40001de8:	e2944501 	adds	r4, r4, #4194304	; 0x400000
40001dec:	32811601 	addcc	r1, r1, #1048576	; 0x100000
40001df0:	38bd4030 	popcc	{r4, r5, lr}
40001df4:	312fff1e 	bxcc	lr
40001df8:	e2015102 	and	r5, r1, #-2147483648	; 0x80000000
40001dfc:	e385147f 	orr	r1, r5, #2130706432	; 0x7f000000
40001e00:	e381160f 	orr	r1, r1, #15728640	; 0xf00000
40001e04:	e3a00000 	mov	r0, #0
40001e08:	e8bd4030 	pop	{r4, r5, lr}
40001e0c:	e12fff1e 	bx	lr
40001e10:	e1f0cac4 	mvns	ip, r4, asr #21
40001e14:	11a01003 	movne	r1, r3
40001e18:	11a00002 	movne	r0, r2
40001e1c:	01f0cac5 	mvnseq	ip, r5, asr #21
40001e20:	11a03001 	movne	r3, r1
40001e24:	11a02000 	movne	r2, r0
40001e28:	e1904601 	orrs	r4, r0, r1, lsl #12
40001e2c:	01925603 	orrseq	r5, r2, r3, lsl #12
40001e30:	01310003 	teqeq	r1, r3
40001e34:	13811702 	orrne	r1, r1, #524288	; 0x80000
40001e38:	e8bd4030 	pop	{r4, r5, lr}
40001e3c:	e12fff1e 	bx	lr

40001e40 <__aeabi_ui2d>:
40001e40:	e3300000 	teq	r0, #0
40001e44:	03a01000 	moveq	r1, #0
40001e48:	012fff1e 	bxeq	lr
40001e4c:	e92d4030 	push	{r4, r5, lr}
40001e50:	e3a04b01 	mov	r4, #1024	; 0x400
40001e54:	e2844032 	add	r4, r4, #50	; 0x32
40001e58:	e3a05000 	mov	r5, #0
40001e5c:	e3a01000 	mov	r1, #0
40001e60:	eaffff86 	b	40001c80 <__adddf3+0x150>

40001e64 <__aeabi_i2d>:
40001e64:	e3300000 	teq	r0, #0
40001e68:	03a01000 	moveq	r1, #0
40001e6c:	012fff1e 	bxeq	lr
40001e70:	e92d4030 	push	{r4, r5, lr}
40001e74:	e3a04b01 	mov	r4, #1024	; 0x400
40001e78:	e2844032 	add	r4, r4, #50	; 0x32
40001e7c:	e2105102 	ands	r5, r0, #-2147483648	; 0x80000000
40001e80:	42600000 	rsbmi	r0, r0, #0
40001e84:	e3a01000 	mov	r1, #0
40001e88:	eaffff7c 	b	40001c80 <__adddf3+0x150>

40001e8c <__aeabi_f2d>:
40001e8c:	e1b02080 	lsls	r2, r0, #1
40001e90:	e1a011c2 	asr	r1, r2, #3
40001e94:	e1a01061 	rrx	r1, r1
40001e98:	e1a00e02 	lsl	r0, r2, #28
40001e9c:	121234ff 	andsne	r3, r2, #-16777216	; 0xff000000
40001ea0:	133304ff 	teqne	r3, #-16777216	; 0xff000000
40001ea4:	1221130e 	eorne	r1, r1, #939524096	; 0x38000000
40001ea8:	112fff1e 	bxne	lr
40001eac:	e3320000 	teq	r2, #0
40001eb0:	133304ff 	teqne	r3, #-16777216	; 0xff000000
40001eb4:	012fff1e 	bxeq	lr
40001eb8:	e92d4030 	push	{r4, r5, lr}
40001ebc:	e3a04d0e 	mov	r4, #896	; 0x380
40001ec0:	e2015102 	and	r5, r1, #-2147483648	; 0x80000000
40001ec4:	e3c11102 	bic	r1, r1, #-2147483648	; 0x80000000
40001ec8:	eaffff6c 	b	40001c80 <__adddf3+0x150>

40001ecc <__aeabi_ul2d>:
40001ecc:	e1902001 	orrs	r2, r0, r1
40001ed0:	012fff1e 	bxeq	lr
40001ed4:	e92d4030 	push	{r4, r5, lr}
40001ed8:	e3a05000 	mov	r5, #0
40001edc:	ea000006 	b	40001efc <__aeabi_l2d+0x1c>

40001ee0 <__aeabi_l2d>:
40001ee0:	e1902001 	orrs	r2, r0, r1
40001ee4:	012fff1e 	bxeq	lr
40001ee8:	e92d4030 	push	{r4, r5, lr}
40001eec:	e2115102 	ands	r5, r1, #-2147483648	; 0x80000000
40001ef0:	5a000001 	bpl	40001efc <__aeabi_l2d+0x1c>
40001ef4:	e2700000 	rsbs	r0, r0, #0
40001ef8:	e2e11000 	rsc	r1, r1, #0
40001efc:	e3a04b01 	mov	r4, #1024	; 0x400
40001f00:	e2844032 	add	r4, r4, #50	; 0x32
40001f04:	e1b0cb21 	lsrs	ip, r1, #22
40001f08:	0affff44 	beq	40001c20 <__adddf3+0xf0>
40001f0c:	e3a02003 	mov	r2, #3
40001f10:	e1b0c1ac 	lsrs	ip, ip, #3
40001f14:	12822003 	addne	r2, r2, #3
40001f18:	e1b0c1ac 	lsrs	ip, ip, #3
40001f1c:	12822003 	addne	r2, r2, #3
40001f20:	e08221ac 	add	r2, r2, ip, lsr #3
40001f24:	e2623020 	rsb	r3, r2, #32
40001f28:	e1a0c310 	lsl	ip, r0, r3
40001f2c:	e1a00230 	lsr	r0, r0, r2
40001f30:	e1800311 	orr	r0, r0, r1, lsl r3
40001f34:	e1a01231 	lsr	r1, r1, r2
40001f38:	e0844002 	add	r4, r4, r2
40001f3c:	eaffff37 	b	40001c20 <__adddf3+0xf0>

40001f40 <__aeabi_dmul>:
40001f40:	e92d4070 	push	{r4, r5, r6, lr}
40001f44:	e3a0c0ff 	mov	ip, #255	; 0xff
40001f48:	e38ccc07 	orr	ip, ip, #1792	; 0x700
40001f4c:	e01c4a21 	ands	r4, ip, r1, lsr #20
40001f50:	101c5a23 	andsne	r5, ip, r3, lsr #20
40001f54:	1134000c 	teqne	r4, ip
40001f58:	1135000c 	teqne	r5, ip
40001f5c:	0b000075 	bleq	40002138 <__aeabi_dmul+0x1f8>
40001f60:	e0844005 	add	r4, r4, r5
40001f64:	e0216003 	eor	r6, r1, r3
40001f68:	e1c11a8c 	bic	r1, r1, ip, lsl #21
40001f6c:	e1c33a8c 	bic	r3, r3, ip, lsl #21
40001f70:	e1905601 	orrs	r5, r0, r1, lsl #12
40001f74:	11925603 	orrsne	r5, r2, r3, lsl #12
40001f78:	e3811601 	orr	r1, r1, #1048576	; 0x100000
40001f7c:	e3833601 	orr	r3, r3, #1048576	; 0x100000
40001f80:	0a00001d 	beq	40001ffc <__aeabi_dmul+0xbc>
40001f84:	e08ec290 	umull	ip, lr, r0, r2
40001f88:	e3a05000 	mov	r5, #0
40001f8c:	e0a5e291 	umlal	lr, r5, r1, r2
40001f90:	e2062102 	and	r2, r6, #-2147483648	; 0x80000000
40001f94:	e0a5e390 	umlal	lr, r5, r0, r3
40001f98:	e3a06000 	mov	r6, #0
40001f9c:	e0a65391 	umlal	r5, r6, r1, r3
40001fa0:	e33c0000 	teq	ip, #0
40001fa4:	138ee001 	orrne	lr, lr, #1
40001fa8:	e24440ff 	sub	r4, r4, #255	; 0xff
40001fac:	e3560c02 	cmp	r6, #512	; 0x200
40001fb0:	e2c44c03 	sbc	r4, r4, #768	; 0x300
40001fb4:	2a000002 	bcs	40001fc4 <__aeabi_dmul+0x84>
40001fb8:	e1b0e08e 	lsls	lr, lr, #1
40001fbc:	e0b55005 	adcs	r5, r5, r5
40001fc0:	e0a66006 	adc	r6, r6, r6
40001fc4:	e1821586 	orr	r1, r2, r6, lsl #11
40001fc8:	e1811aa5 	orr	r1, r1, r5, lsr #21
40001fcc:	e1a00585 	lsl	r0, r5, #11
40001fd0:	e1800aae 	orr	r0, r0, lr, lsr #21
40001fd4:	e1a0e58e 	lsl	lr, lr, #11
40001fd8:	e254c0fd 	subs	ip, r4, #253	; 0xfd
40001fdc:	835c0c07 	cmphi	ip, #1792	; 0x700
40001fe0:	8a000011 	bhi	4000202c <__aeabi_dmul+0xec>
40001fe4:	e35e0102 	cmp	lr, #-2147483648	; 0x80000000
40001fe8:	01b0e0a0 	lsrseq	lr, r0, #1
40001fec:	e2b00000 	adcs	r0, r0, #0
40001ff0:	e0a11a04 	adc	r1, r1, r4, lsl #20
40001ff4:	e8bd4070 	pop	{r4, r5, r6, lr}
40001ff8:	e12fff1e 	bx	lr
40001ffc:	e2066102 	and	r6, r6, #-2147483648	; 0x80000000
40002000:	e1861001 	orr	r1, r6, r1
40002004:	e1800002 	orr	r0, r0, r2
40002008:	e0211003 	eor	r1, r1, r3
4000200c:	e05440ac 	subs	r4, r4, ip, lsr #1
40002010:	c074500c 	rsbsgt	r5, r4, ip
40002014:	c1811a04 	orrgt	r1, r1, r4, lsl #20
40002018:	c8bd4070 	popgt	{r4, r5, r6, lr}
4000201c:	c12fff1e 	bxgt	lr
40002020:	e3811601 	orr	r1, r1, #1048576	; 0x100000
40002024:	e3a0e000 	mov	lr, #0
40002028:	e2544001 	subs	r4, r4, #1
4000202c:	ca00005d 	bgt	400021a8 <__aeabi_dmul+0x268>
40002030:	e3740036 	cmn	r4, #54	; 0x36
40002034:	d3a00000 	movle	r0, #0
40002038:	d2011102 	andle	r1, r1, #-2147483648	; 0x80000000
4000203c:	d8bd4070 	pople	{r4, r5, r6, lr}
40002040:	d12fff1e 	bxle	lr
40002044:	e2644000 	rsb	r4, r4, #0
40002048:	e2544020 	subs	r4, r4, #32
4000204c:	aa00001a 	bge	400020bc <__aeabi_dmul+0x17c>
40002050:	e294400c 	adds	r4, r4, #12
40002054:	ca00000c 	bgt	4000208c <__aeabi_dmul+0x14c>
40002058:	e2844014 	add	r4, r4, #20
4000205c:	e2645020 	rsb	r5, r4, #32
40002060:	e1a03510 	lsl	r3, r0, r5
40002064:	e1a00430 	lsr	r0, r0, r4
40002068:	e1800511 	orr	r0, r0, r1, lsl r5
4000206c:	e2012102 	and	r2, r1, #-2147483648	; 0x80000000
40002070:	e3c11102 	bic	r1, r1, #-2147483648	; 0x80000000
40002074:	e0900fa3 	adds	r0, r0, r3, lsr #31
40002078:	e0a21431 	adc	r1, r2, r1, lsr r4
4000207c:	e19ee083 	orrs	lr, lr, r3, lsl #1
40002080:	01c00fa3 	biceq	r0, r0, r3, lsr #31
40002084:	e8bd4070 	pop	{r4, r5, r6, lr}
40002088:	e12fff1e 	bx	lr
4000208c:	e264400c 	rsb	r4, r4, #12
40002090:	e2645020 	rsb	r5, r4, #32
40002094:	e1a03410 	lsl	r3, r0, r4
40002098:	e1a00530 	lsr	r0, r0, r5
4000209c:	e1800411 	orr	r0, r0, r1, lsl r4
400020a0:	e2011102 	and	r1, r1, #-2147483648	; 0x80000000
400020a4:	e0900fa3 	adds	r0, r0, r3, lsr #31
400020a8:	e2a11000 	adc	r1, r1, #0
400020ac:	e19ee083 	orrs	lr, lr, r3, lsl #1
400020b0:	01c00fa3 	biceq	r0, r0, r3, lsr #31
400020b4:	e8bd4070 	pop	{r4, r5, r6, lr}
400020b8:	e12fff1e 	bx	lr
400020bc:	e2645020 	rsb	r5, r4, #32
400020c0:	e18ee510 	orr	lr, lr, r0, lsl r5
400020c4:	e1a03430 	lsr	r3, r0, r4
400020c8:	e1833511 	orr	r3, r3, r1, lsl r5
400020cc:	e1a00431 	lsr	r0, r1, r4
400020d0:	e2011102 	and	r1, r1, #-2147483648	; 0x80000000
400020d4:	e1c00431 	bic	r0, r0, r1, lsr r4
400020d8:	e0800fa3 	add	r0, r0, r3, lsr #31
400020dc:	e19ee083 	orrs	lr, lr, r3, lsl #1
400020e0:	01c00fa3 	biceq	r0, r0, r3, lsr #31
400020e4:	e8bd4070 	pop	{r4, r5, r6, lr}
400020e8:	e12fff1e 	bx	lr
400020ec:	e3340000 	teq	r4, #0
400020f0:	1a000008 	bne	40002118 <__aeabi_dmul+0x1d8>
400020f4:	e2016102 	and	r6, r1, #-2147483648	; 0x80000000
400020f8:	e1b00080 	lsls	r0, r0, #1
400020fc:	e0a11001 	adc	r1, r1, r1
40002100:	e3110601 	tst	r1, #1048576	; 0x100000
40002104:	02444001 	subeq	r4, r4, #1
40002108:	0afffffa 	beq	400020f8 <__aeabi_dmul+0x1b8>
4000210c:	e1811006 	orr	r1, r1, r6
40002110:	e3350000 	teq	r5, #0
40002114:	112fff1e 	bxne	lr
40002118:	e2036102 	and	r6, r3, #-2147483648	; 0x80000000
4000211c:	e1b02082 	lsls	r2, r2, #1
40002120:	e0a33003 	adc	r3, r3, r3
40002124:	e3130601 	tst	r3, #1048576	; 0x100000
40002128:	02455001 	subeq	r5, r5, #1
4000212c:	0afffffa 	beq	4000211c <__aeabi_dmul+0x1dc>
40002130:	e1833006 	orr	r3, r3, r6
40002134:	e12fff1e 	bx	lr
40002138:	e134000c 	teq	r4, ip
4000213c:	e00c5a23 	and	r5, ip, r3, lsr #20
40002140:	1135000c 	teqne	r5, ip
40002144:	0a000007 	beq	40002168 <__aeabi_dmul+0x228>
40002148:	e1906081 	orrs	r6, r0, r1, lsl #1
4000214c:	11926083 	orrsne	r6, r2, r3, lsl #1
40002150:	1affffe5 	bne	400020ec <__aeabi_dmul+0x1ac>
40002154:	e0211003 	eor	r1, r1, r3
40002158:	e2011102 	and	r1, r1, #-2147483648	; 0x80000000
4000215c:	e3a00000 	mov	r0, #0
40002160:	e8bd4070 	pop	{r4, r5, r6, lr}
40002164:	e12fff1e 	bx	lr
40002168:	e1906081 	orrs	r6, r0, r1, lsl #1
4000216c:	01a00002 	moveq	r0, r2
40002170:	01a01003 	moveq	r1, r3
40002174:	11926083 	orrsne	r6, r2, r3, lsl #1
40002178:	0a000010 	beq	400021c0 <__aeabi_dmul+0x280>
4000217c:	e134000c 	teq	r4, ip
40002180:	1a000001 	bne	4000218c <__aeabi_dmul+0x24c>
40002184:	e1906601 	orrs	r6, r0, r1, lsl #12
40002188:	1a00000c 	bne	400021c0 <__aeabi_dmul+0x280>
4000218c:	e135000c 	teq	r5, ip
40002190:	1a000003 	bne	400021a4 <__aeabi_dmul+0x264>
40002194:	e1926603 	orrs	r6, r2, r3, lsl #12
40002198:	11a00002 	movne	r0, r2
4000219c:	11a01003 	movne	r1, r3
400021a0:	1a000006 	bne	400021c0 <__aeabi_dmul+0x280>
400021a4:	e0211003 	eor	r1, r1, r3
400021a8:	e2011102 	and	r1, r1, #-2147483648	; 0x80000000
400021ac:	e381147f 	orr	r1, r1, #2130706432	; 0x7f000000
400021b0:	e381160f 	orr	r1, r1, #15728640	; 0xf00000
400021b4:	e3a00000 	mov	r0, #0
400021b8:	e8bd4070 	pop	{r4, r5, r6, lr}
400021bc:	e12fff1e 	bx	lr
400021c0:	e381147f 	orr	r1, r1, #2130706432	; 0x7f000000
400021c4:	e381173e 	orr	r1, r1, #16252928	; 0xf80000
400021c8:	e8bd4070 	pop	{r4, r5, r6, lr}
400021cc:	e12fff1e 	bx	lr

400021d0 <__aeabi_ddiv>:
400021d0:	e92d4070 	push	{r4, r5, r6, lr}
400021d4:	e3a0c0ff 	mov	ip, #255	; 0xff
400021d8:	e38ccc07 	orr	ip, ip, #1792	; 0x700
400021dc:	e01c4a21 	ands	r4, ip, r1, lsr #20
400021e0:	101c5a23 	andsne	r5, ip, r3, lsr #20
400021e4:	1134000c 	teqne	r4, ip
400021e8:	1135000c 	teqne	r5, ip
400021ec:	0b00005e 	bleq	4000236c <__aeabi_ddiv+0x19c>
400021f0:	e0444005 	sub	r4, r4, r5
400021f4:	e021e003 	eor	lr, r1, r3
400021f8:	e1925603 	orrs	r5, r2, r3, lsl #12
400021fc:	e1a01601 	lsl	r1, r1, #12
40002200:	0a00004c 	beq	40002338 <__aeabi_ddiv+0x168>
40002204:	e1a03603 	lsl	r3, r3, #12
40002208:	e3a05201 	mov	r5, #268435456	; 0x10000000
4000220c:	e1853223 	orr	r3, r5, r3, lsr #4
40002210:	e1833c22 	orr	r3, r3, r2, lsr #24
40002214:	e1a02402 	lsl	r2, r2, #8
40002218:	e1855221 	orr	r5, r5, r1, lsr #4
4000221c:	e1855c20 	orr	r5, r5, r0, lsr #24
40002220:	e1a06400 	lsl	r6, r0, #8
40002224:	e20e1102 	and	r1, lr, #-2147483648	; 0x80000000
40002228:	e1550003 	cmp	r5, r3
4000222c:	01560002 	cmpeq	r6, r2
40002230:	e2a440fd 	adc	r4, r4, #253	; 0xfd
40002234:	e2844c03 	add	r4, r4, #768	; 0x300
40002238:	2a000001 	bcs	40002244 <__aeabi_ddiv+0x74>
4000223c:	e1b030a3 	lsrs	r3, r3, #1
40002240:	e1a02062 	rrx	r2, r2
40002244:	e0566002 	subs	r6, r6, r2
40002248:	e0c55003 	sbc	r5, r5, r3
4000224c:	e1b030a3 	lsrs	r3, r3, #1
40002250:	e1a02062 	rrx	r2, r2
40002254:	e3a00601 	mov	r0, #1048576	; 0x100000
40002258:	e3a0c702 	mov	ip, #524288	; 0x80000
4000225c:	e056e002 	subs	lr, r6, r2
40002260:	e0d5e003 	sbcs	lr, r5, r3
40002264:	20466002 	subcs	r6, r6, r2
40002268:	21a0500e 	movcs	r5, lr
4000226c:	2180000c 	orrcs	r0, r0, ip
40002270:	e1b030a3 	lsrs	r3, r3, #1
40002274:	e1a02062 	rrx	r2, r2
40002278:	e056e002 	subs	lr, r6, r2
4000227c:	e0d5e003 	sbcs	lr, r5, r3
40002280:	20466002 	subcs	r6, r6, r2
40002284:	21a0500e 	movcs	r5, lr
40002288:	218000ac 	orrcs	r0, r0, ip, lsr #1
4000228c:	e1b030a3 	lsrs	r3, r3, #1
40002290:	e1a02062 	rrx	r2, r2
40002294:	e056e002 	subs	lr, r6, r2
40002298:	e0d5e003 	sbcs	lr, r5, r3
4000229c:	20466002 	subcs	r6, r6, r2
400022a0:	21a0500e 	movcs	r5, lr
400022a4:	2180012c 	orrcs	r0, r0, ip, lsr #2
400022a8:	e1b030a3 	lsrs	r3, r3, #1
400022ac:	e1a02062 	rrx	r2, r2
400022b0:	e056e002 	subs	lr, r6, r2
400022b4:	e0d5e003 	sbcs	lr, r5, r3
400022b8:	20466002 	subcs	r6, r6, r2
400022bc:	21a0500e 	movcs	r5, lr
400022c0:	218001ac 	orrcs	r0, r0, ip, lsr #3
400022c4:	e195e006 	orrs	lr, r5, r6
400022c8:	0a00000d 	beq	40002304 <__aeabi_ddiv+0x134>
400022cc:	e1a05205 	lsl	r5, r5, #4
400022d0:	e1855e26 	orr	r5, r5, r6, lsr #28
400022d4:	e1a06206 	lsl	r6, r6, #4
400022d8:	e1a03183 	lsl	r3, r3, #3
400022dc:	e1833ea2 	orr	r3, r3, r2, lsr #29
400022e0:	e1a02182 	lsl	r2, r2, #3
400022e4:	e1b0c22c 	lsrs	ip, ip, #4
400022e8:	1affffdb 	bne	4000225c <__aeabi_ddiv+0x8c>
400022ec:	e3110601 	tst	r1, #1048576	; 0x100000
400022f0:	1a000006 	bne	40002310 <__aeabi_ddiv+0x140>
400022f4:	e1811000 	orr	r1, r1, r0
400022f8:	e3a00000 	mov	r0, #0
400022fc:	e3a0c102 	mov	ip, #-2147483648	; 0x80000000
40002300:	eaffffd5 	b	4000225c <__aeabi_ddiv+0x8c>
40002304:	e3110601 	tst	r1, #1048576	; 0x100000
40002308:	01811000 	orreq	r1, r1, r0
4000230c:	03a00000 	moveq	r0, #0
40002310:	e254c0fd 	subs	ip, r4, #253	; 0xfd
40002314:	835c0c07 	cmphi	ip, #1792	; 0x700
40002318:	8affff43 	bhi	4000202c <__aeabi_dmul+0xec>
4000231c:	e055c003 	subs	ip, r5, r3
40002320:	0056c002 	subseq	ip, r6, r2
40002324:	01b0c0a0 	lsrseq	ip, r0, #1
40002328:	e2b00000 	adcs	r0, r0, #0
4000232c:	e0a11a04 	adc	r1, r1, r4, lsl #20
40002330:	e8bd4070 	pop	{r4, r5, r6, lr}
40002334:	e12fff1e 	bx	lr
40002338:	e20ee102 	and	lr, lr, #-2147483648	; 0x80000000
4000233c:	e18e1621 	orr	r1, lr, r1, lsr #12
40002340:	e09440ac 	adds	r4, r4, ip, lsr #1
40002344:	c074500c 	rsbsgt	r5, r4, ip
40002348:	c1811a04 	orrgt	r1, r1, r4, lsl #20
4000234c:	c8bd4070 	popgt	{r4, r5, r6, lr}
40002350:	c12fff1e 	bxgt	lr
40002354:	e3811601 	orr	r1, r1, #1048576	; 0x100000
40002358:	e3a0e000 	mov	lr, #0
4000235c:	e2544001 	subs	r4, r4, #1
40002360:	eaffff31 	b	4000202c <__aeabi_dmul+0xec>
40002364:	e185e006 	orr	lr, r5, r6
40002368:	eaffff2f 	b	4000202c <__aeabi_dmul+0xec>
4000236c:	e00c5a23 	and	r5, ip, r3, lsr #20
40002370:	e134000c 	teq	r4, ip
40002374:	0135000c 	teqeq	r5, ip
40002378:	0affff90 	beq	400021c0 <__aeabi_dmul+0x280>
4000237c:	e134000c 	teq	r4, ip
40002380:	1a000006 	bne	400023a0 <__aeabi_ddiv+0x1d0>
40002384:	e1904601 	orrs	r4, r0, r1, lsl #12
40002388:	1affff8c 	bne	400021c0 <__aeabi_dmul+0x280>
4000238c:	e135000c 	teq	r5, ip
40002390:	1affff83 	bne	400021a4 <__aeabi_dmul+0x264>
40002394:	e1a00002 	mov	r0, r2
40002398:	e1a01003 	mov	r1, r3
4000239c:	eaffff87 	b	400021c0 <__aeabi_dmul+0x280>
400023a0:	e135000c 	teq	r5, ip
400023a4:	1a000004 	bne	400023bc <__aeabi_ddiv+0x1ec>
400023a8:	e1925603 	orrs	r5, r2, r3, lsl #12
400023ac:	0affff68 	beq	40002154 <__aeabi_dmul+0x214>
400023b0:	e1a00002 	mov	r0, r2
400023b4:	e1a01003 	mov	r1, r3
400023b8:	eaffff80 	b	400021c0 <__aeabi_dmul+0x280>
400023bc:	e1906081 	orrs	r6, r0, r1, lsl #1
400023c0:	11926083 	orrsne	r6, r2, r3, lsl #1
400023c4:	1affff48 	bne	400020ec <__aeabi_dmul+0x1ac>
400023c8:	e1904081 	orrs	r4, r0, r1, lsl #1
400023cc:	1affff74 	bne	400021a4 <__aeabi_dmul+0x264>
400023d0:	e1925083 	orrs	r5, r2, r3, lsl #1
400023d4:	1affff5e 	bne	40002154 <__aeabi_dmul+0x214>
400023d8:	eaffff78 	b	400021c0 <__aeabi_dmul+0x280>

400023dc <__gedf2>:
400023dc:	e3e0c000 	mvn	ip, #0
400023e0:	ea000002 	b	400023f0 <__cmpdf2+0x4>

400023e4 <__ledf2>:
400023e4:	e3a0c001 	mov	ip, #1
400023e8:	ea000000 	b	400023f0 <__cmpdf2+0x4>

400023ec <__cmpdf2>:
400023ec:	e3a0c001 	mov	ip, #1
400023f0:	e52dc004 	push	{ip}		; (str ip, [sp, #-4]!)
400023f4:	e1a0c081 	lsl	ip, r1, #1
400023f8:	e1f0cacc 	mvns	ip, ip, asr #21
400023fc:	e1a0c083 	lsl	ip, r3, #1
40002400:	11f0cacc 	mvnsne	ip, ip, asr #21
40002404:	0a00000e 	beq	40002444 <__cmpdf2+0x58>
40002408:	e28dd004 	add	sp, sp, #4
4000240c:	e190c081 	orrs	ip, r0, r1, lsl #1
40002410:	0192c083 	orrseq	ip, r2, r3, lsl #1
40002414:	11310003 	teqne	r1, r3
40002418:	01300002 	teqeq	r0, r2
4000241c:	03a00000 	moveq	r0, #0
40002420:	012fff1e 	bxeq	lr
40002424:	e3700000 	cmn	r0, #0
40002428:	e1310003 	teq	r1, r3
4000242c:	51510003 	cmppl	r1, r3
40002430:	01500002 	cmpeq	r0, r2
40002434:	21a00fc3 	asrcs	r0, r3, #31
40002438:	31e00fc3 	mvncc	r0, r3, asr #31
4000243c:	e3800001 	orr	r0, r0, #1
40002440:	e12fff1e 	bx	lr
40002444:	e1a0c081 	lsl	ip, r1, #1
40002448:	e1f0cacc 	mvns	ip, ip, asr #21
4000244c:	1a000001 	bne	40002458 <__cmpdf2+0x6c>
40002450:	e190c601 	orrs	ip, r0, r1, lsl #12
40002454:	1a000004 	bne	4000246c <__cmpdf2+0x80>
40002458:	e1a0c083 	lsl	ip, r3, #1
4000245c:	e1f0cacc 	mvns	ip, ip, asr #21
40002460:	1affffe8 	bne	40002408 <__cmpdf2+0x1c>
40002464:	e192c603 	orrs	ip, r2, r3, lsl #12
40002468:	0affffe6 	beq	40002408 <__cmpdf2+0x1c>
4000246c:	e49d0004 	pop	{r0}		; (ldr r0, [sp], #4)
40002470:	e12fff1e 	bx	lr

40002474 <__aeabi_cdrcmple>:
40002474:	e1a0c000 	mov	ip, r0
40002478:	e1a00002 	mov	r0, r2
4000247c:	e1a0200c 	mov	r2, ip
40002480:	e1a0c001 	mov	ip, r1
40002484:	e1a01003 	mov	r1, r3
40002488:	e1a0300c 	mov	r3, ip
4000248c:	eaffffff 	b	40002490 <__aeabi_cdcmpeq>

40002490 <__aeabi_cdcmpeq>:
40002490:	e92d4001 	push	{r0, lr}
40002494:	ebffffd4 	bl	400023ec <__cmpdf2>
40002498:	e3500000 	cmp	r0, #0
4000249c:	43700000 	cmnmi	r0, #0
400024a0:	e8bd4001 	pop	{r0, lr}
400024a4:	e12fff1e 	bx	lr

400024a8 <__aeabi_dcmpeq>:
400024a8:	e52de008 	str	lr, [sp, #-8]!
400024ac:	ebfffff7 	bl	40002490 <__aeabi_cdcmpeq>
400024b0:	03a00001 	moveq	r0, #1
400024b4:	13a00000 	movne	r0, #0
400024b8:	e49de008 	ldr	lr, [sp], #8
400024bc:	e12fff1e 	bx	lr

400024c0 <__aeabi_dcmplt>:
400024c0:	e52de008 	str	lr, [sp, #-8]!
400024c4:	ebfffff1 	bl	40002490 <__aeabi_cdcmpeq>
400024c8:	33a00001 	movcc	r0, #1
400024cc:	23a00000 	movcs	r0, #0
400024d0:	e49de008 	ldr	lr, [sp], #8
400024d4:	e12fff1e 	bx	lr

400024d8 <__aeabi_dcmple>:
400024d8:	e52de008 	str	lr, [sp, #-8]!
400024dc:	ebffffeb 	bl	40002490 <__aeabi_cdcmpeq>
400024e0:	93a00001 	movls	r0, #1
400024e4:	83a00000 	movhi	r0, #0
400024e8:	e49de008 	ldr	lr, [sp], #8
400024ec:	e12fff1e 	bx	lr

400024f0 <__aeabi_dcmpge>:
400024f0:	e52de008 	str	lr, [sp, #-8]!
400024f4:	ebffffde 	bl	40002474 <__aeabi_cdrcmple>
400024f8:	93a00001 	movls	r0, #1
400024fc:	83a00000 	movhi	r0, #0
40002500:	e49de008 	ldr	lr, [sp], #8
40002504:	e12fff1e 	bx	lr

40002508 <__aeabi_dcmpgt>:
40002508:	e52de008 	str	lr, [sp, #-8]!
4000250c:	ebffffd8 	bl	40002474 <__aeabi_cdrcmple>
40002510:	33a00001 	movcc	r0, #1
40002514:	23a00000 	movcs	r0, #0
40002518:	e49de008 	ldr	lr, [sp], #8
4000251c:	e12fff1e 	bx	lr

40002520 <__aeabi_dcmpun>:
40002520:	e1a0c081 	lsl	ip, r1, #1
40002524:	e1f0cacc 	mvns	ip, ip, asr #21
40002528:	1a000001 	bne	40002534 <__aeabi_dcmpun+0x14>
4000252c:	e190c601 	orrs	ip, r0, r1, lsl #12
40002530:	1a000006 	bne	40002550 <__aeabi_dcmpun+0x30>
40002534:	e1a0c083 	lsl	ip, r3, #1
40002538:	e1f0cacc 	mvns	ip, ip, asr #21
4000253c:	1a000001 	bne	40002548 <__aeabi_dcmpun+0x28>
40002540:	e192c603 	orrs	ip, r2, r3, lsl #12
40002544:	1a000001 	bne	40002550 <__aeabi_dcmpun+0x30>
40002548:	e3a00000 	mov	r0, #0
4000254c:	e12fff1e 	bx	lr
40002550:	e3a00001 	mov	r0, #1
40002554:	e12fff1e 	bx	lr

40002558 <__aeabi_d2iz>:
40002558:	e1a02081 	lsl	r2, r1, #1
4000255c:	e2922602 	adds	r2, r2, #2097152	; 0x200000
40002560:	2a00000c 	bcs	40002598 <__aeabi_d2iz+0x40>
40002564:	5a000009 	bpl	40002590 <__aeabi_d2iz+0x38>
40002568:	e3e03e3e 	mvn	r3, #992	; 0x3e0
4000256c:	e0532ac2 	subs	r2, r3, r2, asr #21
40002570:	9a00000a 	bls	400025a0 <__aeabi_d2iz+0x48>
40002574:	e1a03581 	lsl	r3, r1, #11
40002578:	e3833102 	orr	r3, r3, #-2147483648	; 0x80000000
4000257c:	e1833aa0 	orr	r3, r3, r0, lsr #21
40002580:	e3110102 	tst	r1, #-2147483648	; 0x80000000
40002584:	e1a00233 	lsr	r0, r3, r2
40002588:	12600000 	rsbne	r0, r0, #0
4000258c:	e12fff1e 	bx	lr
40002590:	e3a00000 	mov	r0, #0
40002594:	e12fff1e 	bx	lr
40002598:	e1900601 	orrs	r0, r0, r1, lsl #12
4000259c:	1a000002 	bne	400025ac <__aeabi_d2iz+0x54>
400025a0:	e2110102 	ands	r0, r1, #-2147483648	; 0x80000000
400025a4:	03e00102 	mvneq	r0, #-2147483648	; 0x80000000
400025a8:	e12fff1e 	bx	lr
400025ac:	e3a00000 	mov	r0, #0
400025b0:	e12fff1e 	bx	lr

400025b4 <__aeabi_uldivmod>:
400025b4:	e3530000 	cmp	r3, #0
400025b8:	03520000 	cmpeq	r2, #0
400025bc:	1a000004 	bne	400025d4 <__aeabi_uldivmod+0x20>
400025c0:	e3510000 	cmp	r1, #0
400025c4:	03500000 	cmpeq	r0, #0
400025c8:	13e01000 	mvnne	r1, #0
400025cc:	13e00000 	mvnne	r0, #0
400025d0:	eafffd52 	b	40001b20 <__aeabi_idiv0>
400025d4:	e24dd008 	sub	sp, sp, #8
400025d8:	e92d6000 	push	{sp, lr}
400025dc:	eb005426 	bl	4001767c <__udivmoddi4>
400025e0:	e59de004 	ldr	lr, [sp, #4]
400025e4:	e28dd008 	add	sp, sp, #8
400025e8:	e8bd000c 	pop	{r2, r3}
400025ec:	e12fff1e 	bx	lr

400025f0 <__aeabi_llsr>:
400025f0:	e2523020 	subs	r3, r2, #32
400025f4:	e262c020 	rsb	ip, r2, #32
400025f8:	41a00230 	lsrmi	r0, r0, r2
400025fc:	51a00331 	lsrpl	r0, r1, r3
40002600:	41800c11 	orrmi	r0, r0, r1, lsl ip
40002604:	e1a01231 	lsr	r1, r1, r2
40002608:	e12fff1e 	bx	lr

4000260c <__aeabi_llsl>:
4000260c:	e2523020 	subs	r3, r2, #32
40002610:	e262c020 	rsb	ip, r2, #32
40002614:	41a01211 	lslmi	r1, r1, r2
40002618:	51a01310 	lslpl	r1, r0, r3
4000261c:	41811c30 	orrmi	r1, r1, r0, lsr ip
40002620:	e1a00210 	lsl	r0, r0, r2
40002624:	e12fff1e 	bx	lr

40002628 <__clzdi2>:
40002628:	e92d4010 	push	{r4, lr}
4000262c:	e3510000 	cmp	r1, #0
40002630:	1a000002 	bne	40002640 <__clzdi2+0x18>
40002634:	eb000005 	bl	40002650 <__clzsi2>
40002638:	e2800020 	add	r0, r0, #32
4000263c:	ea000001 	b	40002648 <__clzdi2+0x20>
40002640:	e1a00001 	mov	r0, r1
40002644:	eb000001 	bl	40002650 <__clzsi2>
40002648:	e8bd4010 	pop	{r4, lr}
4000264c:	e12fff1e 	bx	lr

40002650 <__clzsi2>:
40002650:	e3a0101c 	mov	r1, #28
40002654:	e3500801 	cmp	r0, #65536	; 0x10000
40002658:	21a00820 	lsrcs	r0, r0, #16
4000265c:	22411010 	subcs	r1, r1, #16
40002660:	e3500c01 	cmp	r0, #256	; 0x100
40002664:	21a00420 	lsrcs	r0, r0, #8
40002668:	22411008 	subcs	r1, r1, #8
4000266c:	e3500010 	cmp	r0, #16
40002670:	21a00220 	lsrcs	r0, r0, #4
40002674:	22411004 	subcs	r1, r1, #4
40002678:	e28f2008 	add	r2, pc, #8
4000267c:	e7d20000 	ldrb	r0, [r2, r0]
40002680:	e0800001 	add	r0, r0, r1
40002684:	e12fff1e 	bx	lr
40002688:	02020304 	.word	0x02020304
4000268c:	01010101 	.word	0x01010101
	...

Disassembly of section .text._ZN6Serial4Uart13IsTxHoldEmptyEv:

40002698 <_ZN6Serial4Uart13IsTxHoldEmptyEv>:
40002698:	e52db004 	push	{fp}		; (str fp, [sp, #-4]!)
4000269c:	e28db000 	add	fp, sp, #0
400026a0:	e24dd00c 	sub	sp, sp, #12
400026a4:	e50b0008 	str	r0, [fp, #-8]
400026a8:	e51b3008 	ldr	r3, [fp, #-8]
400026ac:	e5933000 	ldr	r3, [r3]
400026b0:	e5d33014 	ldrb	r3, [r3, #20]
400026b4:	e2033020 	and	r3, r3, #32
400026b8:	e6ef3073 	uxtb	r3, r3
400026bc:	e3530000 	cmp	r3, #0
400026c0:	13a03001 	movne	r3, #1
400026c4:	03a03000 	moveq	r3, #0
400026c8:	e6ef3073 	uxtb	r3, r3
400026cc:	e1a00003 	mov	r0, r3
400026d0:	e28bd000 	add	sp, fp, #0
400026d4:	e49db004 	pop	{fp}		; (ldr fp, [sp], #4)
400026d8:	e12fff1e 	bx	lr

Disassembly of section .text._ZN6Serial4Uart6IsBusyEv:

400026dc <_ZN6Serial4Uart6IsBusyEv>:
400026dc:	e52db004 	push	{fp}		; (str fp, [sp, #-4]!)
400026e0:	e28db000 	add	fp, sp, #0
400026e4:	e24dd00c 	sub	sp, sp, #12
400026e8:	e50b0008 	str	r0, [fp, #-8]
400026ec:	e51b3008 	ldr	r3, [fp, #-8]
400026f0:	e5933000 	ldr	r3, [r3]
400026f4:	e5d33020 	ldrb	r3, [r3, #32]
400026f8:	e2033001 	and	r3, r3, #1
400026fc:	e6ef3073 	uxtb	r3, r3
40002700:	e3530000 	cmp	r3, #0
40002704:	13a03001 	movne	r3, #1
40002708:	03a03000 	moveq	r3, #0
4000270c:	e6ef3073 	uxtb	r3, r3
40002710:	e1a00003 	mov	r0, r3
40002714:	e28bd000 	add	sp, fp, #0
40002718:	e49db004 	pop	{fp}		; (ldr fp, [sp], #4)
4000271c:	e12fff1e 	bx	lr

Disassembly of section .text._ZL12read_uleb128PKhPm:

40002720 <_ZL12read_uleb128PKhPm>:
40002720:	e92d4030 	push	{r4, r5, lr}
40002724:	e3a03000 	mov	r3, #0
40002728:	e3a05007 	mov	r5, #7
4000272c:	e0404180 	sub	r4, r0, r0, lsl #3
40002730:	e02c4590 	mla	ip, r0, r5, r4
40002734:	e4d02001 	ldrb	r2, [r0], #1
40002738:	e202e07f 	and	lr, r2, #127	; 0x7f
4000273c:	e3120080 	tst	r2, #128	; 0x80
40002740:	e1833c1e 	orr	r3, r3, lr, lsl ip
40002744:	1afffff9 	bne	40002730 <_ZL12read_uleb128PKhPm+0x10>
40002748:	e5813000 	str	r3, [r1]
4000274c:	e8bd4030 	pop	{r4, r5, lr}
40002750:	e12fff1e 	bx	lr

Disassembly of section .text._ZL12read_sleb128PKhPl:

40002754 <_ZL12read_sleb128PKhPl>:
40002754:	e3a03000 	mov	r3, #0
40002758:	e1a02003 	mov	r2, r3
4000275c:	e52de004 	push	{lr}		; (str lr, [sp, #-4]!)
40002760:	e4d0c001 	ldrb	ip, [r0], #1
40002764:	e20ce07f 	and	lr, ip, #127	; 0x7f
40002768:	e31c0080 	tst	ip, #128	; 0x80
4000276c:	e183321e 	orr	r3, r3, lr, lsl r2
40002770:	e2822007 	add	r2, r2, #7
40002774:	1afffff9 	bne	40002760 <_ZL12read_sleb128PKhPl+0xc>
40002778:	e352001f 	cmp	r2, #31
4000277c:	8a000002 	bhi	4000278c <_ZL12read_sleb128PKhPl+0x38>
40002780:	e31c0040 	tst	ip, #64	; 0x40
40002784:	13e0c000 	mvnne	ip, #0
40002788:	1183321c 	orrne	r3, r3, ip, lsl r2
4000278c:	e5813000 	str	r3, [r1]
40002790:	e49de004 	pop	{lr}		; (ldr lr, [sp], #4)
40002794:	e12fff1e 	bx	lr

Disassembly of section .text._ZL28read_encoded_value_with_basehjPKhPj:

40002798 <_ZL28read_encoded_value_with_basehjPKhPj>:
40002798:	e3500050 	cmp	r0, #80	; 0x50
4000279c:	e92d40f7 	push	{r0, r1, r2, r4, r5, r6, r7, lr}
400027a0:	02820003 	addeq	r0, r2, #3
400027a4:	03c00003 	biceq	r0, r0, #3
400027a8:	e1a06003 	mov	r6, r3
400027ac:	e1a07002 	mov	r7, r2
400027b0:	04903004 	ldreq	r3, [r0], #4
400027b4:	0a00001e 	beq	40002834 <_ZL28read_encoded_value_with_basehjPKhPj+0x9c>
400027b8:	e200300f 	and	r3, r0, #15
400027bc:	e1a04000 	mov	r4, r0
400027c0:	e1a05001 	mov	r5, r1
400027c4:	e353000c 	cmp	r3, #12
400027c8:	979ff103 	ldrls	pc, [pc, r3, lsl #2]
400027cc:	ea00003d 	b	400028c8 <_ZL28read_encoded_value_with_basehjPKhPj+0x130>
400027d0:	40002880 	.word	0x40002880
400027d4:	40002804 	.word	0x40002804
400027d8:	40002854 	.word	0x40002854
400027dc:	40002880 	.word	0x40002880
400027e0:	400028a4 	.word	0x400028a4
400027e4:	400028c8 	.word	0x400028c8
400027e8:	400028c8 	.word	0x400028c8
400027ec:	400028c8 	.word	0x400028c8
400027f0:	400028c8 	.word	0x400028c8
400027f4:	40002844 	.word	0x40002844
400027f8:	40002868 	.word	0x40002868
400027fc:	40002880 	.word	0x40002880
40002800:	400028a4 	.word	0x400028a4
40002804:	e28d1004 	add	r1, sp, #4
40002808:	e1a00002 	mov	r0, r2
4000280c:	ebffffc3 	bl	40002720 <_ZL12read_uleb128PKhPm>
40002810:	e59d3004 	ldr	r3, [sp, #4]
40002814:	e3530000 	cmp	r3, #0
40002818:	0a000005 	beq	40002834 <_ZL28read_encoded_value_with_basehjPKhPj+0x9c>
4000281c:	e2042070 	and	r2, r4, #112	; 0x70
40002820:	e3520010 	cmp	r2, #16
40002824:	01a05007 	moveq	r5, r7
40002828:	e3140080 	tst	r4, #128	; 0x80
4000282c:	e0833005 	add	r3, r3, r5
40002830:	15933000 	ldrne	r3, [r3]
40002834:	e5863000 	str	r3, [r6]
40002838:	e28dd00c 	add	sp, sp, #12
4000283c:	e8bd40f0 	pop	{r4, r5, r6, r7, lr}
40002840:	e12fff1e 	bx	lr
40002844:	e28d1004 	add	r1, sp, #4
40002848:	e1a00002 	mov	r0, r2
4000284c:	ebffffc0 	bl	40002754 <_ZL12read_sleb128PKhPl>
40002850:	eaffffee 	b	40002810 <_ZL28read_encoded_value_with_basehjPKhPj+0x78>
40002854:	e5d23000 	ldrb	r3, [r2]
40002858:	e5d22001 	ldrb	r2, [r2, #1]
4000285c:	e1833402 	orr	r3, r3, r2, lsl #8
40002860:	e2870002 	add	r0, r7, #2
40002864:	eaffffea 	b	40002814 <_ZL28read_encoded_value_with_basehjPKhPj+0x7c>
40002868:	e5d23000 	ldrb	r3, [r2]
4000286c:	e5d22001 	ldrb	r2, [r2, #1]
40002870:	e1833402 	orr	r3, r3, r2, lsl #8
40002874:	e1a03803 	lsl	r3, r3, #16
40002878:	e1a03843 	asr	r3, r3, #16
4000287c:	eafffff7 	b	40002860 <_ZL28read_encoded_value_with_basehjPKhPj+0xc8>
40002880:	e5d23000 	ldrb	r3, [r2]
40002884:	e5d22001 	ldrb	r2, [r2, #1]
40002888:	e1833402 	orr	r3, r3, r2, lsl #8
4000288c:	e5d72002 	ldrb	r2, [r7, #2]
40002890:	e1833802 	orr	r3, r3, r2, lsl #16
40002894:	e5d72003 	ldrb	r2, [r7, #3]
40002898:	e2870004 	add	r0, r7, #4
4000289c:	e1833c02 	orr	r3, r3, r2, lsl #24
400028a0:	eaffffdb 	b	40002814 <_ZL28read_encoded_value_with_basehjPKhPj+0x7c>
400028a4:	e5d23000 	ldrb	r3, [r2]
400028a8:	e5d22001 	ldrb	r2, [r2, #1]
400028ac:	e1833402 	orr	r3, r3, r2, lsl #8
400028b0:	e5d72002 	ldrb	r2, [r7, #2]
400028b4:	e1833802 	orr	r3, r3, r2, lsl #16
400028b8:	e5d72003 	ldrb	r2, [r7, #3]
400028bc:	e2870008 	add	r0, r7, #8
400028c0:	e1833c02 	orr	r3, r3, r2, lsl #24
400028c4:	eaffffd2 	b	40002814 <_ZL28read_encoded_value_with_basehjPKhPj+0x7c>
400028c8:	eb002139 	bl	4000adb4 <abort>

Disassembly of section .text._ZL21base_of_encoded_valuehP15_Unwind_Context:

400028cc <_ZL21base_of_encoded_valuehP15_Unwind_Context>:
400028cc:	e35000ff 	cmp	r0, #255	; 0xff
400028d0:	0a00001a 	beq	40002940 <_ZL21base_of_encoded_valuehP15_Unwind_Context+0x74>
400028d4:	e1a03000 	mov	r3, r0
400028d8:	e2033070 	and	r3, r3, #112	; 0x70
400028dc:	e3530020 	cmp	r3, #32
400028e0:	e92d4010 	push	{r4, lr}
400028e4:	e1a00001 	mov	r0, r1
400028e8:	0a00000d 	beq	40002924 <_ZL21base_of_encoded_valuehP15_Unwind_Context+0x58>
400028ec:	8a000005 	bhi	40002908 <_ZL21base_of_encoded_valuehP15_Unwind_Context+0x3c>
400028f0:	e3530000 	cmp	r3, #0
400028f4:	0a000001 	beq	40002900 <_ZL21base_of_encoded_valuehP15_Unwind_Context+0x34>
400028f8:	e3530010 	cmp	r3, #16
400028fc:	1a000007 	bne	40002920 <_ZL21base_of_encoded_valuehP15_Unwind_Context+0x54>
40002900:	e3a00000 	mov	r0, #0
40002904:	ea000007 	b	40002928 <_ZL21base_of_encoded_valuehP15_Unwind_Context+0x5c>
40002908:	e3530040 	cmp	r3, #64	; 0x40
4000290c:	0a000009 	beq	40002938 <_ZL21base_of_encoded_valuehP15_Unwind_Context+0x6c>
40002910:	e3530050 	cmp	r3, #80	; 0x50
40002914:	0afffff9 	beq	40002900 <_ZL21base_of_encoded_valuehP15_Unwind_Context+0x34>
40002918:	e3530030 	cmp	r3, #48	; 0x30
4000291c:	0a000003 	beq	40002930 <_ZL21base_of_encoded_valuehP15_Unwind_Context+0x64>
40002920:	eb002123 	bl	4000adb4 <abort>
40002924:	eb00211e 	bl	4000ada4 <_Unwind_GetTextRelBase>
40002928:	e8bd4010 	pop	{r4, lr}
4000292c:	e12fff1e 	bx	lr
40002930:	eb00211d 	bl	4000adac <_Unwind_GetDataRelBase>
40002934:	eafffffb 	b	40002928 <_ZL21base_of_encoded_valuehP15_Unwind_Context+0x5c>
40002938:	eb00210c 	bl	4000ad70 <_Unwind_GetRegionStart>
4000293c:	eafffff9 	b	40002928 <_ZL21base_of_encoded_valuehP15_Unwind_Context+0x5c>
40002940:	e3a00000 	mov	r0, #0
40002944:	e12fff1e 	bx	lr

Disassembly of section .text._ZL18read_encoded_valueP15_Unwind_ContexthPKhPj:

40002948 <_ZL18read_encoded_valueP15_Unwind_ContexthPKhPj>:
40002948:	e92d4070 	push	{r4, r5, r6, lr}
4000294c:	e1a04001 	mov	r4, r1
40002950:	e1a01000 	mov	r1, r0
40002954:	e1a00004 	mov	r0, r4
40002958:	e1a05002 	mov	r5, r2
4000295c:	e1a06003 	mov	r6, r3
40002960:	ebffffd9 	bl	400028cc <_ZL21base_of_encoded_valuehP15_Unwind_Context>
40002964:	e1a03006 	mov	r3, r6
40002968:	e1a02005 	mov	r2, r5
4000296c:	e1a01000 	mov	r1, r0
40002970:	e1a00004 	mov	r0, r4
40002974:	e8bd4070 	pop	{r4, r5, r6, lr}
40002978:	eaffff86 	b	40002798 <_ZL28read_encoded_value_with_basehjPKhPj>

Disassembly of section .text._ZL17parse_lsda_headerP15_Unwind_ContextPKhP16lsda_header_info:

4000297c <_ZL17parse_lsda_headerP15_Unwind_ContextPKhP16lsda_header_info>:
4000297c:	e92d4073 	push	{r0, r1, r4, r5, r6, lr}
40002980:	e2505000 	subs	r5, r0, #0
40002984:	e1a06001 	mov	r6, r1
40002988:	e1a04002 	mov	r4, r2
4000298c:	01a00005 	moveq	r0, r5
40002990:	1b0020f6 	blne	4000ad70 <_Unwind_GetRegionStart>
40002994:	e5840000 	str	r0, [r4]
40002998:	e5d61000 	ldrb	r1, [r6]
4000299c:	e35100ff 	cmp	r1, #255	; 0xff
400029a0:	e2862001 	add	r2, r6, #1
400029a4:	05840004 	streq	r0, [r4, #4]
400029a8:	0a000003 	beq	400029bc <_ZL17parse_lsda_headerP15_Unwind_ContextPKhP16lsda_header_info+0x40>
400029ac:	e2843004 	add	r3, r4, #4
400029b0:	e1a00005 	mov	r0, r5
400029b4:	ebffffe3 	bl	40002948 <_ZL18read_encoded_valueP15_Unwind_ContexthPKhPj>
400029b8:	e1a02000 	mov	r2, r0
400029bc:	e5d23000 	ldrb	r3, [r2]
400029c0:	e35300ff 	cmp	r3, #255	; 0xff
400029c4:	e5c43014 	strb	r3, [r4, #20]
400029c8:	e2820001 	add	r0, r2, #1
400029cc:	03a03000 	moveq	r3, #0
400029d0:	0a000005 	beq	400029ec <_ZL17parse_lsda_headerP15_Unwind_ContextPKhP16lsda_header_info+0x70>
400029d4:	e3a03010 	mov	r3, #16
400029d8:	e28d1004 	add	r1, sp, #4
400029dc:	e5c43014 	strb	r3, [r4, #20]
400029e0:	ebffff4e 	bl	40002720 <_ZL12read_uleb128PKhPm>
400029e4:	e59d3004 	ldr	r3, [sp, #4]
400029e8:	e0803003 	add	r3, r0, r3
400029ec:	e584300c 	str	r3, [r4, #12]
400029f0:	e5d03000 	ldrb	r3, [r0]
400029f4:	e28d1004 	add	r1, sp, #4
400029f8:	e5c43015 	strb	r3, [r4, #21]
400029fc:	e2800001 	add	r0, r0, #1
40002a00:	ebffff46 	bl	40002720 <_ZL12read_uleb128PKhPm>
40002a04:	e59d3004 	ldr	r3, [sp, #4]
40002a08:	e0803003 	add	r3, r0, r3
40002a0c:	e5843010 	str	r3, [r4, #16]
40002a10:	e28dd008 	add	sp, sp, #8
40002a14:	e8bd4070 	pop	{r4, r5, r6, lr}
40002a18:	e12fff1e 	bx	lr

Disassembly of section .text._Unwind_GetGR:

40002a1c <_Unwind_GetGR>:
40002a1c:	e92d401f 	push	{r0, r1, r2, r3, r4, lr}
40002a20:	e28d300c 	add	r3, sp, #12
40002a24:	e58d3000 	str	r3, [sp]
40002a28:	e3a03000 	mov	r3, #0
40002a2c:	e1a02001 	mov	r2, r1
40002a30:	e1a01003 	mov	r1, r3
40002a34:	eb001d87 	bl	4000a058 <_Unwind_VRS_Get>
40002a38:	e59d000c 	ldr	r0, [sp, #12]
40002a3c:	e28dd014 	add	sp, sp, #20
40002a40:	e49de004 	pop	{lr}		; (ldr lr, [sp], #4)
40002a44:	e12fff1e 	bx	lr

40002a48 <_Unwind_GetGR>:
40002a48:	e92d401f 	push	{r0, r1, r2, r3, r4, lr}
40002a4c:	e28d300c 	add	r3, sp, #12
40002a50:	e58d3000 	str	r3, [sp]
40002a54:	e3a03000 	mov	r3, #0
40002a58:	e1a02001 	mov	r2, r1
40002a5c:	e1a01003 	mov	r1, r3
40002a60:	eb001d7c 	bl	4000a058 <_Unwind_VRS_Get>
40002a64:	e59d000c 	ldr	r0, [sp, #12]
40002a68:	e28dd014 	add	sp, sp, #20
40002a6c:	e49de004 	pop	{lr}		; (ldr lr, [sp], #4)
40002a70:	e12fff1e 	bx	lr

Disassembly of section .text.__gxx_personality_v0:

40002a74 <__gxx_personality_v0>:
40002a74:	e3a03000 	mov	r3, #0
40002a78:	e92d4ff0 	push	{r4, r5, r6, r7, r8, r9, sl, fp, lr}
40002a7c:	e24dd044 	sub	sp, sp, #68	; 0x44
40002a80:	e58d3010 	str	r3, [sp, #16]
40002a84:	e2003003 	and	r3, r0, #3
40002a88:	e3530001 	cmp	r3, #1
40002a8c:	e1a05000 	mov	r5, r0
40002a90:	e1a04001 	mov	r4, r1
40002a94:	e1a06002 	mov	r6, r2
40002a98:	0a00000f 	beq	40002adc <__gxx_personality_v0+0x68>
40002a9c:	3a000002 	bcc	40002aac <__gxx_personality_v0+0x38>
40002aa0:	e3530002 	cmp	r3, #2
40002aa4:	0a000003 	beq	40002ab8 <__gxx_personality_v0+0x44>
40002aa8:	eb0020c1 	bl	4000adb4 <abort>
40002aac:	e3100008 	tst	r0, #8
40002ab0:	03a03001 	moveq	r3, #1
40002ab4:	0a000012 	beq	40002b04 <__gxx_personality_v0+0x90>
40002ab8:	e1a01006 	mov	r1, r6
40002abc:	e1a00004 	mov	r0, r4
40002ac0:	eb002098 	bl	4000ad28 <__gnu_unwind_frame>
40002ac4:	e3500000 	cmp	r0, #0
40002ac8:	13a00009 	movne	r0, #9
40002acc:	03a00008 	moveq	r0, #8
40002ad0:	e28dd044 	add	sp, sp, #68	; 0x44
40002ad4:	e8bd4ff0 	pop	{r4, r5, r6, r7, r8, r9, sl, fp, lr}
40002ad8:	e12fff1e 	bx	lr
40002adc:	e2107008 	ands	r7, r0, #8
40002ae0:	13a03002 	movne	r3, #2
40002ae4:	1a000006 	bne	40002b04 <__gxx_personality_v0+0x90>
40002ae8:	e5918020 	ldr	r8, [r1, #32]
40002aec:	e1a00002 	mov	r0, r2
40002af0:	e3a0100d 	mov	r1, #13
40002af4:	ebffffc8 	bl	40002a1c <_Unwind_GetGR>
40002af8:	e1580000 	cmp	r8, r0
40002afc:	1a0000b9 	bne	40002de8 <__gxx_personality_v0+0x374>
40002b00:	e3a03006 	mov	r3, #6
40002b04:	e2055008 	and	r5, r5, #8
40002b08:	e1855003 	orr	r5, r5, r3
40002b0c:	e28d3040 	add	r3, sp, #64	; 0x40
40002b10:	e523402c 	str	r4, [r3, #-44]!	; 0xffffffd4
40002b14:	e58d3000 	str	r3, [sp]
40002b18:	e3a03000 	mov	r3, #0
40002b1c:	e3a0200c 	mov	r2, #12
40002b20:	e1a01003 	mov	r1, r3
40002b24:	e1a00006 	mov	r0, r6
40002b28:	eb001d61 	bl	4000a0b4 <_Unwind_VRS_Set>
40002b2c:	e3550006 	cmp	r5, #6
40002b30:	1a0000b5 	bne	40002e0c <__gxx_personality_v0+0x398>
40002b34:	e284102c 	add	r1, r4, #44	; 0x2c
40002b38:	e8910082 	ldm	r1, {r1, r7}
40002b3c:	e3570000 	cmp	r7, #0
40002b40:	03a0a001 	moveq	sl, #1
40002b44:	13a0a003 	movne	sl, #3
40002b48:	e5948028 	ldr	r8, [r4, #40]	; 0x28
40002b4c:	e2155008 	ands	r5, r5, #8
40002b50:	0a00006a 	beq	40002d00 <__gxx_personality_v0+0x28c>
40002b54:	e35a0001 	cmp	sl, #1
40002b58:	1a000063 	bne	40002cec <__gxx_personality_v0+0x278>
40002b5c:	eb000511 	bl	40003fa8 <_ZSt9terminatev>
40002b60:	e5d43007 	ldrb	r3, [r4, #7]
40002b64:	e3530001 	cmp	r3, #1
40002b68:	05143020 	ldreq	r3, [r4, #-32]	; 0xffffffe0
40002b6c:	12843058 	addne	r3, r4, #88	; 0x58
40002b70:	e58d3010 	str	r3, [sp, #16]
40002b74:	ea0000f5 	b	40002f50 <__gxx_personality_v0+0x4dc>
40002b78:	e3a03002 	mov	r3, #2
40002b7c:	e0020293 	mul	r2, r3, r2
40002b80:	e59d1034 	ldr	r1, [sp, #52]	; 0x34
40002b84:	e28d3024 	add	r3, sp, #36	; 0x24
40002b88:	e0412002 	sub	r2, r1, r2
40002b8c:	e59d1030 	ldr	r1, [sp, #48]	; 0x30
40002b90:	ebffff00 	bl	40002798 <_ZL28read_encoded_value_with_basehjPKhPj>
40002b94:	e59d1024 	ldr	r1, [sp, #36]	; 0x24
40002b98:	e3510000 	cmp	r1, #0
40002b9c:	0a000007 	beq	40002bc0 <__gxx_personality_v0+0x14c>
40002ba0:	e3540000 	cmp	r4, #0
40002ba4:	0a000041 	beq	40002cb0 <__gxx_personality_v0+0x23c>
40002ba8:	e28d3010 	add	r3, sp, #16
40002bac:	e3a02000 	mov	r2, #0
40002bb0:	e1a00004 	mov	r0, r4
40002bb4:	eb0002fd 	bl	400037b0 <__cxa_type_match>
40002bb8:	e3500000 	cmp	r0, #0
40002bbc:	0a00003b 	beq	40002cb0 <__gxx_personality_v0+0x23c>
40002bc0:	e3a0a003 	mov	sl, #3
40002bc4:	e59d801c 	ldr	r8, [sp, #28]
40002bc8:	e3150001 	tst	r5, #1
40002bcc:	0a000044 	beq	40002ce4 <__gxx_personality_v0+0x270>
40002bd0:	e35a0002 	cmp	sl, #2
40002bd4:	0affffb7 	beq	40002ab8 <__gxx_personality_v0+0x44>
40002bd8:	e3a0100d 	mov	r1, #13
40002bdc:	e1a00006 	mov	r0, r6
40002be0:	e59d5010 	ldr	r5, [sp, #16]
40002be4:	ebffff8c 	bl	40002a1c <_Unwind_GetGR>
40002be8:	e5845024 	str	r5, [r4, #36]	; 0x24
40002bec:	e5840020 	str	r0, [r4, #32]
40002bf0:	e5848028 	str	r8, [r4, #40]	; 0x28
40002bf4:	e584902c 	str	r9, [r4, #44]	; 0x2c
40002bf8:	e5847030 	str	r7, [r4, #48]	; 0x30
40002bfc:	e3a00006 	mov	r0, #6
40002c00:	eaffffb2 	b	40002ad0 <__gxx_personality_v0+0x5c>
40002c04:	e3a03008 	mov	r3, #8
40002c08:	eaffffdb 	b	40002b7c <__gxx_personality_v0+0x108>
40002c0c:	e3a03000 	mov	r3, #0
40002c10:	eaffffd9 	b	40002b7c <__gxx_personality_v0+0x108>
40002c14:	e3a03004 	mov	r3, #4
40002c18:	eaffffd7 	b	40002b7c <__gxx_personality_v0+0x108>
40002c1c:	e59d8008 	ldr	r8, [sp, #8]
40002c20:	e2788001 	rsbs	r8, r8, #1
40002c24:	33a08000 	movcc	r8, #0
40002c28:	e3540000 	cmp	r4, #0
40002c2c:	03a08000 	moveq	r8, #0
40002c30:	e3580000 	cmp	r8, #0
40002c34:	e59da034 	ldr	sl, [sp, #52]	; 0x34
40002c38:	e2822001 	add	r2, r2, #1
40002c3c:	0a000014 	beq	40002c94 <__gxx_personality_v0+0x220>
40002c40:	e59d3010 	ldr	r3, [sp, #16]
40002c44:	e58d3018 	str	r3, [sp, #24]
40002c48:	e3e03003 	mvn	r3, #3
40002c4c:	e1a02102 	lsl	r2, r2, #2
40002c50:	e0433002 	sub	r3, r3, r2
40002c54:	e08aa003 	add	sl, sl, r3
40002c58:	e5ba1004 	ldr	r1, [sl, #4]!
40002c5c:	e3510000 	cmp	r1, #0
40002c60:	0a000009 	beq	40002c8c <__gxx_personality_v0+0x218>
40002c64:	e28d3018 	add	r3, sp, #24
40002c68:	e3a02000 	mov	r2, #0
40002c6c:	e081100a 	add	r1, r1, sl
40002c70:	e1a00004 	mov	r0, r4
40002c74:	eb0002cd 	bl	400037b0 <__cxa_type_match>
40002c78:	e3500000 	cmp	r0, #0
40002c7c:	0afffff5 	beq	40002c58 <__gxx_personality_v0+0x1e4>
40002c80:	e2288001 	eor	r8, r8, #1
40002c84:	e3580000 	cmp	r8, #0
40002c88:	eaffffcb 	b	40002bbc <__gxx_personality_v0+0x148>
40002c8c:	e1a08001 	mov	r8, r1
40002c90:	eafffffa 	b	40002c80 <__gxx_personality_v0+0x20c>
40002c94:	e3e03003 	mvn	r3, #3
40002c98:	e0020293 	mul	r2, r3, r2
40002c9c:	e79a8002 	ldr	r8, [sl, r2]
40002ca0:	e2788001 	rsbs	r8, r8, #1
40002ca4:	33a08000 	movcc	r8, #0
40002ca8:	eafffff5 	b	40002c84 <__gxx_personality_v0+0x210>
40002cac:	e3a0b001 	mov	fp, #1
40002cb0:	e59d8020 	ldr	r8, [sp, #32]
40002cb4:	e3580000 	cmp	r8, #0
40002cb8:	159d300c 	ldrne	r3, [sp, #12]
40002cbc:	10838008 	addne	r8, r3, r8
40002cc0:	1a0000a3 	bne	40002f54 <__gxx_personality_v0+0x4e0>
40002cc4:	e35b0000 	cmp	fp, #0
40002cc8:	0affff7a 	beq	40002ab8 <__gxx_personality_v0+0x44>
40002ccc:	e3a0a002 	mov	sl, #2
40002cd0:	eaffffbc 	b	40002bc8 <__gxx_personality_v0+0x154>
40002cd4:	e3a08000 	mov	r8, #0
40002cd8:	e3a0a001 	mov	sl, #1
40002cdc:	e1a07008 	mov	r7, r8
40002ce0:	eaffffb8 	b	40002bc8 <__gxx_personality_v0+0x154>
40002ce4:	e1a01009 	mov	r1, r9
40002ce8:	eaffff97 	b	40002b4c <__gxx_personality_v0+0xd8>
40002cec:	e3580000 	cmp	r8, #0
40002cf0:	aa00001a 	bge	40002d60 <__gxx_personality_v0+0x2ec>
40002cf4:	eb0004b4 	bl	40003fcc <_ZSt10unexpectedv>
40002cf8:	eb0003c0 	bl	40003c00 <__cxa_begin_catch>
40002cfc:	eaffff96 	b	40002b5c <__gxx_personality_v0+0xe8>
40002d00:	e35a0001 	cmp	sl, #1
40002d04:	01a00004 	moveq	r0, r4
40002d08:	0b00043a 	bleq	40003df8 <__cxa_call_terminate>
40002d0c:	e3580000 	cmp	r8, #0
40002d10:	aa000012 	bge	40002d60 <__gxx_personality_v0+0x2ec>
40002d14:	e28d2028 	add	r2, sp, #40	; 0x28
40002d18:	e1a00006 	mov	r0, r6
40002d1c:	ebffff16 	bl	4000297c <_ZL17parse_lsda_headerP15_Unwind_ContextPKhP16lsda_header_info>
40002d20:	e1a01006 	mov	r1, r6
40002d24:	e5dd003c 	ldrb	r0, [sp, #60]	; 0x3c
40002d28:	ebfffee7 	bl	400028cc <_ZL21base_of_encoded_valuehP15_Unwind_Context>
40002d2c:	e59d2034 	ldr	r2, [sp, #52]	; 0x34
40002d30:	e2883001 	add	r3, r8, #1
40002d34:	e58d0030 	str	r0, [sp, #48]	; 0x30
40002d38:	e0423103 	sub	r3, r2, r3, lsl #2
40002d3c:	e7932105 	ldr	r2, [r3, r5, lsl #2]
40002d40:	e3520000 	cmp	r2, #0
40002d44:	12855001 	addne	r5, r5, #1
40002d48:	1afffffb 	bne	40002d3c <__gxx_personality_v0+0x2c8>
40002d4c:	e3a02004 	mov	r2, #4
40002d50:	e5845028 	str	r5, [r4, #40]	; 0x28
40002d54:	e584002c 	str	r0, [r4, #44]	; 0x2c
40002d58:	e5842030 	str	r2, [r4, #48]	; 0x30
40002d5c:	e5843034 	str	r3, [r4, #52]	; 0x34
40002d60:	e28d3040 	add	r3, sp, #64	; 0x40
40002d64:	e523401c 	str	r4, [r3, #-28]!	; 0xffffffe4
40002d68:	e58d3000 	str	r3, [sp]
40002d6c:	e3a03000 	mov	r3, #0
40002d70:	e1a00006 	mov	r0, r6
40002d74:	e1a02003 	mov	r2, r3
40002d78:	e1a01003 	mov	r1, r3
40002d7c:	eb001ccc 	bl	4000a0b4 <_Unwind_VRS_Set>
40002d80:	e28d3040 	add	r3, sp, #64	; 0x40
40002d84:	e5238020 	str	r8, [r3, #-32]!	; 0xffffffe0
40002d88:	e58d3000 	str	r3, [sp]
40002d8c:	e3a03000 	mov	r3, #0
40002d90:	e3a02001 	mov	r2, #1
40002d94:	e1a01003 	mov	r1, r3
40002d98:	e1a00006 	mov	r0, r6
40002d9c:	eb001cc4 	bl	4000a0b4 <_Unwind_VRS_Set>
40002da0:	e3a0100f 	mov	r1, #15
40002da4:	e1a00006 	mov	r0, r6
40002da8:	ebffff1b 	bl	40002a1c <_Unwind_GetGR>
40002dac:	e2000001 	and	r0, r0, #1
40002db0:	e28d3040 	add	r3, sp, #64	; 0x40
40002db4:	e1807007 	orr	r7, r0, r7
40002db8:	e5237024 	str	r7, [r3, #-36]!	; 0xffffffdc
40002dbc:	e58d3000 	str	r3, [sp]
40002dc0:	e3a03000 	mov	r3, #0
40002dc4:	e3a0200f 	mov	r2, #15
40002dc8:	e1a01003 	mov	r1, r3
40002dcc:	e1a00006 	mov	r0, r6
40002dd0:	eb001cb7 	bl	4000a0b4 <_Unwind_VRS_Set>
40002dd4:	e35a0002 	cmp	sl, #2
40002dd8:	01a00004 	moveq	r0, r4
40002ddc:	0b0002c6 	bleq	400038fc <__cxa_begin_cleanup>
40002de0:	e3a00007 	mov	r0, #7
40002de4:	eaffff39 	b	40002ad0 <__gxx_personality_v0+0x5c>
40002de8:	e28d2040 	add	r2, sp, #64	; 0x40
40002dec:	e522402c 	str	r4, [r2, #-44]!	; 0xffffffd4
40002df0:	e1a03007 	mov	r3, r7
40002df4:	e58d2000 	str	r2, [sp]
40002df8:	e1a01007 	mov	r1, r7
40002dfc:	e3a0200c 	mov	r2, #12
40002e00:	e1a00006 	mov	r0, r6
40002e04:	e3a05002 	mov	r5, #2
40002e08:	eb001ca9 	bl	4000a0b4 <_Unwind_VRS_Set>
40002e0c:	e1a00006 	mov	r0, r6
40002e10:	eb001fdb 	bl	4000ad84 <_Unwind_GetLanguageSpecificData>
40002e14:	e2509000 	subs	r9, r0, #0
40002e18:	0affff26 	beq	40002ab8 <__gxx_personality_v0+0x44>
40002e1c:	e28d2028 	add	r2, sp, #40	; 0x28
40002e20:	e1a01009 	mov	r1, r9
40002e24:	e1a00006 	mov	r0, r6
40002e28:	ebfffed3 	bl	4000297c <_ZL17parse_lsda_headerP15_Unwind_ContextPKhP16lsda_header_info>
40002e2c:	e1a01006 	mov	r1, r6
40002e30:	e1a08000 	mov	r8, r0
40002e34:	e5dd003c 	ldrb	r0, [sp, #60]	; 0x3c
40002e38:	ebfffea3 	bl	400028cc <_ZL21base_of_encoded_valuehP15_Unwind_Context>
40002e3c:	e3a0100f 	mov	r1, #15
40002e40:	e58d0030 	str	r0, [sp, #48]	; 0x30
40002e44:	e1a00006 	mov	r0, r6
40002e48:	ebfffef3 	bl	40002a1c <_Unwind_GetGR>
40002e4c:	e3c00001 	bic	r0, r0, #1
40002e50:	e2407001 	sub	r7, r0, #1
40002e54:	e59d3038 	ldr	r3, [sp, #56]	; 0x38
40002e58:	e1580003 	cmp	r8, r3
40002e5c:	2affff9c 	bcs	40002cd4 <__gxx_personality_v0+0x260>
40002e60:	e1a02008 	mov	r2, r8
40002e64:	e28d3018 	add	r3, sp, #24
40002e68:	e5dd103d 	ldrb	r1, [sp, #61]	; 0x3d
40002e6c:	e3a00000 	mov	r0, #0
40002e70:	ebfffeb4 	bl	40002948 <_ZL18read_encoded_valueP15_Unwind_ContexthPKhPj>
40002e74:	e28d301c 	add	r3, sp, #28
40002e78:	e1a02000 	mov	r2, r0
40002e7c:	e5dd103d 	ldrb	r1, [sp, #61]	; 0x3d
40002e80:	e3a00000 	mov	r0, #0
40002e84:	ebfffeaf 	bl	40002948 <_ZL18read_encoded_valueP15_Unwind_ContexthPKhPj>
40002e88:	e28d3020 	add	r3, sp, #32
40002e8c:	e1a02000 	mov	r2, r0
40002e90:	e5dd103d 	ldrb	r1, [sp, #61]	; 0x3d
40002e94:	e3a00000 	mov	r0, #0
40002e98:	ebfffeaa 	bl	40002948 <_ZL18read_encoded_valueP15_Unwind_ContexthPKhPj>
40002e9c:	e28d1024 	add	r1, sp, #36	; 0x24
40002ea0:	ebfffe1e 	bl	40002720 <_ZL12read_uleb128PKhPm>
40002ea4:	e59d2018 	ldr	r2, [sp, #24]
40002ea8:	e59d3028 	ldr	r3, [sp, #40]	; 0x28
40002eac:	e0833002 	add	r3, r3, r2
40002eb0:	e1570003 	cmp	r7, r3
40002eb4:	e1a08000 	mov	r8, r0
40002eb8:	359d8038 	ldrcc	r8, [sp, #56]	; 0x38
40002ebc:	3affffe4 	bcc	40002e54 <__gxx_personality_v0+0x3e0>
40002ec0:	e59d201c 	ldr	r2, [sp, #28]
40002ec4:	e0833002 	add	r3, r3, r2
40002ec8:	e1570003 	cmp	r7, r3
40002ecc:	2affffe0 	bcs	40002e54 <__gxx_personality_v0+0x3e0>
40002ed0:	e59d7020 	ldr	r7, [sp, #32]
40002ed4:	e3570000 	cmp	r7, #0
40002ed8:	e59d8024 	ldr	r8, [sp, #36]	; 0x24
40002edc:	159d302c 	ldrne	r3, [sp, #44]	; 0x2c
40002ee0:	10877003 	addne	r7, r7, r3
40002ee4:	e3580000 	cmp	r8, #0
40002ee8:	12480001 	subne	r0, r8, #1
40002eec:	159d8038 	ldrne	r8, [sp, #56]	; 0x38
40002ef0:	10888000 	addne	r8, r8, r0
40002ef4:	e3570000 	cmp	r7, #0
40002ef8:	0afffeee 	beq	40002ab8 <__gxx_personality_v0+0x44>
40002efc:	e3580000 	cmp	r8, #0
40002f00:	0affff71 	beq	40002ccc <__gxx_personality_v0+0x258>
40002f04:	e2153008 	ands	r3, r5, #8
40002f08:	e58d3008 	str	r3, [sp, #8]
40002f0c:	0affff13 	beq	40002b60 <__gxx_personality_v0+0xec>
40002f10:	e3a03047 	mov	r3, #71	; 0x47
40002f14:	e5c43000 	strb	r3, [r4]
40002f18:	e3a0304e 	mov	r3, #78	; 0x4e
40002f1c:	e5c43001 	strb	r3, [r4, #1]
40002f20:	e3a03055 	mov	r3, #85	; 0x55
40002f24:	e5c43002 	strb	r3, [r4, #2]
40002f28:	e3a03043 	mov	r3, #67	; 0x43
40002f2c:	e5c43003 	strb	r3, [r4, #3]
40002f30:	e3a03046 	mov	r3, #70	; 0x46
40002f34:	e5c43004 	strb	r3, [r4, #4]
40002f38:	e3a0304f 	mov	r3, #79	; 0x4f
40002f3c:	e5c43005 	strb	r3, [r4, #5]
40002f40:	e3a03052 	mov	r3, #82	; 0x52
40002f44:	e5c43006 	strb	r3, [r4, #6]
40002f48:	e3a03000 	mov	r3, #0
40002f4c:	e5c43007 	strb	r3, [r4, #7]
40002f50:	e3a0b000 	mov	fp, #0
40002f54:	e28d101c 	add	r1, sp, #28
40002f58:	e1a00008 	mov	r0, r8
40002f5c:	ebfffdfc 	bl	40002754 <_ZL12read_sleb128PKhPl>
40002f60:	e28d1020 	add	r1, sp, #32
40002f64:	e58d000c 	str	r0, [sp, #12]
40002f68:	ebfffdf9 	bl	40002754 <_ZL12read_sleb128PKhPl>
40002f6c:	e59d201c 	ldr	r2, [sp, #28]
40002f70:	e3520000 	cmp	r2, #0
40002f74:	0affff4c 	beq	40002cac <__gxx_personality_v0+0x238>
40002f78:	daffff27 	ble	40002c1c <__gxx_personality_v0+0x1a8>
40002f7c:	e5dd003c 	ldrb	r0, [sp, #60]	; 0x3c
40002f80:	e35000ff 	cmp	r0, #255	; 0xff
40002f84:	0affff20 	beq	40002c0c <__gxx_personality_v0+0x198>
40002f88:	e2003007 	and	r3, r0, #7
40002f8c:	e3530004 	cmp	r3, #4
40002f90:	979ff103 	ldrls	pc, [pc, r3, lsl #2]
40002f94:	eafffec3 	b	40002aa8 <__gxx_personality_v0+0x34>
40002f98:	40002c14 	.word	0x40002c14
40002f9c:	40002aa8 	.word	0x40002aa8
40002fa0:	40002b78 	.word	0x40002b78
40002fa4:	40002c14 	.word	0x40002c14
40002fa8:	40002c04 	.word	0x40002c04

Disassembly of section .text._ZN12_GLOBAL__N_14pool4freeEPv.constprop.4:

40002fac <_ZN12_GLOBAL__N_14pool4freeEPv.constprop.4>:
40002fac:	e59f3090 	ldr	r3, [pc, #144]	; 40003044 <_ZN12_GLOBAL__N_14pool4freeEPv.constprop.4+0x98>
40002fb0:	e5931004 	ldr	r1, [r3, #4]
40002fb4:	e3510000 	cmp	r1, #0
40002fb8:	e2402008 	sub	r2, r0, #8
40002fbc:	e510c008 	ldr	ip, [r0, #-8]
40002fc0:	1a000002 	bne	40002fd0 <_ZN12_GLOBAL__N_14pool4freeEPv.constprop.4+0x24>
40002fc4:	e5001004 	str	r1, [r0, #-4]
40002fc8:	e5832004 	str	r2, [r3, #4]
40002fcc:	e12fff1e 	bx	lr
40002fd0:	e92d4030 	push	{r4, r5, lr}
40002fd4:	e082400c 	add	r4, r2, ip
40002fd8:	e1510004 	cmp	r1, r4
40002fdc:	12833004 	addne	r3, r3, #4
40002fe0:	1a000007 	bne	40003004 <_ZN12_GLOBAL__N_14pool4freeEPv.constprop.4+0x58>
40002fe4:	e591e000 	ldr	lr, [r1]
40002fe8:	e5911004 	ldr	r1, [r1, #4]
40002fec:	e08ec00c 	add	ip, lr, ip
40002ff0:	e500c008 	str	ip, [r0, #-8]
40002ff4:	e5001004 	str	r1, [r0, #-4]
40002ff8:	e5832004 	str	r2, [r3, #4]
40002ffc:	e8bd4030 	pop	{r4, r5, lr}
40003000:	e12fff1e 	bx	lr
40003004:	e5931000 	ldr	r1, [r3]
40003008:	e591e004 	ldr	lr, [r1, #4]
4000300c:	e35e0000 	cmp	lr, #0
40003010:	0a000002 	beq	40003020 <_ZN12_GLOBAL__N_14pool4freeEPv.constprop.4+0x74>
40003014:	e154000e 	cmp	r4, lr
40003018:	32813004 	addcc	r3, r1, #4
4000301c:	3afffff8 	bcc	40003004 <_ZN12_GLOBAL__N_14pool4freeEPv.constprop.4+0x58>
40003020:	e5914000 	ldr	r4, [r1]
40003024:	e0815004 	add	r5, r1, r4
40003028:	e1520005 	cmp	r2, r5
4000302c:	008cc004 	addeq	ip, ip, r4
40003030:	0581c000 	streq	ip, [r1]
40003034:	0afffff0 	beq	40002ffc <_ZN12_GLOBAL__N_14pool4freeEPv.constprop.4+0x50>
40003038:	e500e004 	str	lr, [r0, #-4]
4000303c:	e5933000 	ldr	r3, [r3]
40003040:	eaffffec 	b	40002ff8 <_ZN12_GLOBAL__N_14pool4freeEPv.constprop.4+0x4c>
40003044:	4011a528 	.word	0x4011a528

Disassembly of section .text._ZN12_GLOBAL__N_14pool8allocateEj.constprop.5:

40003048 <_ZN12_GLOBAL__N_14pool8allocateEj.constprop.5>:
40003048:	e2800008 	add	r0, r0, #8
4000304c:	e3500008 	cmp	r0, #8
40003050:	21a03000 	movcs	r3, r0
40003054:	33a03008 	movcc	r3, #8
40003058:	e59f206c 	ldr	r2, [pc, #108]	; 400030cc <_ZN12_GLOBAL__N_14pool8allocateEj.constprop.5+0x84>
4000305c:	e2833007 	add	r3, r3, #7
40003060:	e5b20004 	ldr	r0, [r2, #4]!
40003064:	e3c33007 	bic	r3, r3, #7
40003068:	e3500000 	cmp	r0, #0
4000306c:	012fff1e 	bxeq	lr
40003070:	e5901000 	ldr	r1, [r0]
40003074:	e1530001 	cmp	r3, r1
40003078:	9a00000c 	bls	400030b0 <_ZN12_GLOBAL__N_14pool8allocateEj.constprop.5+0x68>
4000307c:	e2802004 	add	r2, r0, #4
40003080:	e5900004 	ldr	r0, [r0, #4]
40003084:	eafffff7 	b	40003068 <_ZN12_GLOBAL__N_14pool8allocateEj.constprop.5+0x20>
40003088:	e52de004 	push	{lr}		; (str lr, [sp, #-4]!)
4000308c:	e080e003 	add	lr, r0, r3
40003090:	e58ec004 	str	ip, [lr, #4]
40003094:	e7801003 	str	r1, [r0, r3]
40003098:	e5920000 	ldr	r0, [r2]
4000309c:	e5803000 	str	r3, [r0]
400030a0:	e582e000 	str	lr, [r2]
400030a4:	e2800008 	add	r0, r0, #8
400030a8:	e49de004 	pop	{lr}		; (ldr lr, [sp], #4)
400030ac:	e12fff1e 	bx	lr
400030b0:	e0411003 	sub	r1, r1, r3
400030b4:	e3510007 	cmp	r1, #7
400030b8:	e590c004 	ldr	ip, [r0, #4]
400030bc:	8afffff1 	bhi	40003088 <_ZN12_GLOBAL__N_14pool8allocateEj.constprop.5+0x40>
400030c0:	e582c000 	str	ip, [r2]
400030c4:	e2800008 	add	r0, r0, #8
400030c8:	e12fff1e 	bx	lr
400030cc:	4011a528 	.word	0x4011a528

Disassembly of section .text._ZN9__gnu_cxx9__freeresEv:

400030d0 <_ZN9__gnu_cxx9__freeresEv>:
400030d0:	e92d4010 	push	{r4, lr}
400030d4:	e59f401c 	ldr	r4, [pc, #28]	; 400030f8 <_ZN9__gnu_cxx9__freeresEv+0x28>
400030d8:	e5940008 	ldr	r0, [r4, #8]
400030dc:	e3500000 	cmp	r0, #0
400030e0:	0a000002 	beq	400030f0 <_ZN9__gnu_cxx9__freeresEv+0x20>
400030e4:	eb002107 	bl	4000b508 <free>
400030e8:	e3a03000 	mov	r3, #0
400030ec:	e5843008 	str	r3, [r4, #8]
400030f0:	e8bd4010 	pop	{r4, lr}
400030f4:	e12fff1e 	bx	lr
400030f8:	4011a528 	.word	0x4011a528

Disassembly of section .text.__cxa_allocate_exception:

400030fc <__cxa_allocate_exception>:
400030fc:	e92d4070 	push	{r4, r5, r6, lr}
40003100:	e2805080 	add	r5, r0, #128	; 0x80
40003104:	e1a00005 	mov	r0, r5
40003108:	eb0020f6 	bl	4000b4e8 <malloc>
4000310c:	e2504000 	subs	r4, r0, #0
40003110:	1a000003 	bne	40003124 <__cxa_allocate_exception+0x28>
40003114:	e1a00005 	mov	r0, r5
40003118:	ebffffca 	bl	40003048 <_ZN12_GLOBAL__N_14pool8allocateEj.constprop.5>
4000311c:	e2504000 	subs	r4, r0, #0
40003120:	0b0003a0 	bleq	40003fa8 <_ZSt9terminatev>
40003124:	e1a00004 	mov	r0, r4
40003128:	e3a02080 	mov	r2, #128	; 0x80
4000312c:	e3a01000 	mov	r1, #0
40003130:	eb0023f6 	bl	4000c110 <memset>
40003134:	e2840080 	add	r0, r4, #128	; 0x80
40003138:	e8bd4070 	pop	{r4, r5, r6, lr}
4000313c:	e12fff1e 	bx	lr

Disassembly of section .text.__cxa_free_exception:

40003140 <__cxa_free_exception>:
40003140:	e59f2030 	ldr	r2, [pc, #48]	; 40003178 <__cxa_free_exception+0x38>
40003144:	e5923008 	ldr	r3, [r2, #8]
40003148:	e2400080 	sub	r0, r0, #128	; 0x80
4000314c:	e1500003 	cmp	r0, r3
40003150:	9a000003 	bls	40003164 <__cxa_free_exception+0x24>
40003154:	e592200c 	ldr	r2, [r2, #12]
40003158:	e0833002 	add	r3, r3, r2
4000315c:	e1500003 	cmp	r0, r3
40003160:	3a000003 	bcc	40003174 <__cxa_free_exception+0x34>
40003164:	e92d4010 	push	{r4, lr}
40003168:	eb0020e6 	bl	4000b508 <free>
4000316c:	e8bd4010 	pop	{r4, lr}
40003170:	e12fff1e 	bx	lr
40003174:	eaffff8c 	b	40002fac <_ZN12_GLOBAL__N_14pool4freeEPv.constprop.4>
40003178:	4011a528 	.word	0x4011a528

Disassembly of section .text.__cxa_allocate_dependent_exception:

4000317c <__cxa_allocate_dependent_exception>:
4000317c:	e92d4010 	push	{r4, lr}
40003180:	e3a00078 	mov	r0, #120	; 0x78
40003184:	eb0020d7 	bl	4000b4e8 <malloc>
40003188:	e2504000 	subs	r4, r0, #0
4000318c:	1a000003 	bne	400031a0 <__cxa_allocate_dependent_exception+0x24>
40003190:	e3a00078 	mov	r0, #120	; 0x78
40003194:	ebffffab 	bl	40003048 <_ZN12_GLOBAL__N_14pool8allocateEj.constprop.5>
40003198:	e2504000 	subs	r4, r0, #0
4000319c:	0b000381 	bleq	40003fa8 <_ZSt9terminatev>
400031a0:	e1a00004 	mov	r0, r4
400031a4:	e3a02078 	mov	r2, #120	; 0x78
400031a8:	e3a01000 	mov	r1, #0
400031ac:	eb0023d7 	bl	4000c110 <memset>
400031b0:	e1a00004 	mov	r0, r4
400031b4:	e8bd4010 	pop	{r4, lr}
400031b8:	e12fff1e 	bx	lr

Disassembly of section .text.__cxa_free_dependent_exception:

400031bc <__cxa_free_dependent_exception>:
400031bc:	e59f1034 	ldr	r1, [pc, #52]	; 400031f8 <__cxa_free_dependent_exception+0x3c>
400031c0:	e5912008 	ldr	r2, [r1, #8]
400031c4:	e1500002 	cmp	r0, r2
400031c8:	e1a03000 	mov	r3, r0
400031cc:	9a000003 	bls	400031e0 <__cxa_free_dependent_exception+0x24>
400031d0:	e591100c 	ldr	r1, [r1, #12]
400031d4:	e0822001 	add	r2, r2, r1
400031d8:	e1500002 	cmp	r0, r2
400031dc:	3a000004 	bcc	400031f4 <__cxa_free_dependent_exception+0x38>
400031e0:	e92d4010 	push	{r4, lr}
400031e4:	e1a00003 	mov	r0, r3
400031e8:	eb0020c6 	bl	4000b508 <free>
400031ec:	e8bd4010 	pop	{r4, lr}
400031f0:	e12fff1e 	bx	lr
400031f4:	eaffff6c 	b	40002fac <_ZN12_GLOBAL__N_14pool4freeEPv.constprop.4>
400031f8:	4011a528 	.word	0x4011a528

Disassembly of section .text.startup._GLOBAL__sub_I__ZN9__gnu_cxx9__freeresEv:

400031fc <_GLOBAL__sub_I__ZN9__gnu_cxx9__freeresEv>:
400031fc:	e92d4070 	push	{r4, r5, r6, lr}
40003200:	e3a05e9e 	mov	r5, #2528	; 0x9e0
40003204:	e59f4030 	ldr	r4, [pc, #48]	; 4000323c <_GLOBAL__sub_I__ZN9__gnu_cxx9__freeresEv+0x40>
40003208:	e1a00005 	mov	r0, r5
4000320c:	e584500c 	str	r5, [r4, #12]
40003210:	eb0020b4 	bl	4000b4e8 <malloc>
40003214:	e3500000 	cmp	r0, #0
40003218:	13a03000 	movne	r3, #0
4000321c:	e5840008 	str	r0, [r4, #8]
40003220:	0584000c 	streq	r0, [r4, #12]
40003224:	05840004 	streq	r0, [r4, #4]
40003228:	15840004 	strne	r0, [r4, #4]
4000322c:	15805000 	strne	r5, [r0]
40003230:	15803004 	strne	r3, [r0, #4]
40003234:	e8bd4070 	pop	{r4, r5, r6, lr}
40003238:	e12fff1e 	bx	lr
4000323c:	4011a528 	.word	0x4011a528

Disassembly of section .text._Znwj:

40003240 <_Znwj>:
40003240:	e3500000 	cmp	r0, #0
40003244:	e92d4010 	push	{r4, lr}
40003248:	11a04000 	movne	r4, r0
4000324c:	03a04001 	moveq	r4, #1
40003250:	e1a00004 	mov	r0, r4
40003254:	eb0020a3 	bl	4000b4e8 <malloc>
40003258:	e3500000 	cmp	r0, #0
4000325c:	1a00000c 	bne	40003294 <_Znwj+0x54>
40003260:	eb0001f9 	bl	40003a4c <_ZSt15get_new_handlerv>
40003264:	e3500000 	cmp	r0, #0
40003268:	1a000006 	bne	40003288 <_Znwj+0x48>
4000326c:	e3a00004 	mov	r0, #4
40003270:	ebffffa1 	bl	400030fc <__cxa_allocate_exception>
40003274:	e59f3020 	ldr	r3, [pc, #32]	; 4000329c <_Znwj+0x5c>
40003278:	e59f2020 	ldr	r2, [pc, #32]	; 400032a0 <_Znwj+0x60>
4000327c:	e5803000 	str	r3, [r0]
40003280:	e59f101c 	ldr	r1, [pc, #28]	; 400032a4 <_Znwj+0x64>
40003284:	eb000015 	bl	400032e0 <__cxa_throw>
40003288:	e1a0e00f 	mov	lr, pc
4000328c:	e12fff10 	bx	r0
40003290:	eaffffee 	b	40003250 <_Znwj+0x10>
40003294:	e8bd4010 	pop	{r4, lr}
40003298:	e12fff1e 	bx	lr
4000329c:	40017fc8 	.word	0x40017fc8
400032a0:	40003438 	.word	0x40003438
400032a4:	40017fa4 	.word	0x40017fa4

Disassembly of section .text._ZL23__gxx_exception_cleanup19_Unwind_Reason_CodeP21_Unwind_Control_Block:

400032a8 <_ZL23__gxx_exception_cleanup19_Unwind_Reason_CodeP21_Unwind_Control_Block>:
400032a8:	e3500001 	cmp	r0, #1
400032ac:	e92d4010 	push	{r4, lr}
400032b0:	85110014 	ldrhi	r0, [r1, #-20]	; 0xffffffec
400032b4:	8b00032e 	blhi	40003f74 <_ZN10__cxxabiv111__terminateEPFvvE>
400032b8:	e511301c 	ldr	r3, [r1, #-28]	; 0xffffffe4
400032bc:	e3530000 	cmp	r3, #0
400032c0:	e2814058 	add	r4, r1, #88	; 0x58
400032c4:	11a00004 	movne	r0, r4
400032c8:	11a0e00f 	movne	lr, pc
400032cc:	112fff13 	bxne	r3
400032d0:	e1a00004 	mov	r0, r4
400032d4:	ebffff99 	bl	40003140 <__cxa_free_exception>
400032d8:	e8bd4010 	pop	{r4, lr}
400032dc:	e12fff1e 	bx	lr

Disassembly of section .text.__cxa_throw:

400032e0 <__cxa_throw>:
400032e0:	e92d4070 	push	{r4, r5, r6, lr}
400032e4:	e1a04000 	mov	r4, r0
400032e8:	e1a05002 	mov	r5, r2
400032ec:	e1a06001 	mov	r6, r1
400032f0:	eb0001b2 	bl	400039c0 <__cxa_get_globals>
400032f4:	e5903004 	ldr	r3, [r0, #4]
400032f8:	e2833001 	add	r3, r3, #1
400032fc:	e5803004 	str	r3, [r0, #4]
40003300:	e3a03001 	mov	r3, #1
40003304:	e5045074 	str	r5, [r4, #-116]	; 0xffffff8c
40003308:	e5043080 	str	r3, [r4, #-128]	; 0xffffff80
4000330c:	e5046078 	str	r6, [r4, #-120]	; 0xffffff88
40003310:	eb000342 	bl	40004020 <_ZSt14get_unexpectedv>
40003314:	e5040070 	str	r0, [r4, #-112]	; 0xffffff90
40003318:	eb000336 	bl	40003ff8 <_ZSt13get_terminatev>
4000331c:	e3a03047 	mov	r3, #71	; 0x47
40003320:	e5443058 	strb	r3, [r4, #-88]	; 0xffffffa8
40003324:	e3a0304e 	mov	r3, #78	; 0x4e
40003328:	e5443057 	strb	r3, [r4, #-87]	; 0xffffffa9
4000332c:	e3a03055 	mov	r3, #85	; 0x55
40003330:	e5443056 	strb	r3, [r4, #-86]	; 0xffffffaa
40003334:	e3a03043 	mov	r3, #67	; 0x43
40003338:	e5443055 	strb	r3, [r4, #-85]	; 0xffffffab
4000333c:	e5443054 	strb	r3, [r4, #-84]	; 0xffffffac
40003340:	e3a0302b 	mov	r3, #43	; 0x2b
40003344:	e5443053 	strb	r3, [r4, #-83]	; 0xffffffad
40003348:	e5443052 	strb	r3, [r4, #-82]	; 0xffffffae
4000334c:	e3a03000 	mov	r3, #0
40003350:	e5443051 	strb	r3, [r4, #-81]	; 0xffffffaf
40003354:	e59f301c 	ldr	r3, [pc, #28]	; 40003378 <__cxa_throw+0x98>
40003358:	e2445058 	sub	r5, r4, #88	; 0x58
4000335c:	e504006c 	str	r0, [r4, #-108]	; 0xffffff94
40003360:	e5043050 	str	r3, [r4, #-80]	; 0xffffffb0
40003364:	e1a00005 	mov	r0, r5
40003368:	ebfff89f 	bl	400015ec <_Unwind_RaiseException>
4000336c:	e1a00005 	mov	r0, r5
40003370:	eb000222 	bl	40003c00 <__cxa_begin_catch>
40003374:	eb00030b 	bl	40003fa8 <_ZSt9terminatev>
40003378:	400032a8 	.word	0x400032a8

Disassembly of section .text.__cxa_rethrow:

4000337c <__cxa_rethrow>:
4000337c:	e92d4010 	push	{r4, lr}
40003380:	eb00018e 	bl	400039c0 <__cxa_get_globals>
40003384:	e5902004 	ldr	r2, [r0, #4]
40003388:	e5903000 	ldr	r3, [r0]
4000338c:	e2822001 	add	r2, r2, #1
40003390:	e3530000 	cmp	r3, #0
40003394:	e5802004 	str	r2, [r0, #4]
40003398:	0a00001f 	beq	4000341c <__cxa_rethrow+0xa0>
4000339c:	e5d32020 	ldrb	r2, [r3, #32]
400033a0:	e3520047 	cmp	r2, #71	; 0x47
400033a4:	1a00001d 	bne	40003420 <__cxa_rethrow+0xa4>
400033a8:	e5d32021 	ldrb	r2, [r3, #33]	; 0x21
400033ac:	e352004e 	cmp	r2, #78	; 0x4e
400033b0:	1a00001a 	bne	40003420 <__cxa_rethrow+0xa4>
400033b4:	e5d32022 	ldrb	r2, [r3, #34]	; 0x22
400033b8:	e3520055 	cmp	r2, #85	; 0x55
400033bc:	1a000017 	bne	40003420 <__cxa_rethrow+0xa4>
400033c0:	e5d32023 	ldrb	r2, [r3, #35]	; 0x23
400033c4:	e3520043 	cmp	r2, #67	; 0x43
400033c8:	1a000014 	bne	40003420 <__cxa_rethrow+0xa4>
400033cc:	e5d32024 	ldrb	r2, [r3, #36]	; 0x24
400033d0:	e3520043 	cmp	r2, #67	; 0x43
400033d4:	1a000011 	bne	40003420 <__cxa_rethrow+0xa4>
400033d8:	e5d32025 	ldrb	r2, [r3, #37]	; 0x25
400033dc:	e352002b 	cmp	r2, #43	; 0x2b
400033e0:	1a00000e 	bne	40003420 <__cxa_rethrow+0xa4>
400033e4:	e5d32026 	ldrb	r2, [r3, #38]	; 0x26
400033e8:	e352002b 	cmp	r2, #43	; 0x2b
400033ec:	1a00000b 	bne	40003420 <__cxa_rethrow+0xa4>
400033f0:	e5d32027 	ldrb	r2, [r3, #39]	; 0x27
400033f4:	e3520001 	cmp	r2, #1
400033f8:	8a000008 	bhi	40003420 <__cxa_rethrow+0xa4>
400033fc:	e5932014 	ldr	r2, [r3, #20]
40003400:	e2622000 	rsb	r2, r2, #0
40003404:	e5832014 	str	r2, [r3, #20]
40003408:	e2834020 	add	r4, r3, #32
4000340c:	e1a00004 	mov	r0, r4
40003410:	ebfff887 	bl	40001634 <_Unwind_Resume_or_Rethrow>
40003414:	e1a00004 	mov	r0, r4
40003418:	eb0001f8 	bl	40003c00 <__cxa_begin_catch>
4000341c:	eb0002e1 	bl	40003fa8 <_ZSt9terminatev>
40003420:	e3a02000 	mov	r2, #0
40003424:	e5802000 	str	r2, [r0]
40003428:	eafffff6 	b	40003408 <__cxa_rethrow+0x8c>

Disassembly of section .text._ZNKSt9bad_alloc4whatEv:

4000342c <_ZNKSt9bad_alloc4whatEv>:
4000342c:	e59f0000 	ldr	r0, [pc]	; 40003434 <_ZNKSt9bad_alloc4whatEv+0x8>
40003430:	e12fff1e 	bx	lr
40003434:	40017f94 	.word	0x40017f94

Disassembly of section .text._ZNSt9bad_allocD2Ev:

40003438 <_ZNSt9bad_allocD1Ev>:
40003438:	e92d4010 	push	{r4, lr}
4000343c:	e1a04000 	mov	r4, r0
40003440:	e59f3010 	ldr	r3, [pc, #16]	; 40003458 <_ZNSt9bad_allocD1Ev+0x20>
40003444:	e5803000 	str	r3, [r0]
40003448:	eb0002f8 	bl	40004030 <_ZNSt9exceptionD1Ev>
4000344c:	e1a00004 	mov	r0, r4
40003450:	e8bd4010 	pop	{r4, lr}
40003454:	e12fff1e 	bx	lr
40003458:	40017fc8 	.word	0x40017fc8

Disassembly of section .text._ZNSt9bad_allocD0Ev:

4000345c <_ZNSt9bad_allocD0Ev>:
4000345c:	e92d4010 	push	{r4, lr}
40003460:	e1a04000 	mov	r4, r0
40003464:	ebfffff3 	bl	40003438 <_ZNSt9bad_allocD1Ev>
40003468:	e1a00004 	mov	r0, r4
4000346c:	e3a01004 	mov	r1, #4
40003470:	eb000159 	bl	400039dc <_ZdlPvj>
40003474:	e1a00004 	mov	r0, r4
40003478:	e8bd4010 	pop	{r4, lr}
4000347c:	e12fff1e 	bx	lr

Disassembly of section .text._ZN10__cxxabiv120__si_class_type_infoD2Ev:

40003480 <_ZN10__cxxabiv120__si_class_type_infoD1Ev>:
40003480:	e92d4010 	push	{r4, lr}
40003484:	e1a04000 	mov	r4, r0
40003488:	e59f3010 	ldr	r3, [pc, #16]	; 400034a0 <_ZN10__cxxabiv120__si_class_type_infoD1Ev+0x20>
4000348c:	e5803000 	str	r3, [r0]
40003490:	eb00018e 	bl	40003ad0 <_ZN10__cxxabiv117__class_type_infoD1Ev>
40003494:	e1a00004 	mov	r0, r4
40003498:	e8bd4010 	pop	{r4, lr}
4000349c:	e12fff1e 	bx	lr
400034a0:	40018010 	.word	0x40018010

Disassembly of section .text._ZN10__cxxabiv120__si_class_type_infoD0Ev:

400034a4 <_ZN10__cxxabiv120__si_class_type_infoD0Ev>:
400034a4:	e92d4010 	push	{r4, lr}
400034a8:	e1a04000 	mov	r4, r0
400034ac:	ebfffff3 	bl	40003480 <_ZN10__cxxabiv120__si_class_type_infoD1Ev>
400034b0:	e1a00004 	mov	r0, r4
400034b4:	e3a0100c 	mov	r1, #12
400034b8:	eb000147 	bl	400039dc <_ZdlPvj>
400034bc:	e1a00004 	mov	r0, r4
400034c0:	e8bd4010 	pop	{r4, lr}
400034c4:	e12fff1e 	bx	lr

Disassembly of section .text._ZNK10__cxxabiv120__si_class_type_info20__do_find_public_srcEiPKvPKNS_17__class_type_infoES2_:

400034c8 <_ZNK10__cxxabiv120__si_class_type_info20__do_find_public_srcEiPKvPKNS_17__class_type_infoES2_>:
400034c8:	e92d41f0 	push	{r4, r5, r6, r7, r8, lr}
400034cc:	e59d6018 	ldr	r6, [sp, #24]
400034d0:	e1560002 	cmp	r6, r2
400034d4:	e1a08000 	mov	r8, r0
400034d8:	e1a07001 	mov	r7, r1
400034dc:	e1a04002 	mov	r4, r2
400034e0:	e1a05003 	mov	r5, r3
400034e4:	1a000003 	bne	400034f8 <_ZNK10__cxxabiv120__si_class_type_info20__do_find_public_srcEiPKvPKNS_17__class_type_infoES2_+0x30>
400034e8:	e1a01003 	mov	r1, r3
400034ec:	eb000303 	bl	40004100 <_ZNKSt9type_infoeqERKS_>
400034f0:	e3500000 	cmp	r0, #0
400034f4:	1a000009 	bne	40003520 <_ZNK10__cxxabiv120__si_class_type_info20__do_find_public_srcEiPKvPKNS_17__class_type_infoES2_+0x58>
400034f8:	e5980008 	ldr	r0, [r8, #8]
400034fc:	e5903000 	ldr	r3, [r0]
40003500:	e58d6018 	str	r6, [sp, #24]
40003504:	e593e020 	ldr	lr, [r3, #32]
40003508:	e1a02004 	mov	r2, r4
4000350c:	e1a03005 	mov	r3, r5
40003510:	e1a01007 	mov	r1, r7
40003514:	e1a0c00e 	mov	ip, lr
40003518:	e8bd41f0 	pop	{r4, r5, r6, r7, r8, lr}
4000351c:	e12fff1c 	bx	ip
40003520:	e3a00006 	mov	r0, #6
40003524:	e8bd41f0 	pop	{r4, r5, r6, r7, r8, lr}
40003528:	e12fff1e 	bx	lr

Disassembly of section .text._ZNK10__cxxabiv120__si_class_type_info12__do_dyncastEiNS_17__class_type_info10__sub_kindEPKS1_PKvS4_S6_RNS1_16__dyncast_resultE:

4000352c <_ZNK10__cxxabiv120__si_class_type_info12__do_dyncastEiNS_17__class_type_info10__sub_kindEPKS1_PKvS4_S6_RNS1_16__dyncast_resultE>:
4000352c:	e92d4ff7 	push	{r0, r1, r2, r4, r5, r6, r7, r8, r9, sl, fp, lr}
40003530:	e1a07001 	mov	r7, r1
40003534:	e28d4030 	add	r4, sp, #48	; 0x30
40003538:	e1a01003 	mov	r1, r3
4000353c:	e1a0b000 	mov	fp, r0
40003540:	e1a08002 	mov	r8, r2
40003544:	e58d3004 	str	r3, [sp, #4]
40003548:	e8940410 	ldm	r4, {r4, sl}
4000354c:	e59d9038 	ldr	r9, [sp, #56]	; 0x38
40003550:	e59d603c 	ldr	r6, [sp, #60]	; 0x3c
40003554:	eb0002e9 	bl	40004100 <_ZNKSt9type_infoeqERKS_>
40003558:	e2505000 	subs	r5, r0, #0
4000355c:	0a000011 	beq	400035a8 <_ZNK10__cxxabiv120__si_class_type_info12__do_dyncastEiNS_17__class_type_info10__sub_kindEPKS1_PKvS4_S6_RNS1_16__dyncast_resultE+0x7c>
40003560:	e3570000 	cmp	r7, #0
40003564:	e5864000 	str	r4, [r6]
40003568:	e5c68004 	strb	r8, [r6, #4]
4000356c:	ba000009 	blt	40003598 <_ZNK10__cxxabiv120__si_class_type_info12__do_dyncastEiNS_17__class_type_info10__sub_kindEPKS1_PKvS4_S6_RNS1_16__dyncast_resultE+0x6c>
40003570:	e0844007 	add	r4, r4, r7
40003574:	e1590004 	cmp	r9, r4
40003578:	03a04006 	moveq	r4, #6
4000357c:	13a04001 	movne	r4, #1
40003580:	e5c64006 	strb	r4, [r6, #6]
40003584:	e3a05000 	mov	r5, #0
40003588:	e1a00005 	mov	r0, r5
4000358c:	e28dd00c 	add	sp, sp, #12
40003590:	e8bd4ff0 	pop	{r4, r5, r6, r7, r8, r9, sl, fp, lr}
40003594:	e12fff1e 	bx	lr
40003598:	e3770002 	cmn	r7, #2
4000359c:	03a03001 	moveq	r3, #1
400035a0:	05c63006 	strbeq	r3, [r6, #6]
400035a4:	eafffff6 	b	40003584 <_ZNK10__cxxabiv120__si_class_type_info12__do_dyncastEiNS_17__class_type_info10__sub_kindEPKS1_PKvS4_S6_RNS1_16__dyncast_resultE+0x58>
400035a8:	e1540009 	cmp	r4, r9
400035ac:	1a000004 	bne	400035c4 <_ZNK10__cxxabiv120__si_class_type_info12__do_dyncastEiNS_17__class_type_info10__sub_kindEPKS1_PKvS4_S6_RNS1_16__dyncast_resultE+0x98>
400035b0:	e1a0100a 	mov	r1, sl
400035b4:	e1a0000b 	mov	r0, fp
400035b8:	eb0002d0 	bl	40004100 <_ZNKSt9type_infoeqERKS_>
400035bc:	e3500000 	cmp	r0, #0
400035c0:	1a00000d 	bne	400035fc <_ZNK10__cxxabiv120__si_class_type_info12__do_dyncastEiNS_17__class_type_info10__sub_kindEPKS1_PKvS4_S6_RNS1_16__dyncast_resultE+0xd0>
400035c4:	e59b0008 	ldr	r0, [fp, #8]
400035c8:	e5902000 	ldr	r2, [r0]
400035cc:	e58d603c 	str	r6, [sp, #60]	; 0x3c
400035d0:	e58d9038 	str	r9, [sp, #56]	; 0x38
400035d4:	e58da034 	str	sl, [sp, #52]	; 0x34
400035d8:	e58d4030 	str	r4, [sp, #48]	; 0x30
400035dc:	e592e01c 	ldr	lr, [r2, #28]
400035e0:	e1a01007 	mov	r1, r7
400035e4:	e1a02008 	mov	r2, r8
400035e8:	e1a0c00e 	mov	ip, lr
400035ec:	e59d3004 	ldr	r3, [sp, #4]
400035f0:	e28dd00c 	add	sp, sp, #12
400035f4:	e8bd4ff0 	pop	{r4, r5, r6, r7, r8, r9, sl, fp, lr}
400035f8:	e12fff1c 	bx	ip
400035fc:	e5c68005 	strb	r8, [r6, #5]
40003600:	eaffffe0 	b	40003588 <_ZNK10__cxxabiv120__si_class_type_info12__do_dyncastEiNS_17__class_type_info10__sub_kindEPKS1_PKvS4_S6_RNS1_16__dyncast_resultE+0x5c>

Disassembly of section .text._ZNK10__cxxabiv120__si_class_type_info11__do_upcastEPKNS_17__class_type_infoEPKvRNS1_15__upcast_resultE:

40003604 <_ZNK10__cxxabiv120__si_class_type_info11__do_upcastEPKNS_17__class_type_infoEPKvRNS1_15__upcast_resultE>:
40003604:	e92d41f0 	push	{r4, r5, r6, r7, r8, lr}
40003608:	e1a07000 	mov	r7, r0
4000360c:	e1a04001 	mov	r4, r1
40003610:	e1a05002 	mov	r5, r2
40003614:	e1a06003 	mov	r6, r3
40003618:	eb00013e 	bl	40003b18 <_ZNK10__cxxabiv117__class_type_info11__do_upcastEPKS0_PKvRNS0_15__upcast_resultE>
4000361c:	e3500000 	cmp	r0, #0
40003620:	1a000008 	bne	40003648 <_ZNK10__cxxabiv120__si_class_type_info11__do_upcastEPKNS_17__class_type_infoEPKvRNS1_15__upcast_resultE+0x44>
40003624:	e5970008 	ldr	r0, [r7, #8]
40003628:	e5903000 	ldr	r3, [r0]
4000362c:	e593e018 	ldr	lr, [r3, #24]
40003630:	e1a02005 	mov	r2, r5
40003634:	e1a03006 	mov	r3, r6
40003638:	e1a01004 	mov	r1, r4
4000363c:	e1a0c00e 	mov	ip, lr
40003640:	e8bd41f0 	pop	{r4, r5, r6, r7, r8, lr}
40003644:	e12fff1c 	bx	ip
40003648:	e8bd41f0 	pop	{r4, r5, r6, r7, r8, lr}
4000364c:	e12fff1e 	bx	lr

Disassembly of section .text.__cxa_end_cleanup:

40003650 <__cxa_end_cleanup>:
40003650:	e92d001e 	push	{r1, r2, r3, r4}
40003654:	eb0000c0 	bl	4000395c <__gnu_end_cleanup>
40003658:	e8bd001e 	pop	{r1, r2, r3, r4}
4000365c:	ebfff7eb 	bl	40001610 <_Unwind_Resume>

Disassembly of section .text._ZN10__cxxabiv1L24__is_gxx_exception_classEPc:

40003660 <_ZN10__cxxabiv1L24__is_gxx_exception_classEPc>:
40003660:	e5d03000 	ldrb	r3, [r0]
40003664:	e3530047 	cmp	r3, #71	; 0x47
40003668:	1a000016 	bne	400036c8 <_ZN10__cxxabiv1L24__is_gxx_exception_classEPc+0x68>
4000366c:	e5d03001 	ldrb	r3, [r0, #1]
40003670:	e353004e 	cmp	r3, #78	; 0x4e
40003674:	1a000013 	bne	400036c8 <_ZN10__cxxabiv1L24__is_gxx_exception_classEPc+0x68>
40003678:	e5d03002 	ldrb	r3, [r0, #2]
4000367c:	e3530055 	cmp	r3, #85	; 0x55
40003680:	1a000010 	bne	400036c8 <_ZN10__cxxabiv1L24__is_gxx_exception_classEPc+0x68>
40003684:	e5d03003 	ldrb	r3, [r0, #3]
40003688:	e3530043 	cmp	r3, #67	; 0x43
4000368c:	1a00000d 	bne	400036c8 <_ZN10__cxxabiv1L24__is_gxx_exception_classEPc+0x68>
40003690:	e5d03004 	ldrb	r3, [r0, #4]
40003694:	e3530043 	cmp	r3, #67	; 0x43
40003698:	1a00000a 	bne	400036c8 <_ZN10__cxxabiv1L24__is_gxx_exception_classEPc+0x68>
4000369c:	e5d03005 	ldrb	r3, [r0, #5]
400036a0:	e353002b 	cmp	r3, #43	; 0x2b
400036a4:	1a000007 	bne	400036c8 <_ZN10__cxxabiv1L24__is_gxx_exception_classEPc+0x68>
400036a8:	e5d03006 	ldrb	r3, [r0, #6]
400036ac:	e353002b 	cmp	r3, #43	; 0x2b
400036b0:	1a000004 	bne	400036c8 <_ZN10__cxxabiv1L24__is_gxx_exception_classEPc+0x68>
400036b4:	e5d00007 	ldrb	r0, [r0, #7]
400036b8:	e3500001 	cmp	r0, #1
400036bc:	83a00000 	movhi	r0, #0
400036c0:	93a00001 	movls	r0, #1
400036c4:	e12fff1e 	bx	lr
400036c8:	e3a00000 	mov	r0, #0
400036cc:	e12fff1e 	bx	lr

400036d0 <_ZN10__cxxabiv1L24__is_gxx_exception_classEPc>:
400036d0:	e5d03000 	ldrb	r3, [r0]
400036d4:	e3530047 	cmp	r3, #71	; 0x47
400036d8:	1a000016 	bne	40003738 <_ZN10__cxxabiv1L24__is_gxx_exception_classEPc+0x68>
400036dc:	e5d03001 	ldrb	r3, [r0, #1]
400036e0:	e353004e 	cmp	r3, #78	; 0x4e
400036e4:	1a000013 	bne	40003738 <_ZN10__cxxabiv1L24__is_gxx_exception_classEPc+0x68>
400036e8:	e5d03002 	ldrb	r3, [r0, #2]
400036ec:	e3530055 	cmp	r3, #85	; 0x55
400036f0:	1a000010 	bne	40003738 <_ZN10__cxxabiv1L24__is_gxx_exception_classEPc+0x68>
400036f4:	e5d03003 	ldrb	r3, [r0, #3]
400036f8:	e3530043 	cmp	r3, #67	; 0x43
400036fc:	1a00000d 	bne	40003738 <_ZN10__cxxabiv1L24__is_gxx_exception_classEPc+0x68>
40003700:	e5d03004 	ldrb	r3, [r0, #4]
40003704:	e3530043 	cmp	r3, #67	; 0x43
40003708:	1a00000a 	bne	40003738 <_ZN10__cxxabiv1L24__is_gxx_exception_classEPc+0x68>
4000370c:	e5d03005 	ldrb	r3, [r0, #5]
40003710:	e353002b 	cmp	r3, #43	; 0x2b
40003714:	1a000007 	bne	40003738 <_ZN10__cxxabiv1L24__is_gxx_exception_classEPc+0x68>
40003718:	e5d03006 	ldrb	r3, [r0, #6]
4000371c:	e353002b 	cmp	r3, #43	; 0x2b
40003720:	1a000004 	bne	40003738 <_ZN10__cxxabiv1L24__is_gxx_exception_classEPc+0x68>
40003724:	e5d00007 	ldrb	r0, [r0, #7]
40003728:	e3500001 	cmp	r0, #1
4000372c:	83a00000 	movhi	r0, #0
40003730:	93a00001 	movls	r0, #1
40003734:	e12fff1e 	bx	lr
40003738:	e3a00000 	mov	r0, #0
4000373c:	e12fff1e 	bx	lr

40003740 <_ZN10__cxxabiv1L24__is_gxx_exception_classEPc>:
40003740:	e5d03000 	ldrb	r3, [r0]
40003744:	e3530047 	cmp	r3, #71	; 0x47
40003748:	1a000016 	bne	400037a8 <_ZN10__cxxabiv1L24__is_gxx_exception_classEPc+0x68>
4000374c:	e5d03001 	ldrb	r3, [r0, #1]
40003750:	e353004e 	cmp	r3, #78	; 0x4e
40003754:	1a000013 	bne	400037a8 <_ZN10__cxxabiv1L24__is_gxx_exception_classEPc+0x68>
40003758:	e5d03002 	ldrb	r3, [r0, #2]
4000375c:	e3530055 	cmp	r3, #85	; 0x55
40003760:	1a000010 	bne	400037a8 <_ZN10__cxxabiv1L24__is_gxx_exception_classEPc+0x68>
40003764:	e5d03003 	ldrb	r3, [r0, #3]
40003768:	e3530043 	cmp	r3, #67	; 0x43
4000376c:	1a00000d 	bne	400037a8 <_ZN10__cxxabiv1L24__is_gxx_exception_classEPc+0x68>
40003770:	e5d03004 	ldrb	r3, [r0, #4]
40003774:	e3530043 	cmp	r3, #67	; 0x43
40003778:	1a00000a 	bne	400037a8 <_ZN10__cxxabiv1L24__is_gxx_exception_classEPc+0x68>
4000377c:	e5d03005 	ldrb	r3, [r0, #5]
40003780:	e353002b 	cmp	r3, #43	; 0x2b
40003784:	1a000007 	bne	400037a8 <_ZN10__cxxabiv1L24__is_gxx_exception_classEPc+0x68>
40003788:	e5d03006 	ldrb	r3, [r0, #6]
4000378c:	e353002b 	cmp	r3, #43	; 0x2b
40003790:	1a000004 	bne	400037a8 <_ZN10__cxxabiv1L24__is_gxx_exception_classEPc+0x68>
40003794:	e5d00007 	ldrb	r0, [r0, #7]
40003798:	e3500001 	cmp	r0, #1
4000379c:	83a00000 	movhi	r0, #0
400037a0:	93a00001 	movls	r0, #1
400037a4:	e12fff1e 	bx	lr
400037a8:	e3a00000 	mov	r0, #0
400037ac:	e12fff1e 	bx	lr

Disassembly of section .text.__cxa_type_match:

400037b0 <__cxa_type_match>:
400037b0:	e92d41f3 	push	{r0, r1, r4, r5, r6, r7, r8, lr}
400037b4:	e1a06003 	mov	r6, r3
400037b8:	e5d03000 	ldrb	r3, [r0]
400037bc:	e3530047 	cmp	r3, #71	; 0x47
400037c0:	e1a05001 	mov	r5, r1
400037c4:	e1a02000 	mov	r2, r0
400037c8:	e5d01007 	ldrb	r1, [r0, #7]
400037cc:	1a000042 	bne	400038dc <__cxa_type_match+0x12c>
400037d0:	e5d03001 	ldrb	r3, [r0, #1]
400037d4:	e353004e 	cmp	r3, #78	; 0x4e
400037d8:	1a00003f 	bne	400038dc <__cxa_type_match+0x12c>
400037dc:	e5d03002 	ldrb	r3, [r0, #2]
400037e0:	e3530055 	cmp	r3, #85	; 0x55
400037e4:	1a00003c 	bne	400038dc <__cxa_type_match+0x12c>
400037e8:	e5d03003 	ldrb	r3, [r0, #3]
400037ec:	e3530043 	cmp	r3, #67	; 0x43
400037f0:	1a000039 	bne	400038dc <__cxa_type_match+0x12c>
400037f4:	e5d03004 	ldrb	r3, [r0, #4]
400037f8:	e3530046 	cmp	r3, #70	; 0x46
400037fc:	1a000036 	bne	400038dc <__cxa_type_match+0x12c>
40003800:	e5d03005 	ldrb	r3, [r0, #5]
40003804:	e353004f 	cmp	r3, #79	; 0x4f
40003808:	1a000033 	bne	400038dc <__cxa_type_match+0x12c>
4000380c:	e5d03006 	ldrb	r3, [r0, #6]
40003810:	e3530052 	cmp	r3, #82	; 0x52
40003814:	1a000030 	bne	400038dc <__cxa_type_match+0x12c>
40003818:	e3510000 	cmp	r1, #0
4000381c:	1a00002e 	bne	400038dc <__cxa_type_match+0x12c>
40003820:	e3a03001 	mov	r3, #1
40003824:	e1a00001 	mov	r0, r1
40003828:	e3a0c000 	mov	ip, #0
4000382c:	e153000c 	cmp	r3, ip
40003830:	e58dc004 	str	ip, [sp, #4]
40003834:	159f40b8 	ldrne	r4, [pc, #184]	; 400038f4 <__cxa_type_match+0x144>
40003838:	1a00000a 	bne	40003868 <__cxa_type_match+0xb8>
4000383c:	e150000c 	cmp	r0, ip
40003840:	1a000023 	bne	400038d4 <__cxa_type_match+0x124>
40003844:	e3510001 	cmp	r1, #1
40003848:	05123020 	ldreq	r3, [r2, #-32]	; 0xffffffe0
4000384c:	12423020 	subne	r3, r2, #32
40003850:	02433078 	subeq	r3, r3, #120	; 0x78
40003854:	e3510001 	cmp	r1, #1
40003858:	05122020 	ldreq	r2, [r2, #-32]	; 0xffffffe0
4000385c:	12822058 	addne	r2, r2, #88	; 0x58
40003860:	e5934000 	ldr	r4, [r3]
40003864:	e58d2004 	str	r2, [sp, #4]
40003868:	e5943000 	ldr	r3, [r4]
4000386c:	e1a00004 	mov	r0, r4
40003870:	e5933008 	ldr	r3, [r3, #8]
40003874:	e1a0e00f 	mov	lr, pc
40003878:	e12fff13 	bx	r3
4000387c:	e3500000 	cmp	r0, #0
40003880:	159d3004 	ldrne	r3, [sp, #4]
40003884:	15933000 	ldrne	r3, [r3]
40003888:	158d3004 	strne	r3, [sp, #4]
4000388c:	e5953000 	ldr	r3, [r5]
40003890:	e28d2004 	add	r2, sp, #4
40003894:	e5938010 	ldr	r8, [r3, #16]
40003898:	e1a01004 	mov	r1, r4
4000389c:	e3a03001 	mov	r3, #1
400038a0:	e1a00005 	mov	r0, r5
400038a4:	03a07001 	moveq	r7, #1
400038a8:	13a07002 	movne	r7, #2
400038ac:	e1a0e00f 	mov	lr, pc
400038b0:	e12fff18 	bx	r8
400038b4:	e3500000 	cmp	r0, #0
400038b8:	01a07000 	moveq	r7, r0
400038bc:	e1a00007 	mov	r0, r7
400038c0:	159d3004 	ldrne	r3, [sp, #4]
400038c4:	15863000 	strne	r3, [r6]
400038c8:	e28dd008 	add	sp, sp, #8
400038cc:	e8bd41f0 	pop	{r4, r5, r6, r7, r8, lr}
400038d0:	e12fff1e 	bx	lr
400038d4:	e59f401c 	ldr	r4, [pc, #28]	; 400038f8 <__cxa_type_match+0x148>
400038d8:	eaffffe2 	b	40003868 <__cxa_type_match+0xb8>
400038dc:	e1a00002 	mov	r0, r2
400038e0:	ebffff5e 	bl	40003660 <_ZN10__cxxabiv1L24__is_gxx_exception_classEPc>
400038e4:	e2200001 	eor	r0, r0, #1
400038e8:	e20000ff 	and	r0, r0, #255	; 0xff
400038ec:	e3a03000 	mov	r3, #0
400038f0:	eaffffcc 	b	40003828 <__cxa_type_match+0x78>
400038f4:	40018638 	.word	0x40018638
400038f8:	40018640 	.word	0x40018640

Disassembly of section .text.__cxa_begin_cleanup:

400038fc <__cxa_begin_cleanup>:
400038fc:	e92d4010 	push	{r4, lr}
40003900:	e1a04000 	mov	r4, r0
40003904:	eb00002d 	bl	400039c0 <__cxa_get_globals>
40003908:	e1a02000 	mov	r2, r0
4000390c:	e1a00004 	mov	r0, r4
40003910:	e2441020 	sub	r1, r4, #32
40003914:	ebffff51 	bl	40003660 <_ZN10__cxxabiv1L24__is_gxx_exception_classEPc>
40003918:	e3500000 	cmp	r0, #0
4000391c:	0a000009 	beq	40003948 <__cxa_begin_cleanup+0x4c>
40003920:	e5143004 	ldr	r3, [r4, #-4]
40003924:	e2833001 	add	r3, r3, #1
40003928:	e3530001 	cmp	r3, #1
4000392c:	e5043004 	str	r3, [r4, #-4]
40003930:	05923008 	ldreq	r3, [r2, #8]
40003934:	05043008 	streq	r3, [r4, #-8]
40003938:	0a000005 	beq	40003954 <__cxa_begin_cleanup+0x58>
4000393c:	e3a00001 	mov	r0, #1
40003940:	e8bd4010 	pop	{r4, lr}
40003944:	e12fff1e 	bx	lr
40003948:	e5923008 	ldr	r3, [r2, #8]
4000394c:	e3530000 	cmp	r3, #0
40003950:	1b000194 	blne	40003fa8 <_ZSt9terminatev>
40003954:	e5821008 	str	r1, [r2, #8]
40003958:	eafffff7 	b	4000393c <__cxa_begin_cleanup+0x40>

Disassembly of section .text.__gnu_end_cleanup:

4000395c <__gnu_end_cleanup>:
4000395c:	e92d4010 	push	{r4, lr}
40003960:	eb000016 	bl	400039c0 <__cxa_get_globals>
40003964:	e5902008 	ldr	r2, [r0, #8]
40003968:	e3520000 	cmp	r2, #0
4000396c:	0b00018d 	bleq	40003fa8 <_ZSt9terminatev>
40003970:	e2824020 	add	r4, r2, #32
40003974:	e1a01000 	mov	r1, r0
40003978:	e1a00004 	mov	r0, r4
4000397c:	ebffff37 	bl	40003660 <_ZN10__cxxabiv1L24__is_gxx_exception_classEPc>
40003980:	e3500000 	cmp	r0, #0
40003984:	05810008 	streq	r0, [r1, #8]
40003988:	0a000006 	beq	400039a8 <__gnu_end_cleanup+0x4c>
4000398c:	e592301c 	ldr	r3, [r2, #28]
40003990:	e2433001 	sub	r3, r3, #1
40003994:	e3530000 	cmp	r3, #0
40003998:	05920018 	ldreq	r0, [r2, #24]
4000399c:	e582301c 	str	r3, [r2, #28]
400039a0:	05810008 	streq	r0, [r1, #8]
400039a4:	05823018 	streq	r3, [r2, #24]
400039a8:	e1a00004 	mov	r0, r4
400039ac:	e8bd4010 	pop	{r4, lr}
400039b0:	e12fff1e 	bx	lr

Disassembly of section .text.__cxa_get_globals_fast:

400039b4 <__cxa_get_globals_fast>:
400039b4:	e59f0000 	ldr	r0, [pc]	; 400039bc <__cxa_get_globals_fast+0x8>
400039b8:	e12fff1e 	bx	lr
400039bc:	4011a538 	.word	0x4011a538

Disassembly of section .text.__cxa_get_globals:

400039c0 <__cxa_get_globals>:
400039c0:	e59f0000 	ldr	r0, [pc]	; 400039c8 <__cxa_get_globals+0x8>
400039c4:	e12fff1e 	bx	lr
400039c8:	4011a538 	.word	0x4011a538

Disassembly of section .text._ZdlPv:

400039cc <_ZdlPv>:
400039cc:	e92d4010 	push	{r4, lr}
400039d0:	eb001ecc 	bl	4000b508 <free>
400039d4:	e8bd4010 	pop	{r4, lr}
400039d8:	e12fff1e 	bx	lr

Disassembly of section .text._ZdlPvj:

400039dc <_ZdlPvj>:
400039dc:	e92d4010 	push	{r4, lr}
400039e0:	ebfffff9 	bl	400039cc <_ZdlPv>
400039e4:	e8bd4010 	pop	{r4, lr}
400039e8:	e12fff1e 	bx	lr

Disassembly of section .text._ZN10__cxxabiv123__fundamental_type_infoD2Ev:

400039ec <_ZN10__cxxabiv123__fundamental_type_infoD1Ev>:
400039ec:	e92d4010 	push	{r4, lr}
400039f0:	e1a04000 	mov	r4, r0
400039f4:	e59f3010 	ldr	r3, [pc, #16]	; 40003a0c <_ZN10__cxxabiv123__fundamental_type_infoD1Ev+0x20>
400039f8:	e5803000 	str	r3, [r0]
400039fc:	eb0001b3 	bl	400040d0 <_ZNSt9type_infoD1Ev>
40003a00:	e1a00004 	mov	r0, r4
40003a04:	e8bd4010 	pop	{r4, lr}
40003a08:	e12fff1e 	bx	lr
40003a0c:	400184ec 	.word	0x400184ec

Disassembly of section .text._ZN10__cxxabiv123__fundamental_type_infoD0Ev:

40003a10 <_ZN10__cxxabiv123__fundamental_type_infoD0Ev>:
40003a10:	e92d4010 	push	{r4, lr}
40003a14:	e1a04000 	mov	r4, r0
40003a18:	ebfffff3 	bl	400039ec <_ZN10__cxxabiv123__fundamental_type_infoD1Ev>
40003a1c:	e1a00004 	mov	r0, r4
40003a20:	e3a01008 	mov	r1, #8
40003a24:	ebffffec 	bl	400039dc <_ZdlPvj>
40003a28:	e1a00004 	mov	r0, r4
40003a2c:	e8bd4010 	pop	{r4, lr}
40003a30:	e12fff1e 	bx	lr

Disassembly of section .text._ZSt15set_new_handlerPFvvE:

40003a34 <_ZSt15set_new_handlerPFvvE>:
40003a34:	e59f300c 	ldr	r3, [pc, #12]	; 40003a48 <_ZSt15set_new_handlerPFvvE+0x14>
40003a38:	e5932000 	ldr	r2, [r3]
40003a3c:	e5830000 	str	r0, [r3]
40003a40:	e1a00002 	mov	r0, r2
40003a44:	e12fff1e 	bx	lr
40003a48:	4011a544 	.word	0x4011a544

Disassembly of section .text._ZSt15get_new_handlerv:

40003a4c <_ZSt15get_new_handlerv>:
40003a4c:	e59f3004 	ldr	r3, [pc, #4]	; 40003a58 <_ZSt15get_new_handlerv+0xc>
40003a50:	e5930000 	ldr	r0, [r3]
40003a54:	e12fff1e 	bx	lr
40003a58:	4011a544 	.word	0x4011a544

Disassembly of section .text._ZNK10__cxxabiv117__class_type_info11__do_upcastEPKS0_PPv:

40003a5c <_ZNK10__cxxabiv117__class_type_info11__do_upcastEPKS0_PPv>:
40003a5c:	e92d407f 	push	{r0, r1, r2, r3, r4, r5, r6, lr}
40003a60:	e3a03010 	mov	r3, #16
40003a64:	e3a04000 	mov	r4, #0
40003a68:	e58d3008 	str	r3, [sp, #8]
40003a6c:	e5903000 	ldr	r3, [r0]
40003a70:	e1a05002 	mov	r5, r2
40003a74:	e5936018 	ldr	r6, [r3, #24]
40003a78:	e58d4000 	str	r4, [sp]
40003a7c:	e1a0300d 	mov	r3, sp
40003a80:	e5cd4004 	strb	r4, [sp, #4]
40003a84:	e58d400c 	str	r4, [sp, #12]
40003a88:	e5922000 	ldr	r2, [r2]
40003a8c:	e1a0e00f 	mov	lr, pc
40003a90:	e12fff16 	bx	r6
40003a94:	e5dd3004 	ldrb	r3, [sp, #4]
40003a98:	e2033006 	and	r3, r3, #6
40003a9c:	e3530006 	cmp	r3, #6
40003aa0:	03a00001 	moveq	r0, #1
40003aa4:	11a00004 	movne	r0, r4
40003aa8:	059d3000 	ldreq	r3, [sp]
40003aac:	05853000 	streq	r3, [r5]
40003ab0:	e28dd010 	add	sp, sp, #16
40003ab4:	e8bd4070 	pop	{r4, r5, r6, lr}
40003ab8:	e12fff1e 	bx	lr

Disassembly of section .text._ZNK10__cxxabiv117__class_type_info20__do_find_public_srcEiPKvPKS0_S2_:

40003abc <_ZNK10__cxxabiv117__class_type_info20__do_find_public_srcEiPKvPKS0_S2_>:
40003abc:	e59d0000 	ldr	r0, [sp]
40003ac0:	e1500002 	cmp	r0, r2
40003ac4:	03a00006 	moveq	r0, #6
40003ac8:	13a00001 	movne	r0, #1
40003acc:	e12fff1e 	bx	lr

Disassembly of section .text._ZN10__cxxabiv117__class_type_infoD2Ev:

40003ad0 <_ZN10__cxxabiv117__class_type_infoD1Ev>:
40003ad0:	e92d4010 	push	{r4, lr}
40003ad4:	e1a04000 	mov	r4, r0
40003ad8:	e59f3010 	ldr	r3, [pc, #16]	; 40003af0 <_ZN10__cxxabiv117__class_type_infoD1Ev+0x20>
40003adc:	e5803000 	str	r3, [r0]
40003ae0:	eb00017a 	bl	400040d0 <_ZNSt9type_infoD1Ev>
40003ae4:	e1a00004 	mov	r0, r4
40003ae8:	e8bd4010 	pop	{r4, lr}
40003aec:	e12fff1e 	bx	lr
40003af0:	40018540 	.word	0x40018540

Disassembly of section .text._ZN10__cxxabiv117__class_type_infoD0Ev:

40003af4 <_ZN10__cxxabiv117__class_type_infoD0Ev>:
40003af4:	e92d4010 	push	{r4, lr}
40003af8:	e1a04000 	mov	r4, r0
40003afc:	ebfffff3 	bl	40003ad0 <_ZN10__cxxabiv117__class_type_infoD1Ev>
40003b00:	e1a00004 	mov	r0, r4
40003b04:	e3a01008 	mov	r1, #8
40003b08:	ebffffb3 	bl	400039dc <_ZdlPvj>
40003b0c:	e1a00004 	mov	r0, r4
40003b10:	e8bd4010 	pop	{r4, lr}
40003b14:	e12fff1e 	bx	lr

Disassembly of section .text._ZNK10__cxxabiv117__class_type_info11__do_upcastEPKS0_PKvRNS0_15__upcast_resultE:

40003b18 <_ZNK10__cxxabiv117__class_type_info11__do_upcastEPKS0_PKvRNS0_15__upcast_resultE>:
40003b18:	e92d4070 	push	{r4, r5, r6, lr}
40003b1c:	e1a04003 	mov	r4, r3
40003b20:	e1a05002 	mov	r5, r2
40003b24:	eb000175 	bl	40004100 <_ZNKSt9type_infoeqERKS_>
40003b28:	e3500000 	cmp	r0, #0
40003b2c:	13a03008 	movne	r3, #8
40003b30:	1584300c 	strne	r3, [r4, #12]
40003b34:	13a03006 	movne	r3, #6
40003b38:	15845000 	strne	r5, [r4]
40003b3c:	15c43004 	strbne	r3, [r4, #4]
40003b40:	e8bd4070 	pop	{r4, r5, r6, lr}
40003b44:	e12fff1e 	bx	lr

Disassembly of section .text._ZNK10__cxxabiv117__class_type_info10__do_catchEPKSt9type_infoPPvj:

40003b48 <_ZNK10__cxxabiv117__class_type_info10__do_catchEPKSt9type_infoPPvj>:
40003b48:	e92d41f0 	push	{r4, r5, r6, r7, r8, lr}
40003b4c:	e1a05000 	mov	r5, r0
40003b50:	e1a04001 	mov	r4, r1
40003b54:	e1a06002 	mov	r6, r2
40003b58:	e1a07003 	mov	r7, r3
40003b5c:	eb000167 	bl	40004100 <_ZNKSt9type_infoeqERKS_>
40003b60:	e3500000 	cmp	r0, #0
40003b64:	1a000008 	bne	40003b8c <_ZNK10__cxxabiv117__class_type_info10__do_catchEPKSt9type_infoPPvj+0x44>
40003b68:	e3570003 	cmp	r7, #3
40003b6c:	8a000006 	bhi	40003b8c <_ZNK10__cxxabiv117__class_type_info10__do_catchEPKSt9type_infoPPvj+0x44>
40003b70:	e5943000 	ldr	r3, [r4]
40003b74:	e1a02006 	mov	r2, r6
40003b78:	e1a01005 	mov	r1, r5
40003b7c:	e1a00004 	mov	r0, r4
40003b80:	e5933014 	ldr	r3, [r3, #20]
40003b84:	e8bd41f0 	pop	{r4, r5, r6, r7, r8, lr}
40003b88:	e12fff13 	bx	r3
40003b8c:	e8bd41f0 	pop	{r4, r5, r6, r7, r8, lr}
40003b90:	e12fff1e 	bx	lr

Disassembly of section .text._ZNK10__cxxabiv117__class_type_info12__do_dyncastEiNS0_10__sub_kindEPKS0_PKvS3_S5_RNS0_16__dyncast_resultE:

40003b94 <_ZNK10__cxxabiv117__class_type_info12__do_dyncastEiNS0_10__sub_kindEPKS0_PKvS3_S5_RNS0_16__dyncast_resultE>:
40003b94:	e92d41f0 	push	{r4, r5, r6, r7, r8, lr}
40003b98:	e1a08003 	mov	r8, r3
40003b9c:	e28d3020 	add	r3, sp, #32
40003ba0:	e59d6018 	ldr	r6, [sp, #24]
40003ba4:	e8930018 	ldm	r3, {r3, r4}
40003ba8:	e1560003 	cmp	r6, r3
40003bac:	e1a07000 	mov	r7, r0
40003bb0:	e1a05002 	mov	r5, r2
40003bb4:	1a000004 	bne	40003bcc <_ZNK10__cxxabiv117__class_type_info12__do_dyncastEiNS0_10__sub_kindEPKS0_PKvS3_S5_RNS0_16__dyncast_resultE+0x38>
40003bb8:	e59d101c 	ldr	r1, [sp, #28]
40003bbc:	eb00014f 	bl	40004100 <_ZNKSt9type_infoeqERKS_>
40003bc0:	e3500000 	cmp	r0, #0
40003bc4:	15c45005 	strbne	r5, [r4, #5]
40003bc8:	1a000007 	bne	40003bec <_ZNK10__cxxabiv117__class_type_info12__do_dyncastEiNS0_10__sub_kindEPKS0_PKvS3_S5_RNS0_16__dyncast_resultE+0x58>
40003bcc:	e1a01008 	mov	r1, r8
40003bd0:	e1a00007 	mov	r0, r7
40003bd4:	eb000149 	bl	40004100 <_ZNKSt9type_infoeqERKS_>
40003bd8:	e3500000 	cmp	r0, #0
40003bdc:	13a03001 	movne	r3, #1
40003be0:	15846000 	strne	r6, [r4]
40003be4:	15c45004 	strbne	r5, [r4, #4]
40003be8:	15c43006 	strbne	r3, [r4, #6]
40003bec:	e3a00000 	mov	r0, #0
40003bf0:	e8bd41f0 	pop	{r4, r5, r6, r7, r8, lr}
40003bf4:	e12fff1e 	bx	lr

Disassembly of section .text.__cxa_get_exception_ptr:

40003bf8 <__cxa_get_exception_ptr>:
40003bf8:	e5900024 	ldr	r0, [r0, #36]	; 0x24
40003bfc:	e12fff1e 	bx	lr

Disassembly of section .text.__cxa_begin_catch:

40003c00 <__cxa_begin_catch>:
40003c00:	e92d4070 	push	{r4, r5, r6, lr}
40003c04:	e1a05000 	mov	r5, r0
40003c08:	ebffff6c 	bl	400039c0 <__cxa_get_globals>
40003c0c:	e1a01000 	mov	r1, r0
40003c10:	e5902000 	ldr	r2, [r0]
40003c14:	e1a00005 	mov	r0, r5
40003c18:	ebfffeac 	bl	400036d0 <_ZN10__cxxabiv1L24__is_gxx_exception_classEPc>
40003c1c:	e3500000 	cmp	r0, #0
40003c20:	e2454020 	sub	r4, r5, #32
40003c24:	1a000004 	bne	40003c3c <__cxa_begin_catch+0x3c>
40003c28:	e3520000 	cmp	r2, #0
40003c2c:	05814000 	streq	r4, [r1]
40003c30:	01a04002 	moveq	r4, r2
40003c34:	0a00000e 	beq	40003c74 <__cxa_begin_catch+0x74>
40003c38:	eb0000da 	bl	40003fa8 <_ZSt9terminatev>
40003c3c:	e515300c 	ldr	r3, [r5, #-12]
40003c40:	e3530000 	cmp	r3, #0
40003c44:	b2633001 	rsblt	r3, r3, #1
40003c48:	a2833001 	addge	r3, r3, #1
40003c4c:	e505300c 	str	r3, [r5, #-12]
40003c50:	e5913004 	ldr	r3, [r1, #4]
40003c54:	e2433001 	sub	r3, r3, #1
40003c58:	e1520004 	cmp	r2, r4
40003c5c:	e5813004 	str	r3, [r1, #4]
40003c60:	e1a00005 	mov	r0, r5
40003c64:	15052010 	strne	r2, [r5, #-16]
40003c68:	15814000 	strne	r4, [r1]
40003c6c:	e5954024 	ldr	r4, [r5, #36]	; 0x24
40003c70:	eb0018f1 	bl	4000a03c <_Unwind_Complete>
40003c74:	e1a00004 	mov	r0, r4
40003c78:	e8bd4070 	pop	{r4, r5, r6, lr}
40003c7c:	e12fff1e 	bx	lr

Disassembly of section .text.__cxa_end_catch:

40003c80 <__cxa_end_catch>:
40003c80:	e92d4010 	push	{r4, lr}
40003c84:	ebffff4a 	bl	400039b4 <__cxa_get_globals_fast>
40003c88:	e5902000 	ldr	r2, [r0]
40003c8c:	e3520000 	cmp	r2, #0
40003c90:	0a000014 	beq	40003ce8 <__cxa_end_catch+0x68>
40003c94:	e2824020 	add	r4, r2, #32
40003c98:	e1a01000 	mov	r1, r0
40003c9c:	e1a00004 	mov	r0, r4
40003ca0:	ebfffe8a 	bl	400036d0 <_ZN10__cxxabiv1L24__is_gxx_exception_classEPc>
40003ca4:	e3500000 	cmp	r0, #0
40003ca8:	05810000 	streq	r0, [r1]
40003cac:	0a00000b 	beq	40003ce0 <__cxa_end_catch+0x60>
40003cb0:	e5923014 	ldr	r3, [r2, #20]
40003cb4:	e3530000 	cmp	r3, #0
40003cb8:	aa000004 	bge	40003cd0 <__cxa_end_catch+0x50>
40003cbc:	e2933001 	adds	r3, r3, #1
40003cc0:	05920010 	ldreq	r0, [r2, #16]
40003cc4:	05810000 	streq	r0, [r1]
40003cc8:	e5823014 	str	r3, [r2, #20]
40003ccc:	ea000005 	b	40003ce8 <__cxa_end_catch+0x68>
40003cd0:	e2533001 	subs	r3, r3, #1
40003cd4:	1a000005 	bne	40003cf0 <__cxa_end_catch+0x70>
40003cd8:	e5923010 	ldr	r3, [r2, #16]
40003cdc:	e5813000 	str	r3, [r1]
40003ce0:	e1a00004 	mov	r0, r4
40003ce4:	eb0018d5 	bl	4000a040 <_Unwind_DeleteException>
40003ce8:	e8bd4010 	pop	{r4, lr}
40003cec:	e12fff1e 	bx	lr
40003cf0:	e3730001 	cmn	r3, #1
40003cf4:	1afffff3 	bne	40003cc8 <__cxa_end_catch+0x48>
40003cf8:	eb0000aa 	bl	40003fa8 <_ZSt9terminatev>

Disassembly of section .text._ZSt18uncaught_exceptionv:

40003cfc <_ZSt18uncaught_exceptionv>:
40003cfc:	e92d4010 	push	{r4, lr}
40003d00:	ebffff2e 	bl	400039c0 <__cxa_get_globals>
40003d04:	e5900004 	ldr	r0, [r0, #4]
40003d08:	e2900000 	adds	r0, r0, #0
40003d0c:	13a00001 	movne	r0, #1
40003d10:	e8bd4010 	pop	{r4, lr}
40003d14:	e12fff1e 	bx	lr

Disassembly of section .text._ZSt19uncaught_exceptionsv:

40003d18 <_ZSt19uncaught_exceptionsv>:
40003d18:	e92d4010 	push	{r4, lr}
40003d1c:	ebffff27 	bl	400039c0 <__cxa_get_globals>
40003d20:	e8bd4010 	pop	{r4, lr}
40003d24:	e5900004 	ldr	r0, [r0, #4]
40003d28:	e12fff1e 	bx	lr

Disassembly of section .text._ZNK10__cxxabiv119__pointer_type_info14__is_pointer_pEv:

40003d2c <_ZNK10__cxxabiv119__pointer_type_info14__is_pointer_pEv>:
40003d2c:	e3a00001 	mov	r0, #1
40003d30:	e12fff1e 	bx	lr

Disassembly of section .text._ZN10__cxxabiv119__pointer_type_infoD2Ev:

40003d34 <_ZN10__cxxabiv119__pointer_type_infoD1Ev>:
40003d34:	e92d4010 	push	{r4, lr}
40003d38:	e1a04000 	mov	r4, r0
40003d3c:	e59f3010 	ldr	r3, [pc, #16]	; 40003d54 <_ZN10__cxxabiv119__pointer_type_infoD1Ev+0x20>
40003d40:	e5803000 	str	r3, [r0]
40003d44:	eb000119 	bl	400041b0 <_ZN10__cxxabiv117__pbase_type_infoD1Ev>
40003d48:	e1a00004 	mov	r0, r4
40003d4c:	e8bd4010 	pop	{r4, lr}
40003d50:	e12fff1e 	bx	lr
40003d54:	400185a8 	.word	0x400185a8

Disassembly of section .text._ZN10__cxxabiv119__pointer_type_infoD0Ev:

40003d58 <_ZN10__cxxabiv119__pointer_type_infoD0Ev>:
40003d58:	e92d4010 	push	{r4, lr}
40003d5c:	e1a04000 	mov	r4, r0
40003d60:	ebfffff3 	bl	40003d34 <_ZN10__cxxabiv119__pointer_type_infoD1Ev>
40003d64:	e1a00004 	mov	r0, r4
40003d68:	e3a01010 	mov	r1, #16
40003d6c:	ebffff1a 	bl	400039dc <_ZdlPvj>
40003d70:	e1a00004 	mov	r0, r4
40003d74:	e8bd4010 	pop	{r4, lr}
40003d78:	e12fff1e 	bx	lr

Disassembly of section .text._ZNK10__cxxabiv119__pointer_type_info15__pointer_catchEPKNS_17__pbase_type_infoEPPvj:

40003d7c <_ZNK10__cxxabiv119__pointer_type_info15__pointer_catchEPKNS_17__pbase_type_infoEPPvj>:
40003d7c:	e3530001 	cmp	r3, #1
40003d80:	e92d41f0 	push	{r4, r5, r6, r7, r8, lr}
40003d84:	e1a06000 	mov	r6, r0
40003d88:	e1a04001 	mov	r4, r1
40003d8c:	e1a07002 	mov	r7, r2
40003d90:	e1a05003 	mov	r5, r3
40003d94:	8a000004 	bhi	40003dac <_ZNK10__cxxabiv119__pointer_type_info15__pointer_catchEPKNS_17__pbase_type_infoEPPvj+0x30>
40003d98:	e59f1054 	ldr	r1, [pc, #84]	; 40003df4 <_ZNK10__cxxabiv119__pointer_type_info15__pointer_catchEPKNS_17__pbase_type_infoEPPvj+0x78>
40003d9c:	e590000c 	ldr	r0, [r0, #12]
40003da0:	eb0000d6 	bl	40004100 <_ZNKSt9type_infoeqERKS_>
40003da4:	e3500000 	cmp	r0, #0
40003da8:	1a000008 	bne	40003dd0 <_ZNK10__cxxabiv119__pointer_type_info15__pointer_catchEPKNS_17__pbase_type_infoEPPvj+0x54>
40003dac:	e596000c 	ldr	r0, [r6, #12]
40003db0:	e5903000 	ldr	r3, [r0]
40003db4:	e593e010 	ldr	lr, [r3, #16]
40003db8:	e1a02007 	mov	r2, r7
40003dbc:	e2853002 	add	r3, r5, #2
40003dc0:	e594100c 	ldr	r1, [r4, #12]
40003dc4:	e1a0c00e 	mov	ip, lr
40003dc8:	e8bd41f0 	pop	{r4, r5, r6, r7, r8, lr}
40003dcc:	e12fff1c 	bx	ip
40003dd0:	e594000c 	ldr	r0, [r4, #12]
40003dd4:	e5903000 	ldr	r3, [r0]
40003dd8:	e593300c 	ldr	r3, [r3, #12]
40003ddc:	e1a0e00f 	mov	lr, pc
40003de0:	e12fff13 	bx	r3
40003de4:	e2200001 	eor	r0, r0, #1
40003de8:	e20000ff 	and	r0, r0, #255	; 0xff
40003dec:	e8bd41f0 	pop	{r4, r5, r6, r7, r8, lr}
40003df0:	e12fff1e 	bx	lr
40003df4:	400184a8 	.word	0x400184a8

Disassembly of section .text.__cxa_call_terminate:

40003df8 <__cxa_call_terminate>:
40003df8:	e92d4010 	push	{r4, lr}
40003dfc:	e2504000 	subs	r4, r0, #0
40003e00:	0a000005 	beq	40003e1c <__cxa_call_terminate+0x24>
40003e04:	ebffff7d 	bl	40003c00 <__cxa_begin_catch>
40003e08:	e1a00004 	mov	r0, r4
40003e0c:	ebfffe4b 	bl	40003740 <_ZN10__cxxabiv1L24__is_gxx_exception_classEPc>
40003e10:	e3500000 	cmp	r0, #0
40003e14:	15140014 	ldrne	r0, [r4, #-20]	; 0xffffffec
40003e18:	1b000055 	blne	40003f74 <_ZN10__cxxabiv111__terminateEPFvvE>
40003e1c:	eb000061 	bl	40003fa8 <_ZSt9terminatev>

Disassembly of section .text.__cxa_call_unexpected:

40003e20 <__cxa_call_unexpected>:
40003e20:	e92d4ff0 	push	{r4, r5, r6, r7, r8, r9, sl, fp, lr}
40003e24:	e24dd014 	sub	sp, sp, #20
40003e28:	e1a02000 	mov	r2, r0
40003e2c:	ebfffe43 	bl	40003740 <_ZN10__cxxabiv1L24__is_gxx_exception_classEPc>
40003e30:	e2504000 	subs	r4, r0, #0
40003e34:	13a06000 	movne	r6, #0
40003e38:	03a06001 	moveq	r6, #1
40003e3c:	e1a00002 	mov	r0, r2
40003e40:	15128018 	ldrne	r8, [r2, #-24]	; 0xffffffe8
40003e44:	15124014 	ldrne	r4, [r2, #-20]	; 0xffffffec
40003e48:	1592a028 	ldrne	sl, [r2, #40]	; 0x28
40003e4c:	15927030 	ldrne	r7, [r2, #48]	; 0x30
40003e50:	15925034 	ldrne	r5, [r2, #52]	; 0x34
40003e54:	01a08004 	moveq	r8, r4
40003e58:	01a05004 	moveq	r5, r4
40003e5c:	01a07004 	moveq	r7, r4
40003e60:	01a0a004 	moveq	sl, r4
40003e64:	ebffff65 	bl	40003c00 <__cxa_begin_catch>
40003e68:	e3560000 	cmp	r6, #0
40003e6c:	0a000004 	beq	40003e84 <__cxa_call_unexpected+0x64>
40003e70:	eb000055 	bl	40003fcc <_ZSt10unexpectedv>
40003e74:	ebffff61 	bl	40003c00 <__cxa_begin_catch>
40003e78:	e3560000 	cmp	r6, #0
40003e7c:	0a000002 	beq	40003e8c <__cxa_call_unexpected+0x6c>
40003e80:	eb000048 	bl	40003fa8 <_ZSt9terminatev>
40003e84:	e1a00008 	mov	r0, r8
40003e88:	eb00004b 	bl	40003fbc <_ZN10__cxxabiv112__unexpectedEPFvvE>
40003e8c:	ebfffec8 	bl	400039b4 <__cxa_get_globals_fast>
40003e90:	e3a08000 	mov	r8, #0
40003e94:	e5903000 	ldr	r3, [r0]
40003e98:	e2832020 	add	r2, r3, #32
40003e9c:	e58d2000 	str	r2, [sp]
40003ea0:	e5d32027 	ldrb	r2, [r3, #39]	; 0x27
40003ea4:	e3520001 	cmp	r2, #1
40003ea8:	05933000 	ldreq	r3, [r3]
40003eac:	12833078 	addne	r3, r3, #120	; 0x78
40003eb0:	e28d9010 	add	r9, sp, #16
40003eb4:	e5293008 	str	r3, [r9, #-8]!
40003eb8:	e3c73003 	bic	r3, r7, #3
40003ebc:	e58d3004 	str	r3, [sp, #4]
40003ec0:	e15a0008 	cmp	sl, r8
40003ec4:	da00001c 	ble	40003f3c <__cxa_call_unexpected+0x11c>
40003ec8:	e5957000 	ldr	r7, [r5]
40003ecc:	e3570000 	cmp	r7, #0
40003ed0:	10877005 	addne	r7, r7, r5
40003ed4:	e1a03009 	mov	r3, r9
40003ed8:	e3a02000 	mov	r2, #0
40003edc:	e1a01007 	mov	r1, r7
40003ee0:	e59d0000 	ldr	r0, [sp]
40003ee4:	ebfffe31 	bl	400037b0 <__cxa_type_match>
40003ee8:	e3500000 	cmp	r0, #0
40003eec:	0a000003 	beq	40003f00 <__cxa_call_unexpected+0xe0>
40003ef0:	ebfffd21 	bl	4000337c <__cxa_rethrow>
40003ef4:	ebffff61 	bl	40003c80 <__cxa_end_catch>
40003ef8:	ebffff60 	bl	40003c80 <__cxa_end_catch>
40003efc:	ebfffdd3 	bl	40003650 <__cxa_end_cleanup>
40003f00:	e5973000 	ldr	r3, [r7]
40003f04:	e58d000c 	str	r0, [sp, #12]
40003f08:	e593b010 	ldr	fp, [r3, #16]
40003f0c:	e28d200c 	add	r2, sp, #12
40003f10:	e3a03001 	mov	r3, #1
40003f14:	e59f104c 	ldr	r1, [pc, #76]	; 40003f68 <__cxa_call_unexpected+0x148>
40003f18:	e1a00007 	mov	r0, r7
40003f1c:	e1a0e00f 	mov	lr, pc
40003f20:	e12fff1b 	bx	fp
40003f24:	e59d3004 	ldr	r3, [sp, #4]
40003f28:	e3500000 	cmp	r0, #0
40003f2c:	11a06000 	movne	r6, r0
40003f30:	e2888001 	add	r8, r8, #1
40003f34:	e0855003 	add	r5, r5, r3
40003f38:	eaffffe0 	b	40003ec0 <__cxa_call_unexpected+0xa0>
40003f3c:	e3560000 	cmp	r6, #0
40003f40:	0a000006 	beq	40003f60 <__cxa_call_unexpected+0x140>
40003f44:	e3a00004 	mov	r0, #4
40003f48:	ebfffc6b 	bl	400030fc <__cxa_allocate_exception>
40003f4c:	e59f3018 	ldr	r3, [pc, #24]	; 40003f6c <__cxa_call_unexpected+0x14c>
40003f50:	e59f2018 	ldr	r2, [pc, #24]	; 40003f70 <__cxa_call_unexpected+0x150>
40003f54:	e5803000 	str	r3, [r0]
40003f58:	e59f1008 	ldr	r1, [pc, #8]	; 40003f68 <__cxa_call_unexpected+0x148>
40003f5c:	ebfffcdf 	bl	400032e0 <__cxa_throw>
40003f60:	e1a00004 	mov	r0, r4
40003f64:	eb000002 	bl	40003f74 <_ZN10__cxxabiv111__terminateEPFvvE>
40003f68:	40018648 	.word	0x40018648
40003f6c:	400186f0 	.word	0x400186f0
40003f70:	40004034 	.word	0x40004034

Disassembly of section .text._ZN10__cxxabiv111__terminateEPFvvE:

40003f74 <_ZN10__cxxabiv111__terminateEPFvvE>:
40003f74:	e92d4010 	push	{r4, lr}
40003f78:	e1a0e00f 	mov	lr, pc
40003f7c:	e12fff10 	bx	r0
40003f80:	eb001b8b 	bl	4000adb4 <abort>
40003f84:	ebffff1d 	bl	40003c00 <__cxa_begin_catch>
40003f88:	eb001b89 	bl	4000adb4 <abort>
40003f8c:	e1a05001 	mov	r5, r1
40003f90:	e1a04000 	mov	r4, r0
40003f94:	ebffff39 	bl	40003c80 <__cxa_end_catch>
40003f98:	e3750001 	cmn	r5, #1
40003f9c:	1bfffdab 	blne	40003650 <__cxa_end_cleanup>
40003fa0:	e1a00004 	mov	r0, r4
40003fa4:	ebffff9d 	bl	40003e20 <__cxa_call_unexpected>

Disassembly of section .text._ZSt9terminatev:

40003fa8 <_ZSt9terminatev>:
40003fa8:	e59f3008 	ldr	r3, [pc, #8]	; 40003fb8 <_ZSt9terminatev+0x10>
40003fac:	e92d4010 	push	{r4, lr}
40003fb0:	e5930000 	ldr	r0, [r3]
40003fb4:	ebffffee 	bl	40003f74 <_ZN10__cxxabiv111__terminateEPFvvE>
40003fb8:	40019b5c 	.word	0x40019b5c

Disassembly of section .text._ZN10__cxxabiv112__unexpectedEPFvvE:

40003fbc <_ZN10__cxxabiv112__unexpectedEPFvvE>:
40003fbc:	e92d4010 	push	{r4, lr}
40003fc0:	e1a0e00f 	mov	lr, pc
40003fc4:	e12fff10 	bx	r0
40003fc8:	ebfffff6 	bl	40003fa8 <_ZSt9terminatev>

Disassembly of section .text._ZSt10unexpectedv:

40003fcc <_ZSt10unexpectedv>:
40003fcc:	e59f3008 	ldr	r3, [pc, #8]	; 40003fdc <_ZSt10unexpectedv+0x10>
40003fd0:	e92d4010 	push	{r4, lr}
40003fd4:	e5930000 	ldr	r0, [r3]
40003fd8:	ebfffff7 	bl	40003fbc <_ZN10__cxxabiv112__unexpectedEPFvvE>
40003fdc:	40019b58 	.word	0x40019b58

Disassembly of section .text._ZSt13set_terminatePFvvE:

40003fe0 <_ZSt13set_terminatePFvvE>:
40003fe0:	e59f300c 	ldr	r3, [pc, #12]	; 40003ff4 <_ZSt13set_terminatePFvvE+0x14>
40003fe4:	e5932000 	ldr	r2, [r3]
40003fe8:	e5830000 	str	r0, [r3]
40003fec:	e1a00002 	mov	r0, r2
40003ff0:	e12fff1e 	bx	lr
40003ff4:	40019b5c 	.word	0x40019b5c

Disassembly of section .text._ZSt13get_terminatev:

40003ff8 <_ZSt13get_terminatev>:
40003ff8:	e59f3004 	ldr	r3, [pc, #4]	; 40004004 <_ZSt13get_terminatev+0xc>
40003ffc:	e5930000 	ldr	r0, [r3]
40004000:	e12fff1e 	bx	lr
40004004:	40019b5c 	.word	0x40019b5c

Disassembly of section .text._ZSt14set_unexpectedPFvvE:

40004008 <_ZSt14set_unexpectedPFvvE>:
40004008:	e59f300c 	ldr	r3, [pc, #12]	; 4000401c <_ZSt14set_unexpectedPFvvE+0x14>
4000400c:	e5932000 	ldr	r2, [r3]
40004010:	e5830000 	str	r0, [r3]
40004014:	e1a00002 	mov	r0, r2
40004018:	e12fff1e 	bx	lr
4000401c:	40019b58 	.word	0x40019b58

Disassembly of section .text._ZSt14get_unexpectedv:

40004020 <_ZSt14get_unexpectedv>:
40004020:	e59f3004 	ldr	r3, [pc, #4]	; 4000402c <_ZSt14get_unexpectedv+0xc>
40004024:	e5930000 	ldr	r0, [r3]
40004028:	e12fff1e 	bx	lr
4000402c:	40019b58 	.word	0x40019b58

Disassembly of section .text._ZNSt9exceptionD2Ev:

40004030 <_ZNSt9exceptionD1Ev>:
40004030:	e12fff1e 	bx	lr

Disassembly of section .text._ZNSt13bad_exceptionD2Ev:

40004034 <_ZNSt13bad_exceptionD1Ev>:
40004034:	e12fff1e 	bx	lr

Disassembly of section .text._ZGTtNKSt9exception4whatEv:

40004038 <_ZGTtNKSt9exception4whatEv>:
40004038:	e59f0000 	ldr	r0, [pc]	; 40004040 <_ZGTtNKSt9exception4whatEv+0x8>
4000403c:	e12fff1e 	bx	lr
40004040:	40018627 	.word	0x40018627

Disassembly of section .text._ZGTtNKSt13bad_exception4whatEv:

40004044 <_ZGTtNKSt13bad_exception4whatEv>:
40004044:	e59f0000 	ldr	r0, [pc]	; 4000404c <_ZGTtNKSt13bad_exception4whatEv+0x8>
40004048:	e12fff1e 	bx	lr
4000404c:	40018614 	.word	0x40018614

Disassembly of section .text._ZNSt9exceptionD0Ev:

40004050 <_ZNSt9exceptionD0Ev>:
40004050:	e92d4010 	push	{r4, lr}
40004054:	e1a04000 	mov	r4, r0
40004058:	e3a01004 	mov	r1, #4
4000405c:	ebfffe5e 	bl	400039dc <_ZdlPvj>
40004060:	e1a00004 	mov	r0, r4
40004064:	e8bd4010 	pop	{r4, lr}
40004068:	e12fff1e 	bx	lr

Disassembly of section .text._ZNSt13bad_exceptionD0Ev:

4000406c <_ZNSt13bad_exceptionD0Ev>:
4000406c:	e92d4010 	push	{r4, lr}
40004070:	e1a04000 	mov	r4, r0
40004074:	e3a01004 	mov	r1, #4
40004078:	ebfffe57 	bl	400039dc <_ZdlPvj>
4000407c:	e1a00004 	mov	r0, r4
40004080:	e8bd4010 	pop	{r4, lr}
40004084:	e12fff1e 	bx	lr

Disassembly of section .text._ZN10__cxxabiv115__forced_unwindD2Ev:

40004088 <_ZN10__cxxabiv115__forced_unwindD1Ev>:
40004088:	e12fff1e 	bx	lr

Disassembly of section .text._ZN10__cxxabiv115__forced_unwindD0Ev:

4000408c <_ZN10__cxxabiv115__forced_unwindD0Ev>:
4000408c:	e92d4010 	push	{r4, lr}
40004090:	e1a04000 	mov	r4, r0
40004094:	e3a01004 	mov	r1, #4
40004098:	ebfffe4f 	bl	400039dc <_ZdlPvj>
4000409c:	e1a00004 	mov	r0, r4
400040a0:	e8bd4010 	pop	{r4, lr}
400040a4:	e12fff1e 	bx	lr

Disassembly of section .text._ZN10__cxxabiv119__foreign_exceptionD2Ev:

400040a8 <_ZN10__cxxabiv119__foreign_exceptionD1Ev>:
400040a8:	e12fff1e 	bx	lr

Disassembly of section .text._ZN10__cxxabiv119__foreign_exceptionD0Ev:

400040ac <_ZN10__cxxabiv119__foreign_exceptionD0Ev>:
400040ac:	e92d4010 	push	{r4, lr}
400040b0:	e1a04000 	mov	r4, r0
400040b4:	e3a01004 	mov	r1, #4
400040b8:	ebfffe47 	bl	400039dc <_ZdlPvj>
400040bc:	e1a00004 	mov	r0, r4
400040c0:	e8bd4010 	pop	{r4, lr}
400040c4:	e12fff1e 	bx	lr

Disassembly of section .text._ZGTtNKSt9exceptionD1Ev:

400040c8 <_ZGTtNKSt9exceptionD1Ev>:
400040c8:	e12fff1e 	bx	lr

Disassembly of section .text._ZGTtNKSt13bad_exceptionD1Ev:

400040cc <_ZGTtNKSt13bad_exceptionD1Ev>:
400040cc:	e12fff1e 	bx	lr

Disassembly of section .text._ZNSt9type_infoD2Ev:

400040d0 <_ZNSt9type_infoD1Ev>:
400040d0:	e12fff1e 	bx	lr

Disassembly of section .text._ZNKSt9type_info15__is_function_pEv:

400040d4 <_ZNKSt9type_info14__is_pointer_pEv>:
400040d4:	e3a00000 	mov	r0, #0
400040d8:	e12fff1e 	bx	lr

Disassembly of section .text._ZNKSt9type_info11__do_upcastEPKN10__cxxabiv117__class_type_infoEPPv:

400040dc <_ZNKSt9type_info11__do_upcastEPKN10__cxxabiv117__class_type_infoEPPv>:
400040dc:	e3a00000 	mov	r0, #0
400040e0:	e12fff1e 	bx	lr

Disassembly of section .text._ZNSt9type_infoD0Ev:

400040e4 <_ZNSt9type_infoD0Ev>:
400040e4:	e92d4010 	push	{r4, lr}
400040e8:	e1a04000 	mov	r4, r0
400040ec:	e3a01008 	mov	r1, #8
400040f0:	ebfffe39 	bl	400039dc <_ZdlPvj>
400040f4:	e1a00004 	mov	r0, r4
400040f8:	e8bd4010 	pop	{r4, lr}
400040fc:	e12fff1e 	bx	lr

Disassembly of section .text._ZNKSt9type_infoeqERKS_:

40004100 <_ZNKSt9type_infoeqERKS_>:
40004100:	e1510000 	cmp	r1, r0
40004104:	0a00000d 	beq	40004140 <_ZNKSt9type_infoeqERKS_+0x40>
40004108:	e5900004 	ldr	r0, [r0, #4]
4000410c:	e5d03000 	ldrb	r3, [r0]
40004110:	e353002a 	cmp	r3, #42	; 0x2a
40004114:	0a00000b 	beq	40004148 <_ZNKSt9type_infoeqERKS_+0x48>
40004118:	e92d4010 	push	{r4, lr}
4000411c:	e5911004 	ldr	r1, [r1, #4]
40004120:	e5d13000 	ldrb	r3, [r1]
40004124:	e353002a 	cmp	r3, #42	; 0x2a
40004128:	02811001 	addeq	r1, r1, #1
4000412c:	ebfff55b 	bl	400016a0 <strcmp>
40004130:	e2700001 	rsbs	r0, r0, #1
40004134:	33a00000 	movcc	r0, #0
40004138:	e8bd4010 	pop	{r4, lr}
4000413c:	e12fff1e 	bx	lr
40004140:	e3a00001 	mov	r0, #1
40004144:	e12fff1e 	bx	lr
40004148:	e3a00000 	mov	r0, #0
4000414c:	e12fff1e 	bx	lr

Disassembly of section .text._ZNKSt9type_info10__do_catchEPKS_PPvj:

40004150 <_ZNKSt9type_info10__do_catchEPKS_PPvj>:
40004150:	eaffffea 	b	40004100 <_ZNKSt9type_infoeqERKS_>

Disassembly of section .text.__cxa_pure_virtual:

40004154 <__cxa_pure_virtual>:
40004154:	e92d4010 	push	{r4, lr}
40004158:	e3a0201b 	mov	r2, #27
4000415c:	e59f1008 	ldr	r1, [pc, #8]	; 4000416c <__cxa_pure_virtual+0x18>
40004160:	e3a00002 	mov	r0, #2
40004164:	eb002ba2 	bl	4000eff4 <write>
40004168:	ebffff8e 	bl	40003fa8 <_ZSt9terminatev>
4000416c:	40018767 	.word	0x40018767

Disassembly of section .text.__cxa_deleted_virtual:

40004170 <__cxa_deleted_virtual>:
40004170:	e92d4010 	push	{r4, lr}
40004174:	e3a0201e 	mov	r2, #30
40004178:	e59f1008 	ldr	r1, [pc, #8]	; 40004188 <__cxa_deleted_virtual+0x18>
4000417c:	e3a00002 	mov	r0, #2
40004180:	eb002b9b 	bl	4000eff4 <write>
40004184:	ebffff87 	bl	40003fa8 <_ZSt9terminatev>
40004188:	40018748 	.word	0x40018748

Disassembly of section .text._ZNK10__cxxabiv117__pbase_type_info15__pointer_catchEPKS0_PPvj:

4000418c <_ZNK10__cxxabiv117__pbase_type_info15__pointer_catchEPKS0_PPvj>:
4000418c:	e590000c 	ldr	r0, [r0, #12]
40004190:	e590c000 	ldr	ip, [r0]
40004194:	e52de004 	push	{lr}		; (str lr, [sp, #-4]!)
40004198:	e59ce010 	ldr	lr, [ip, #16]
4000419c:	e2833002 	add	r3, r3, #2
400041a0:	e1a0c00e 	mov	ip, lr
400041a4:	e591100c 	ldr	r1, [r1, #12]
400041a8:	e49de004 	pop	{lr}		; (ldr lr, [sp], #4)
400041ac:	e12fff1c 	bx	ip

Disassembly of section .text._ZN10__cxxabiv117__pbase_type_infoD2Ev:

400041b0 <_ZN10__cxxabiv117__pbase_type_infoD1Ev>:
400041b0:	e92d4010 	push	{r4, lr}
400041b4:	e1a04000 	mov	r4, r0
400041b8:	e59f3010 	ldr	r3, [pc, #16]	; 400041d0 <_ZN10__cxxabiv117__pbase_type_infoD1Ev+0x20>
400041bc:	e5803000 	str	r3, [r0]
400041c0:	ebffffc2 	bl	400040d0 <_ZNSt9type_infoD1Ev>
400041c4:	e1a00004 	mov	r0, r4
400041c8:	e8bd4010 	pop	{r4, lr}
400041cc:	e12fff1e 	bx	lr
400041d0:	400187bc 	.word	0x400187bc

Disassembly of section .text._ZN10__cxxabiv117__pbase_type_infoD0Ev:

400041d4 <_ZN10__cxxabiv117__pbase_type_infoD0Ev>:
400041d4:	e92d4010 	push	{r4, lr}
400041d8:	e1a04000 	mov	r4, r0
400041dc:	ebfffff3 	bl	400041b0 <_ZN10__cxxabiv117__pbase_type_infoD1Ev>
400041e0:	e1a00004 	mov	r0, r4
400041e4:	e3a01010 	mov	r1, #16
400041e8:	ebfffdfb 	bl	400039dc <_ZdlPvj>
400041ec:	e1a00004 	mov	r0, r4
400041f0:	e8bd4010 	pop	{r4, lr}
400041f4:	e12fff1e 	bx	lr

Disassembly of section .text._ZNK10__cxxabiv117__pbase_type_info10__do_catchEPKSt9type_infoPPvj:

400041f8 <_ZNK10__cxxabiv117__pbase_type_info10__do_catchEPKSt9type_infoPPvj>:
400041f8:	e92d41f0 	push	{r4, r5, r6, r7, r8, lr}
400041fc:	e1a04000 	mov	r4, r0
40004200:	e1a05001 	mov	r5, r1
40004204:	e1a07002 	mov	r7, r2
40004208:	e1a06003 	mov	r6, r3
4000420c:	ebffffbb 	bl	40004100 <_ZNKSt9type_infoeqERKS_>
40004210:	e2508000 	subs	r8, r0, #0
40004214:	1a000008 	bne	4000423c <_ZNK10__cxxabiv117__pbase_type_info10__do_catchEPKSt9type_infoPPvj+0x44>
40004218:	e5943000 	ldr	r3, [r4]
4000421c:	e3550000 	cmp	r5, #0
40004220:	e5130004 	ldr	r0, [r3, #-4]
40004224:	0a000007 	beq	40004248 <_ZNK10__cxxabiv117__pbase_type_info10__do_catchEPKSt9type_infoPPvj+0x50>
40004228:	e5953000 	ldr	r3, [r5]
4000422c:	e5131004 	ldr	r1, [r3, #-4]
40004230:	ebffffb2 	bl	40004100 <_ZNKSt9type_infoeqERKS_>
40004234:	e3500000 	cmp	r0, #0
40004238:	1a000003 	bne	4000424c <_ZNK10__cxxabiv117__pbase_type_info10__do_catchEPKSt9type_infoPPvj+0x54>
4000423c:	e1a00008 	mov	r0, r8
40004240:	e8bd41f0 	pop	{r4, r5, r6, r7, r8, lr}
40004244:	e12fff1e 	bx	lr
40004248:	eb000084 	bl	40004460 <__cxa_bad_typeid>
4000424c:	e3160001 	tst	r6, #1
40004250:	0afffff9 	beq	4000423c <_ZNK10__cxxabiv117__pbase_type_info10__do_catchEPKSt9type_infoPPvj+0x44>
40004254:	e5943008 	ldr	r3, [r4, #8]
40004258:	e5952008 	ldr	r2, [r5, #8]
4000425c:	e213e020 	ands	lr, r3, #32
40004260:	13a01001 	movne	r1, #1
40004264:	03a01000 	moveq	r1, #0
40004268:	e212c020 	ands	ip, r2, #32
4000426c:	13a00001 	movne	r0, #1
40004270:	03a00000 	moveq	r0, #0
40004274:	e35e0000 	cmp	lr, #0
40004278:	13a00000 	movne	r0, #0
4000427c:	02000001 	andeq	r0, r0, #1
40004280:	e3500000 	cmp	r0, #0
40004284:	13c22020 	bicne	r2, r2, #32
40004288:	e35c0000 	cmp	ip, #0
4000428c:	13a01000 	movne	r1, #0
40004290:	02011001 	andeq	r1, r1, #1
40004294:	e3510000 	cmp	r1, #0
40004298:	1affffe7 	bne	4000423c <_ZNK10__cxxabiv117__pbase_type_info10__do_catchEPKSt9type_infoPPvj+0x44>
4000429c:	e1d22003 	bics	r2, r2, r3
400042a0:	1a00000a 	bne	400042d0 <_ZNK10__cxxabiv117__pbase_type_info10__do_catchEPKSt9type_infoPPvj+0xd8>
400042a4:	e3130001 	tst	r3, #1
400042a8:	e5943000 	ldr	r3, [r4]
400042ac:	e593e018 	ldr	lr, [r3, #24]
400042b0:	03c66001 	biceq	r6, r6, #1
400042b4:	e1a03006 	mov	r3, r6
400042b8:	e1a02007 	mov	r2, r7
400042bc:	e1a01005 	mov	r1, r5
400042c0:	e1a00004 	mov	r0, r4
400042c4:	e1a0c00e 	mov	ip, lr
400042c8:	e8bd41f0 	pop	{r4, r5, r6, r7, r8, lr}
400042cc:	e12fff1c 	bx	ip
400042d0:	e1a08001 	mov	r8, r1
400042d4:	eaffffd8 	b	4000423c <_ZNK10__cxxabiv117__pbase_type_info10__do_catchEPKSt9type_infoPPvj+0x44>

Disassembly of section .text._ZN9__gnu_cxx27__verbose_terminate_handlerEv:

400042d8 <_ZN9__gnu_cxx27__verbose_terminate_handlerEv>:
400042d8:	e59f3138 	ldr	r3, [pc, #312]	; 40004418 <_ZN9__gnu_cxx27__verbose_terminate_handlerEv+0x140>
400042dc:	e5d32000 	ldrb	r2, [r3]
400042e0:	e3520000 	cmp	r2, #0
400042e4:	e92d4073 	push	{r0, r1, r4, r5, r6, lr}
400042e8:	e59f412c 	ldr	r4, [pc, #300]	; 4000441c <_ZN9__gnu_cxx27__verbose_terminate_handlerEv+0x144>
400042ec:	0a000004 	beq	40004304 <_ZN9__gnu_cxx27__verbose_terminate_handlerEv+0x2c>
400042f0:	e5943000 	ldr	r3, [r4]
400042f4:	e59f0124 	ldr	r0, [pc, #292]	; 40004420 <_ZN9__gnu_cxx27__verbose_terminate_handlerEv+0x148>
400042f8:	e593100c 	ldr	r1, [r3, #12]
400042fc:	eb001b1c 	bl	4000af74 <fputs>
40004300:	eb001aab 	bl	4000adb4 <abort>
40004304:	e3a02001 	mov	r2, #1
40004308:	e5c32000 	strb	r2, [r3]
4000430c:	eb0015cd 	bl	40009a48 <__cxa_current_exception_type>
40004310:	e3500000 	cmp	r0, #0
40004314:	0a00002c 	beq	400043cc <_ZN9__gnu_cxx27__verbose_terminate_handlerEv+0xf4>
40004318:	e3e02000 	mvn	r2, #0
4000431c:	e5905004 	ldr	r5, [r0, #4]
40004320:	e5d53000 	ldrb	r3, [r5]
40004324:	e353002a 	cmp	r3, #42	; 0x2a
40004328:	e28d3008 	add	r3, sp, #8
4000432c:	e5232004 	str	r2, [r3, #-4]!
40004330:	e3a02000 	mov	r2, #0
40004334:	02855001 	addeq	r5, r5, #1
40004338:	e1a01002 	mov	r1, r2
4000433c:	e1a00005 	mov	r0, r5
40004340:	eb001569 	bl	400098ec <__cxa_demangle>
40004344:	e1a06000 	mov	r6, r0
40004348:	e5943000 	ldr	r3, [r4]
4000434c:	e59f00d0 	ldr	r0, [pc, #208]	; 40004424 <_ZN9__gnu_cxx27__verbose_terminate_handlerEv+0x14c>
40004350:	e593100c 	ldr	r1, [r3, #12]
40004354:	eb001b06 	bl	4000af74 <fputs>
40004358:	e59d3004 	ldr	r3, [sp, #4]
4000435c:	e3530000 	cmp	r3, #0
40004360:	e5943000 	ldr	r3, [r4]
40004364:	01a00006 	moveq	r0, r6
40004368:	e593100c 	ldr	r1, [r3, #12]
4000436c:	11a00005 	movne	r0, r5
40004370:	eb001aff 	bl	4000af74 <fputs>
40004374:	e5943000 	ldr	r3, [r4]
40004378:	e59f00a8 	ldr	r0, [pc, #168]	; 40004428 <_ZN9__gnu_cxx27__verbose_terminate_handlerEv+0x150>
4000437c:	e593100c 	ldr	r1, [r3, #12]
40004380:	eb001afb 	bl	4000af74 <fputs>
40004384:	e59d3004 	ldr	r3, [sp, #4]
40004388:	e3530000 	cmp	r3, #0
4000438c:	01a00006 	moveq	r0, r6
40004390:	0b001c5c 	bleq	4000b508 <free>
40004394:	ebfffbf8 	bl	4000337c <__cxa_rethrow>
40004398:	e3510001 	cmp	r1, #1
4000439c:	1a000018 	bne	40004404 <_ZN9__gnu_cxx27__verbose_terminate_handlerEv+0x12c>
400043a0:	ebfffe16 	bl	40003c00 <__cxa_begin_catch>
400043a4:	e5903000 	ldr	r3, [r0]
400043a8:	e5933008 	ldr	r3, [r3, #8]
400043ac:	e1a0e00f 	mov	lr, pc
400043b0:	e12fff13 	bx	r3
400043b4:	e5943000 	ldr	r3, [r4]
400043b8:	e1a05000 	mov	r5, r0
400043bc:	e593100c 	ldr	r1, [r3, #12]
400043c0:	e59f0064 	ldr	r0, [pc, #100]	; 4000442c <_ZN9__gnu_cxx27__verbose_terminate_handlerEv+0x154>
400043c4:	eb001aea 	bl	4000af74 <fputs>
400043c8:	ea000003 	b	400043dc <_ZN9__gnu_cxx27__verbose_terminate_handlerEv+0x104>
400043cc:	e5943000 	ldr	r3, [r4]
400043d0:	e59f0058 	ldr	r0, [pc, #88]	; 40004430 <_ZN9__gnu_cxx27__verbose_terminate_handlerEv+0x158>
400043d4:	e593100c 	ldr	r1, [r3, #12]
400043d8:	eaffffc7 	b	400042fc <_ZN9__gnu_cxx27__verbose_terminate_handlerEv+0x24>
400043dc:	e5943000 	ldr	r3, [r4]
400043e0:	e1a00005 	mov	r0, r5
400043e4:	e593100c 	ldr	r1, [r3, #12]
400043e8:	eb001ae1 	bl	4000af74 <fputs>
400043ec:	e5943000 	ldr	r3, [r4]
400043f0:	e3a0000a 	mov	r0, #10
400043f4:	e593100c 	ldr	r1, [r3, #12]
400043f8:	eb001aa8 	bl	4000aea0 <fputc>
400043fc:	ebfffe1f 	bl	40003c80 <__cxa_end_catch>
40004400:	eaffffbe 	b	40004300 <_ZN9__gnu_cxx27__verbose_terminate_handlerEv+0x28>
40004404:	ebfffdfd 	bl	40003c00 <__cxa_begin_catch>
40004408:	ebfffe1c 	bl	40003c80 <__cxa_end_catch>
4000440c:	eaffffbb 	b	40004300 <_ZN9__gnu_cxx27__verbose_terminate_handlerEv+0x28>
40004410:	ebfffe1a 	bl	40003c80 <__cxa_end_catch>
40004414:	ebfffc8d 	bl	40003650 <__cxa_end_cleanup>
40004418:	4011a548 	.word	0x4011a548
4000441c:	40019b60 	.word	0x40019b60
40004420:	40018808 	.word	0x40018808
40004424:	40018826 	.word	0x40018826
40004428:	40018857 	.word	0x40018857
4000442c:	40018888 	.word	0x40018888
40004430:	4001885a 	.word	0x4001885a

Disassembly of section .text.__cxa_bad_cast:

40004434 <__cxa_bad_cast>:
40004434:	e92d4010 	push	{r4, lr}
40004438:	e3a00004 	mov	r0, #4
4000443c:	ebfffb2e 	bl	400030fc <__cxa_allocate_exception>
40004440:	e59f300c 	ldr	r3, [pc, #12]	; 40004454 <__cxa_bad_cast+0x20>
40004444:	e59f200c 	ldr	r2, [pc, #12]	; 40004458 <__cxa_bad_cast+0x24>
40004448:	e5803000 	str	r3, [r0]
4000444c:	e59f1008 	ldr	r1, [pc, #8]	; 4000445c <__cxa_bad_cast+0x28>
40004450:	ebfffba2 	bl	400032e0 <__cxa_throw>
40004454:	4001978c 	.word	0x4001978c
40004458:	40009a84 	.word	0x40009a84
4000445c:	4001976c 	.word	0x4001976c

Disassembly of section .text.__cxa_bad_typeid:

40004460 <__cxa_bad_typeid>:
40004460:	e92d4010 	push	{r4, lr}
40004464:	e3a00004 	mov	r0, #4
40004468:	ebfffb23 	bl	400030fc <__cxa_allocate_exception>
4000446c:	e59f300c 	ldr	r3, [pc, #12]	; 40004480 <__cxa_bad_typeid+0x20>
40004470:	e59f200c 	ldr	r2, [pc, #12]	; 40004484 <__cxa_bad_typeid+0x24>
40004474:	e5803000 	str	r3, [r0]
40004478:	e59f1008 	ldr	r1, [pc, #8]	; 40004488 <__cxa_bad_typeid+0x28>
4000447c:	ebfffb97 	bl	400032e0 <__cxa_throw>
40004480:	400188c8 	.word	0x400188c8
40004484:	400044c4 	.word	0x400044c4
40004488:	400188a4 	.word	0x400188a4

Disassembly of section .text.__cxa_throw_bad_array_new_length:

4000448c <__cxa_throw_bad_array_new_length>:
4000448c:	e92d4010 	push	{r4, lr}
40004490:	e3a00004 	mov	r0, #4
40004494:	ebfffb18 	bl	400030fc <__cxa_allocate_exception>
40004498:	e59f300c 	ldr	r3, [pc, #12]	; 400044ac <__cxa_throw_bad_array_new_length+0x20>
4000449c:	e59f200c 	ldr	r2, [pc, #12]	; 400044b0 <__cxa_throw_bad_array_new_length+0x24>
400044a0:	e5803000 	str	r3, [r0]
400044a4:	e59f1008 	ldr	r1, [pc, #8]	; 400044b4 <__cxa_throw_bad_array_new_length+0x28>
400044a8:	ebfffb8c 	bl	400032e0 <__cxa_throw>
400044ac:	40018920 	.word	0x40018920
400044b0:	40004518 	.word	0x40004518
400044b4:	400188f0 	.word	0x400188f0

Disassembly of section .text._ZNKSt10bad_typeid4whatEv:

400044b8 <_ZNKSt10bad_typeid4whatEv>:
400044b8:	e59f0000 	ldr	r0, [pc]	; 400044c0 <_ZNKSt10bad_typeid4whatEv+0x8>
400044bc:	e12fff1e 	bx	lr
400044c0:	40018894 	.word	0x40018894

Disassembly of section .text._ZNSt10bad_typeidD2Ev:

400044c4 <_ZNSt10bad_typeidD1Ev>:
400044c4:	e92d4010 	push	{r4, lr}
400044c8:	e1a04000 	mov	r4, r0
400044cc:	e59f3010 	ldr	r3, [pc, #16]	; 400044e4 <_ZNSt10bad_typeidD1Ev+0x20>
400044d0:	e5803000 	str	r3, [r0]
400044d4:	ebfffed5 	bl	40004030 <_ZNSt9exceptionD1Ev>
400044d8:	e1a00004 	mov	r0, r4
400044dc:	e8bd4010 	pop	{r4, lr}
400044e0:	e12fff1e 	bx	lr
400044e4:	400188c8 	.word	0x400188c8

Disassembly of section .text._ZNSt10bad_typeidD0Ev:

400044e8 <_ZNSt10bad_typeidD0Ev>:
400044e8:	e92d4010 	push	{r4, lr}
400044ec:	e1a04000 	mov	r4, r0
400044f0:	ebfffff3 	bl	400044c4 <_ZNSt10bad_typeidD1Ev>
400044f4:	e1a00004 	mov	r0, r4
400044f8:	e3a01004 	mov	r1, #4
400044fc:	ebfffd36 	bl	400039dc <_ZdlPvj>
40004500:	e1a00004 	mov	r0, r4
40004504:	e8bd4010 	pop	{r4, lr}
40004508:	e12fff1e 	bx	lr

Disassembly of section .text._ZNKSt20bad_array_new_length4whatEv:

4000450c <_ZNKSt20bad_array_new_length4whatEv>:
4000450c:	e59f0000 	ldr	r0, [pc]	; 40004514 <_ZNKSt20bad_array_new_length4whatEv+0x8>
40004510:	e12fff1e 	bx	lr
40004514:	400188d4 	.word	0x400188d4

Disassembly of section .text._ZNSt20bad_array_new_lengthD2Ev:

40004518 <_ZNSt20bad_array_new_lengthD1Ev>:
40004518:	e92d4010 	push	{r4, lr}
4000451c:	e1a04000 	mov	r4, r0
40004520:	e59f3010 	ldr	r3, [pc, #16]	; 40004538 <_ZNSt20bad_array_new_lengthD1Ev+0x20>
40004524:	e5803000 	str	r3, [r0]
40004528:	ebfffbc2 	bl	40003438 <_ZNSt9bad_allocD1Ev>
4000452c:	e1a00004 	mov	r0, r4
40004530:	e8bd4010 	pop	{r4, lr}
40004534:	e12fff1e 	bx	lr
40004538:	40018920 	.word	0x40018920

Disassembly of section .text._ZNSt20bad_array_new_lengthD0Ev:

4000453c <_ZNSt20bad_array_new_lengthD0Ev>:
4000453c:	e92d4010 	push	{r4, lr}
40004540:	e1a04000 	mov	r4, r0
40004544:	ebfffff3 	bl	40004518 <_ZNSt20bad_array_new_lengthD1Ev>
40004548:	e1a00004 	mov	r0, r4
4000454c:	ebfffd1e 	bl	400039cc <_ZdlPv>
40004550:	e1a00004 	mov	r0, r4
40004554:	e8bd4010 	pop	{r4, lr}
40004558:	e12fff1e 	bx	lr

Disassembly of section .text.d_make_empty:

4000455c <d_make_empty>:
4000455c:	e5903014 	ldr	r3, [r0, #20]
40004560:	e5902018 	ldr	r2, [r0, #24]
40004564:	e1530002 	cmp	r3, r2
40004568:	b3a0200c 	movlt	r2, #12
4000456c:	a3a02000 	movge	r2, #0
40004570:	b5901010 	ldrlt	r1, [r0, #16]
40004574:	b0221293 	mlalt	r2, r3, r2, r1
40004578:	b2833001 	addlt	r3, r3, #1
4000457c:	b5803014 	strlt	r3, [r0, #20]
40004580:	e1a00002 	mov	r0, r2
40004584:	e12fff1e 	bx	lr

Disassembly of section .text.d_make_comp:

40004588 <d_make_comp>:
40004588:	e241c001 	sub	ip, r1, #1
4000458c:	e35c004c 	cmp	ip, #76	; 0x4c
40004590:	979ff10c 	ldrls	pc, [pc, ip, lsl #2]
40004594:	ea00004f 	b	400046d8 <d_make_comp+0x150>
40004598:	400046cc 	.word	0x400046cc
4000459c:	400046cc 	.word	0x400046cc
400045a0:	400046cc 	.word	0x400046cc
400045a4:	400046cc 	.word	0x400046cc
400045a8:	400046d8 	.word	0x400046d8
400045ac:	400046d8 	.word	0x400046d8
400045b0:	400046d8 	.word	0x400046d8
400045b4:	400046d8 	.word	0x400046d8
400045b8:	400046e0 	.word	0x400046e0
400045bc:	400046e0 	.word	0x400046e0
400045c0:	400046cc 	.word	0x400046cc
400045c4:	400046e0 	.word	0x400046e0
400045c8:	400046e0 	.word	0x400046e0
400045cc:	400046e0 	.word	0x400046e0
400045d0:	400046e0 	.word	0x400046e0
400045d4:	400046e0 	.word	0x400046e0
400045d8:	400046e0 	.word	0x400046e0
400045dc:	400046e0 	.word	0x400046e0
400045e0:	400046e0 	.word	0x400046e0
400045e4:	400046e0 	.word	0x400046e0
400045e8:	400046e0 	.word	0x400046e0
400045ec:	400046e0 	.word	0x400046e0
400045f0:	400046e0 	.word	0x400046e0
400045f4:	400046d8 	.word	0x400046d8
400045f8:	400046e8 	.word	0x400046e8
400045fc:	400046e8 	.word	0x400046e8
40004600:	400046e8 	.word	0x400046e8
40004604:	400046e8 	.word	0x400046e8
40004608:	400046e8 	.word	0x400046e8
4000460c:	400046e8 	.word	0x400046e8
40004610:	400046e8 	.word	0x400046e8
40004614:	400046e8 	.word	0x400046e8
40004618:	400046cc 	.word	0x400046cc
4000461c:	400046e0 	.word	0x400046e0
40004620:	400046e0 	.word	0x400046e0
40004624:	400046e0 	.word	0x400046e0
40004628:	400046e0 	.word	0x400046e0
4000462c:	400046e0 	.word	0x400046e0
40004630:	400046d8 	.word	0x400046d8
40004634:	400046e0 	.word	0x400046e0
40004638:	400046e8 	.word	0x400046e8
4000463c:	40004710 	.word	0x40004710
40004640:	400046cc 	.word	0x400046cc
40004644:	400046d8 	.word	0x400046d8
40004648:	400046cc 	.word	0x400046cc
4000464c:	400046e8 	.word	0x400046e8
40004650:	400046e8 	.word	0x400046e8
40004654:	40004710 	.word	0x40004710
40004658:	400046d8 	.word	0x400046d8
4000465c:	400046d8 	.word	0x400046d8
40004660:	400046e0 	.word	0x400046e0
40004664:	400046e0 	.word	0x400046e0
40004668:	400046e0 	.word	0x400046e0
4000466c:	400046cc 	.word	0x400046cc
40004670:	400046cc 	.word	0x400046cc
40004674:	400046cc 	.word	0x400046cc
40004678:	400046cc 	.word	0x400046cc
4000467c:	400046cc 	.word	0x400046cc
40004680:	400046e0 	.word	0x400046e0
40004684:	400046cc 	.word	0x400046cc
40004688:	400046cc 	.word	0x400046cc
4000468c:	400046e0 	.word	0x400046e0
40004690:	400046cc 	.word	0x400046cc
40004694:	400046d8 	.word	0x400046d8
40004698:	400046d8 	.word	0x400046d8
4000469c:	400046e0 	.word	0x400046e0
400046a0:	400046e0 	.word	0x400046e0
400046a4:	400046e0 	.word	0x400046e0
400046a8:	400046d8 	.word	0x400046d8
400046ac:	400046d8 	.word	0x400046d8
400046b0:	400046d8 	.word	0x400046d8
400046b4:	400046e0 	.word	0x400046e0
400046b8:	400046e0 	.word	0x400046e0
400046bc:	400046e0 	.word	0x400046e0
400046c0:	400046cc 	.word	0x400046cc
400046c4:	400046e8 	.word	0x400046e8
400046c8:	400046cc 	.word	0x400046cc
400046cc:	e3530000 	cmp	r3, #0
400046d0:	13520000 	cmpne	r2, #0
400046d4:	1a000003 	bne	400046e8 <d_make_comp+0x160>
400046d8:	e3a00000 	mov	r0, #0
400046dc:	e12fff1e 	bx	lr
400046e0:	e3520000 	cmp	r2, #0
400046e4:	0afffffb 	beq	400046d8 <d_make_comp+0x150>
400046e8:	e92d4070 	push	{r4, r5, r6, lr}
400046ec:	e1a06003 	mov	r6, r3
400046f0:	e1a04002 	mov	r4, r2
400046f4:	e1a05001 	mov	r5, r1
400046f8:	ebffff97 	bl	4000455c <d_make_empty>
400046fc:	e3500000 	cmp	r0, #0
40004700:	19800050 	stmibne	r0, {r4, r6}
40004704:	15c05000 	strbne	r5, [r0]
40004708:	e8bd4070 	pop	{r4, r5, r6, lr}
4000470c:	e12fff1e 	bx	lr
40004710:	e3530000 	cmp	r3, #0
40004714:	eafffff2 	b	400046e4 <d_make_comp+0x15c>

Disassembly of section .text.d_make_name:

40004718 <d_make_name>:
40004718:	e92d4070 	push	{r4, r5, r6, lr}
4000471c:	e1a05001 	mov	r5, r1
40004720:	e1a04002 	mov	r4, r2
40004724:	ebffff8c 	bl	4000455c <d_make_empty>
40004728:	e3540000 	cmp	r4, #0
4000472c:	13550000 	cmpne	r5, #0
40004730:	03a03001 	moveq	r3, #1
40004734:	13a03000 	movne	r3, #0
40004738:	e3500000 	cmp	r0, #0
4000473c:	03833001 	orreq	r3, r3, #1
40004740:	e3530000 	cmp	r3, #0
40004744:	05805004 	streq	r5, [r0, #4]
40004748:	05804008 	streq	r4, [r0, #8]
4000474c:	13a00000 	movne	r0, #0
40004750:	05c03000 	strbeq	r3, [r0]
40004754:	e8bd4070 	pop	{r4, r5, r6, lr}
40004758:	e12fff1e 	bx	lr

Disassembly of section .text.d_make_builtin_type:

4000475c <d_make_builtin_type>:
4000475c:	e92d4010 	push	{r4, lr}
40004760:	e2514000 	subs	r4, r1, #0
40004764:	01a00004 	moveq	r0, r4
40004768:	0a000004 	beq	40004780 <d_make_builtin_type+0x24>
4000476c:	ebffff7a 	bl	4000455c <d_make_empty>
40004770:	e3500000 	cmp	r0, #0
40004774:	13a03027 	movne	r3, #39	; 0x27
40004778:	15804004 	strne	r4, [r0, #4]
4000477c:	15c03000 	strbne	r3, [r0]
40004780:	e8bd4010 	pop	{r4, lr}
40004784:	e12fff1e 	bx	lr

Disassembly of section .text.d_cv_qualifiers:

40004788 <d_cv_qualifiers>:
40004788:	e92d4ff8 	push	{r3, r4, r5, r6, r7, r8, r9, sl, fp, lr}
4000478c:	e1a05001 	mov	r5, r1
40004790:	e2527000 	subs	r7, r2, #0
40004794:	e1a04000 	mov	r4, r0
40004798:	13a0a01e 	movne	sl, #30
4000479c:	03a0a01b 	moveq	sl, #27
400047a0:	13a0901d 	movne	r9, #29
400047a4:	03a0901a 	moveq	r9, #26
400047a8:	13a0801c 	movne	r8, #28
400047ac:	03a08019 	moveq	r8, #25
400047b0:	e1a06005 	mov	r6, r5
400047b4:	e3a0b04c 	mov	fp, #76	; 0x4c
400047b8:	e590300c 	ldr	r3, [r0, #12]
400047bc:	e5d31000 	ldrb	r1, [r3]
400047c0:	e3510056 	cmp	r1, #86	; 0x56
400047c4:	13510072 	cmpne	r1, #114	; 0x72
400047c8:	03a00001 	moveq	r0, #1
400047cc:	13a00000 	movne	r0, #0
400047d0:	e351004b 	cmp	r1, #75	; 0x4b
400047d4:	11a03000 	movne	r3, r0
400047d8:	03803001 	orreq	r3, r0, #1
400047dc:	e3530000 	cmp	r3, #0
400047e0:	1a00000e 	bne	40004820 <d_cv_qualifiers+0x98>
400047e4:	e3510044 	cmp	r1, #68	; 0x44
400047e8:	1a000003 	bne	400047fc <d_cv_qualifiers+0x74>
400047ec:	e594300c 	ldr	r3, [r4, #12]
400047f0:	e5d33001 	ldrb	r3, [r3, #1]
400047f4:	e3530078 	cmp	r3, #120	; 0x78
400047f8:	0a000008 	beq	40004820 <d_cv_qualifiers+0x98>
400047fc:	e3570000 	cmp	r7, #0
40004800:	03510046 	cmpeq	r1, #70	; 0x46
40004804:	03a0201d 	moveq	r2, #29
40004808:	03a0101e 	moveq	r1, #30
4000480c:	03a0001c 	moveq	r0, #28
40004810:	0a00002f 	beq	400048d4 <d_cv_qualifiers+0x14c>
40004814:	e1a00006 	mov	r0, r6
40004818:	e8bd4ff8 	pop	{r3, r4, r5, r6, r7, r8, r9, sl, fp, lr}
4000481c:	e12fff1e 	bx	lr
40004820:	e594200c 	ldr	r2, [r4, #12]
40004824:	e2823001 	add	r3, r2, #1
40004828:	e584300c 	str	r3, [r4, #12]
4000482c:	e5943030 	ldr	r3, [r4, #48]	; 0x30
40004830:	e3510072 	cmp	r1, #114	; 0x72
40004834:	02833009 	addeq	r3, r3, #9
40004838:	05843030 	streq	r3, [r4, #48]	; 0x30
4000483c:	01a01008 	moveq	r1, r8
40004840:	0a00000d 	beq	4000487c <d_cv_qualifiers+0xf4>
40004844:	e3500000 	cmp	r0, #0
40004848:	12833009 	addne	r3, r3, #9
4000484c:	15843030 	strne	r3, [r4, #48]	; 0x30
40004850:	11a01009 	movne	r1, r9
40004854:	1a000008 	bne	4000487c <d_cv_qualifiers+0xf4>
40004858:	e351004b 	cmp	r1, #75	; 0x4b
4000485c:	01a0100a 	moveq	r1, sl
40004860:	11a0100b 	movne	r1, fp
40004864:	02833006 	addeq	r3, r3, #6
40004868:	12833011 	addne	r3, r3, #17
4000486c:	12822002 	addne	r2, r2, #2
40004870:	05843030 	streq	r3, [r4, #48]	; 0x30
40004874:	15843030 	strne	r3, [r4, #48]	; 0x30
40004878:	1584200c 	strne	r2, [r4, #12]
4000487c:	e3a03000 	mov	r3, #0
40004880:	e1a00004 	mov	r0, r4
40004884:	e1a02003 	mov	r2, r3
40004888:	ebffff3e 	bl	40004588 <d_make_comp>
4000488c:	e3500000 	cmp	r0, #0
40004890:	e5860000 	str	r0, [r6]
40004894:	0a000011 	beq	400048e0 <d_cv_qualifiers+0x158>
40004898:	e594300c 	ldr	r3, [r4, #12]
4000489c:	e2806004 	add	r6, r0, #4
400048a0:	e5d31000 	ldrb	r1, [r3]
400048a4:	eaffffc5 	b	400047c0 <d_cv_qualifiers+0x38>
400048a8:	e5955000 	ldr	r5, [r5]
400048ac:	e5d53000 	ldrb	r3, [r5]
400048b0:	e353001a 	cmp	r3, #26
400048b4:	05c52000 	strbeq	r2, [r5]
400048b8:	0a000004 	beq	400048d0 <d_cv_qualifiers+0x148>
400048bc:	e353001b 	cmp	r3, #27
400048c0:	05c51000 	strbeq	r1, [r5]
400048c4:	0a000001 	beq	400048d0 <d_cv_qualifiers+0x148>
400048c8:	e3530019 	cmp	r3, #25
400048cc:	05c50000 	strbeq	r0, [r5]
400048d0:	e2855004 	add	r5, r5, #4
400048d4:	e1560005 	cmp	r6, r5
400048d8:	1afffff2 	bne	400048a8 <d_cv_qualifiers+0x120>
400048dc:	eaffffcc 	b	40004814 <d_cv_qualifiers+0x8c>
400048e0:	e1a06000 	mov	r6, r0
400048e4:	eaffffca 	b	40004814 <d_cv_qualifiers+0x8c>

Disassembly of section .text.d_ref_qualifier:

400048e8 <d_ref_qualifier>:
400048e8:	e590c00c 	ldr	ip, [r0, #12]
400048ec:	e5dc3000 	ldrb	r3, [ip]
400048f0:	e353004f 	cmp	r3, #79	; 0x4f
400048f4:	13530052 	cmpne	r3, #82	; 0x52
400048f8:	e1a02001 	mov	r2, r1
400048fc:	1a00000b 	bne	40004930 <d_ref_qualifier+0x48>
40004900:	e3530052 	cmp	r3, #82	; 0x52
40004904:	e5903030 	ldr	r3, [r0, #48]	; 0x30
40004908:	e28cc001 	add	ip, ip, #1
4000490c:	02833002 	addeq	r3, r3, #2
40004910:	12833003 	addne	r3, r3, #3
40004914:	05803030 	streq	r3, [r0, #48]	; 0x30
40004918:	15803030 	strne	r3, [r0, #48]	; 0x30
4000491c:	03a0101f 	moveq	r1, #31
40004920:	13a01020 	movne	r1, #32
40004924:	e580c00c 	str	ip, [r0, #12]
40004928:	e3a03000 	mov	r3, #0
4000492c:	eaffff15 	b	40004588 <d_make_comp>
40004930:	e1a00001 	mov	r0, r1
40004934:	e12fff1e 	bx	lr

Disassembly of section .text.d_add_substitution:

40004938 <d_add_substitution>:
40004938:	e3510000 	cmp	r1, #0
4000493c:	0a000009 	beq	40004968 <d_add_substitution+0x30>
40004940:	e5903020 	ldr	r3, [r0, #32]
40004944:	e5902024 	ldr	r2, [r0, #36]	; 0x24
40004948:	e1530002 	cmp	r3, r2
4000494c:	aa000005 	bge	40004968 <d_add_substitution+0x30>
40004950:	e590201c 	ldr	r2, [r0, #28]
40004954:	e7821103 	str	r1, [r2, r3, lsl #2]
40004958:	e2833001 	add	r3, r3, #1
4000495c:	e5803020 	str	r3, [r0, #32]
40004960:	e3a00001 	mov	r0, #1
40004964:	e12fff1e 	bx	lr
40004968:	e3a00000 	mov	r0, #0
4000496c:	e12fff1e 	bx	lr

Disassembly of section .text.d_count_templates_scopes:

40004970 <d_count_templates_scopes>:
40004970:	e92d4070 	push	{r4, r5, r6, lr}
40004974:	e1a05000 	mov	r5, r0
40004978:	e1a06001 	mov	r6, r1
4000497c:	e1a04002 	mov	r4, r2
40004980:	e3540000 	cmp	r4, #0
40004984:	0a000063 	beq	40004b18 <d_count_templates_scopes+0x1a8>
40004988:	e5d43000 	ldrb	r3, [r4]
4000498c:	e2433001 	sub	r3, r3, #1
40004990:	e353004c 	cmp	r3, #76	; 0x4c
40004994:	979ff103 	ldrls	pc, [pc, r3, lsl #2]
40004998:	ea00005e 	b	40004b18 <d_count_templates_scopes+0x1a8>
4000499c:	40004adc 	.word	0x40004adc
400049a0:	40004adc 	.word	0x40004adc
400049a4:	40004adc 	.word	0x40004adc
400049a8:	40004ad0 	.word	0x40004ad0
400049ac:	40004b18 	.word	0x40004b18
400049b0:	40004b18 	.word	0x40004b18
400049b4:	40004aec 	.word	0x40004aec
400049b8:	40004aec 	.word	0x40004aec
400049bc:	40004adc 	.word	0x40004adc
400049c0:	40004adc 	.word	0x40004adc
400049c4:	40004adc 	.word	0x40004adc
400049c8:	40004adc 	.word	0x40004adc
400049cc:	40004adc 	.word	0x40004adc
400049d0:	40004adc 	.word	0x40004adc
400049d4:	40004adc 	.word	0x40004adc
400049d8:	40004adc 	.word	0x40004adc
400049dc:	40004adc 	.word	0x40004adc
400049e0:	40004adc 	.word	0x40004adc
400049e4:	40004adc 	.word	0x40004adc
400049e8:	40004adc 	.word	0x40004adc
400049ec:	40004adc 	.word	0x40004adc
400049f0:	40004adc 	.word	0x40004adc
400049f4:	40004adc 	.word	0x40004adc
400049f8:	40004b18 	.word	0x40004b18
400049fc:	40004adc 	.word	0x40004adc
40004a00:	40004adc 	.word	0x40004adc
40004a04:	40004adc 	.word	0x40004adc
40004a08:	40004adc 	.word	0x40004adc
40004a0c:	40004adc 	.word	0x40004adc
40004a10:	40004adc 	.word	0x40004adc
40004a14:	40004adc 	.word	0x40004adc
40004a18:	40004adc 	.word	0x40004adc
40004a1c:	40004adc 	.word	0x40004adc
40004a20:	40004adc 	.word	0x40004adc
40004a24:	40004af4 	.word	0x40004af4
40004a28:	40004af4 	.word	0x40004af4
40004a2c:	40004adc 	.word	0x40004adc
40004a30:	40004adc 	.word	0x40004adc
40004a34:	40004b18 	.word	0x40004b18
40004a38:	40004adc 	.word	0x40004adc
40004a3c:	40004adc 	.word	0x40004adc
40004a40:	40004adc 	.word	0x40004adc
40004a44:	40004adc 	.word	0x40004adc
40004a48:	40004b10 	.word	0x40004b10
40004a4c:	40004adc 	.word	0x40004adc
40004a50:	40004adc 	.word	0x40004adc
40004a54:	40004adc 	.word	0x40004adc
40004a58:	40004adc 	.word	0x40004adc
40004a5c:	40004b18 	.word	0x40004b18
40004a60:	40004aec 	.word	0x40004aec
40004a64:	40004adc 	.word	0x40004adc
40004a68:	40004adc 	.word	0x40004adc
40004a6c:	40004adc 	.word	0x40004adc
40004a70:	40004adc 	.word	0x40004adc
40004a74:	40004adc 	.word	0x40004adc
40004a78:	40004adc 	.word	0x40004adc
40004a7c:	40004adc 	.word	0x40004adc
40004a80:	40004adc 	.word	0x40004adc
40004a84:	40004adc 	.word	0x40004adc
40004a88:	40004adc 	.word	0x40004adc
40004a8c:	40004adc 	.word	0x40004adc
40004a90:	40004adc 	.word	0x40004adc
40004a94:	40004adc 	.word	0x40004adc
40004a98:	40004b18 	.word	0x40004b18
40004a9c:	40004b18 	.word	0x40004b18
40004aa0:	40004adc 	.word	0x40004adc
40004aa4:	40004b10 	.word	0x40004b10
40004aa8:	40004b10 	.word	0x40004b10
40004aac:	40004b10 	.word	0x40004b10
40004ab0:	40004b10 	.word	0x40004b10
40004ab4:	40004b18 	.word	0x40004b18
40004ab8:	40004adc 	.word	0x40004adc
40004abc:	40004adc 	.word	0x40004adc
40004ac0:	40004adc 	.word	0x40004adc
40004ac4:	40004adc 	.word	0x40004adc
40004ac8:	40004adc 	.word	0x40004adc
40004acc:	40004adc 	.word	0x40004adc
40004ad0:	e5953000 	ldr	r3, [r5]
40004ad4:	e2833001 	add	r3, r3, #1
40004ad8:	e5853000 	str	r3, [r5]
40004adc:	e5942004 	ldr	r2, [r4, #4]
40004ae0:	e1a01006 	mov	r1, r6
40004ae4:	e1a00005 	mov	r0, r5
40004ae8:	ebffffa0 	bl	40004970 <d_count_templates_scopes>
40004aec:	e5944008 	ldr	r4, [r4, #8]
40004af0:	eaffffa2 	b	40004980 <d_count_templates_scopes+0x10>
40004af4:	e5943004 	ldr	r3, [r4, #4]
40004af8:	e5d33000 	ldrb	r3, [r3]
40004afc:	e3530005 	cmp	r3, #5
40004b00:	05963000 	ldreq	r3, [r6]
40004b04:	02833001 	addeq	r3, r3, #1
40004b08:	05863000 	streq	r3, [r6]
40004b0c:	eafffff2 	b	40004adc <d_count_templates_scopes+0x16c>
40004b10:	e5944004 	ldr	r4, [r4, #4]
40004b14:	eaffff99 	b	40004980 <d_count_templates_scopes+0x10>
40004b18:	e8bd4070 	pop	{r4, r5, r6, lr}
40004b1c:	e12fff1e 	bx	lr

Disassembly of section .text.d_print_flush:

40004b20 <d_print_flush>:
40004b20:	e92d4070 	push	{r4, r5, r6, lr}
40004b24:	e3a05000 	mov	r5, #0
40004b28:	e1a04000 	mov	r4, r0
40004b2c:	e5901100 	ldr	r1, [r0, #256]	; 0x100
40004b30:	e7c05001 	strb	r5, [r0, r1]
40004b34:	e5903108 	ldr	r3, [r0, #264]	; 0x108
40004b38:	e590210c 	ldr	r2, [r0, #268]	; 0x10c
40004b3c:	e1a0e00f 	mov	lr, pc
40004b40:	e12fff13 	bx	r3
40004b44:	e5943124 	ldr	r3, [r4, #292]	; 0x124
40004b48:	e2833001 	add	r3, r3, #1
40004b4c:	e5845100 	str	r5, [r4, #256]	; 0x100
40004b50:	e5843124 	str	r3, [r4, #292]	; 0x124
40004b54:	e8bd4070 	pop	{r4, r5, r6, lr}
40004b58:	e12fff1e 	bx	lr

Disassembly of section .text.d_append_char:

40004b5c <d_append_char>:
40004b5c:	e5903100 	ldr	r3, [r0, #256]	; 0x100
40004b60:	e35300ff 	cmp	r3, #255	; 0xff
40004b64:	e92d4070 	push	{r4, r5, r6, lr}
40004b68:	e1a04000 	mov	r4, r0
40004b6c:	e1a05001 	mov	r5, r1
40004b70:	0bffffea 	bleq	40004b20 <d_print_flush>
40004b74:	e5943100 	ldr	r3, [r4, #256]	; 0x100
40004b78:	e2832001 	add	r2, r3, #1
40004b7c:	e5842100 	str	r2, [r4, #256]	; 0x100
40004b80:	e7c45003 	strb	r5, [r4, r3]
40004b84:	e5c45104 	strb	r5, [r4, #260]	; 0x104
40004b88:	e8bd4070 	pop	{r4, r5, r6, lr}
40004b8c:	e12fff1e 	bx	lr

Disassembly of section .text.d_append_buffer:

40004b90 <d_append_buffer>:
40004b90:	e92d4070 	push	{r4, r5, r6, lr}
40004b94:	e1a06000 	mov	r6, r0
40004b98:	e1a04001 	mov	r4, r1
40004b9c:	e0815002 	add	r5, r1, r2
40004ba0:	e1540005 	cmp	r4, r5
40004ba4:	1a000001 	bne	40004bb0 <d_append_buffer+0x20>
40004ba8:	e8bd4070 	pop	{r4, r5, r6, lr}
40004bac:	e12fff1e 	bx	lr
40004bb0:	e4d41001 	ldrb	r1, [r4], #1
40004bb4:	e1a00006 	mov	r0, r6
40004bb8:	ebffffe7 	bl	40004b5c <d_append_char>
40004bbc:	eafffff7 	b	40004ba0 <d_append_buffer+0x10>

Disassembly of section .text.d_index_template_argument:

40004bc0 <d_index_template_argument>:
40004bc0:	e3510000 	cmp	r1, #0
40004bc4:	aa000007 	bge	40004be8 <d_index_template_argument+0x28>
40004bc8:	e12fff1e 	bx	lr
40004bcc:	e5d03000 	ldrb	r3, [r0]
40004bd0:	e353002f 	cmp	r3, #47	; 0x2f
40004bd4:	1a00000e 	bne	40004c14 <d_index_template_argument+0x54>
40004bd8:	e3510000 	cmp	r1, #0
40004bdc:	0a000003 	beq	40004bf0 <d_index_template_argument+0x30>
40004be0:	e5900008 	ldr	r0, [r0, #8]
40004be4:	e2411001 	sub	r1, r1, #1
40004be8:	e3500000 	cmp	r0, #0
40004bec:	1afffff6 	bne	40004bcc <d_index_template_argument+0xc>
40004bf0:	e2703001 	rsbs	r3, r0, #1
40004bf4:	33a03000 	movcc	r3, #0
40004bf8:	e3510000 	cmp	r1, #0
40004bfc:	01a01003 	moveq	r1, r3
40004c00:	13831001 	orrne	r1, r3, #1
40004c04:	e3510000 	cmp	r1, #0
40004c08:	1a000001 	bne	40004c14 <d_index_template_argument+0x54>
40004c0c:	e5900004 	ldr	r0, [r0, #4]
40004c10:	e12fff1e 	bx	lr
40004c14:	e3a00000 	mov	r0, #0
40004c18:	e12fff1e 	bx	lr

Disassembly of section .text.d_pack_length:

40004c1c <d_pack_length>:
40004c1c:	e1a03000 	mov	r3, r0
40004c20:	e3a00000 	mov	r0, #0
40004c24:	e3530000 	cmp	r3, #0
40004c28:	012fff1e 	bxeq	lr
40004c2c:	e5d32000 	ldrb	r2, [r3]
40004c30:	e352002f 	cmp	r2, #47	; 0x2f
40004c34:	112fff1e 	bxne	lr
40004c38:	e5932004 	ldr	r2, [r3, #4]
40004c3c:	e3520000 	cmp	r2, #0
40004c40:	1a000000 	bne	40004c48 <d_pack_length+0x2c>
40004c44:	e12fff1e 	bx	lr
40004c48:	e2800001 	add	r0, r0, #1
40004c4c:	e5933008 	ldr	r3, [r3, #8]
40004c50:	eafffff3 	b	40004c24 <d_pack_length+0x8>

Disassembly of section .text.d_append_string:

40004c54 <d_append_string>:
40004c54:	e92d4070 	push	{r4, r5, r6, lr}
40004c58:	e1a05000 	mov	r5, r0
40004c5c:	e1a00001 	mov	r0, r1
40004c60:	e1a04001 	mov	r4, r1
40004c64:	eb00207a 	bl	4000ce54 <strlen>
40004c68:	e1a01004 	mov	r1, r4
40004c6c:	e1a02000 	mov	r2, r0
40004c70:	e1a00005 	mov	r0, r5
40004c74:	e8bd4070 	pop	{r4, r5, r6, lr}
40004c78:	eaffffc4 	b	40004b90 <d_append_buffer>

Disassembly of section .text.d_append_num:

40004c7c <d_append_num>:
40004c7c:	e92d4010 	push	{r4, lr}
40004c80:	e1a04000 	mov	r4, r0
40004c84:	e24dd020 	sub	sp, sp, #32
40004c88:	e1a02001 	mov	r2, r1
40004c8c:	e28d0004 	add	r0, sp, #4
40004c90:	e59f1018 	ldr	r1, [pc, #24]	; 40004cb0 <d_append_num+0x34>
40004c94:	eb002015 	bl	4000ccf0 <sprintf>
40004c98:	e28d1004 	add	r1, sp, #4
40004c9c:	e1a00004 	mov	r0, r4
40004ca0:	ebffffeb 	bl	40004c54 <d_append_string>
40004ca4:	e28dd020 	add	sp, sp, #32
40004ca8:	e8bd4010 	pop	{r4, lr}
40004cac:	e12fff1e 	bx	lr
40004cb0:	40019000 	.word	0x40019000

Disassembly of section .text.d_number.isra.0:

40004cb4 <d_number.isra.0>:
40004cb4:	e52de004 	push	{lr}		; (str lr, [sp, #-4]!)
40004cb8:	e5903000 	ldr	r3, [r0]
40004cbc:	e5d32000 	ldrb	r2, [r3]
40004cc0:	e352006e 	cmp	r2, #110	; 0x6e
40004cc4:	02832001 	addeq	r2, r3, #1
40004cc8:	05802000 	streq	r2, [r0]
40004ccc:	03a01001 	moveq	r1, #1
40004cd0:	05d32001 	ldrbeq	r2, [r3, #1]
40004cd4:	13a01000 	movne	r1, #0
40004cd8:	e3a03000 	mov	r3, #0
40004cdc:	e3a0e00a 	mov	lr, #10
40004ce0:	e242c030 	sub	ip, r2, #48	; 0x30
40004ce4:	e35c0009 	cmp	ip, #9
40004ce8:	9a000004 	bls	40004d00 <d_number.isra.0+0x4c>
40004cec:	e3510000 	cmp	r1, #0
40004cf0:	12633000 	rsbne	r3, r3, #0
40004cf4:	e1a00003 	mov	r0, r3
40004cf8:	e49de004 	pop	{lr}		; (ldr lr, [sp], #4)
40004cfc:	e12fff1e 	bx	lr
40004d00:	e023239e 	mla	r3, lr, r3, r2
40004d04:	e5902000 	ldr	r2, [r0]
40004d08:	e282c001 	add	ip, r2, #1
40004d0c:	e580c000 	str	ip, [r0]
40004d10:	e2433030 	sub	r3, r3, #48	; 0x30
40004d14:	e5d22001 	ldrb	r2, [r2, #1]
40004d18:	eafffff0 	b	40004ce0 <d_number.isra.0+0x2c>

Disassembly of section .text.d_number_component:

40004d1c <d_number_component>:
40004d1c:	e92d4070 	push	{r4, r5, r6, lr}
40004d20:	e1a05000 	mov	r5, r0
40004d24:	ebfffe0c 	bl	4000455c <d_make_empty>
40004d28:	e2504000 	subs	r4, r0, #0
40004d2c:	0a000004 	beq	40004d44 <d_number_component+0x28>
40004d30:	e3a03041 	mov	r3, #65	; 0x41
40004d34:	e285000c 	add	r0, r5, #12
40004d38:	e5c43000 	strb	r3, [r4]
40004d3c:	ebffffdc 	bl	40004cb4 <d_number.isra.0>
40004d40:	e5840004 	str	r0, [r4, #4]
40004d44:	e1a00004 	mov	r0, r4
40004d48:	e8bd4070 	pop	{r4, r5, r6, lr}
40004d4c:	e12fff1e 	bx	lr

Disassembly of section .text.d_compact_number:

40004d50 <d_compact_number>:
40004d50:	e92d4010 	push	{r4, lr}
40004d54:	e590300c 	ldr	r3, [r0, #12]
40004d58:	e5d33000 	ldrb	r3, [r3]
40004d5c:	e353005f 	cmp	r3, #95	; 0x5f
40004d60:	e1a04000 	mov	r4, r0
40004d64:	0a00000f 	beq	40004da8 <d_compact_number+0x58>
40004d68:	e353006e 	cmp	r3, #110	; 0x6e
40004d6c:	1a000002 	bne	40004d7c <d_compact_number+0x2c>
40004d70:	e3e00000 	mvn	r0, #0
40004d74:	e8bd4010 	pop	{r4, lr}
40004d78:	e12fff1e 	bx	lr
40004d7c:	e280000c 	add	r0, r0, #12
40004d80:	ebffffcb 	bl	40004cb4 <d_number.isra.0>
40004d84:	e2900001 	adds	r0, r0, #1
40004d88:	4afffff8 	bmi	40004d70 <d_compact_number+0x20>
40004d8c:	e594300c 	ldr	r3, [r4, #12]
40004d90:	e5d32000 	ldrb	r2, [r3]
40004d94:	e352005f 	cmp	r2, #95	; 0x5f
40004d98:	1afffff4 	bne	40004d70 <d_compact_number+0x20>
40004d9c:	e2833001 	add	r3, r3, #1
40004da0:	e584300c 	str	r3, [r4, #12]
40004da4:	eafffff2 	b	40004d74 <d_compact_number+0x24>
40004da8:	e3a00000 	mov	r0, #0
40004dac:	eafffff6 	b	40004d8c <d_compact_number+0x3c>

Disassembly of section .text.d_template_param:

40004db0 <d_template_param>:
40004db0:	e590300c 	ldr	r3, [r0, #12]
40004db4:	e5d32000 	ldrb	r2, [r3]
40004db8:	e3520054 	cmp	r2, #84	; 0x54
40004dbc:	0a000001 	beq	40004dc8 <d_template_param+0x18>
40004dc0:	e3a00000 	mov	r0, #0
40004dc4:	e12fff1e 	bx	lr
40004dc8:	e2833001 	add	r3, r3, #1
40004dcc:	e92d4070 	push	{r4, r5, r6, lr}
40004dd0:	e580300c 	str	r3, [r0, #12]
40004dd4:	e1a04000 	mov	r4, r0
40004dd8:	ebffffdc 	bl	40004d50 <d_compact_number>
40004ddc:	e2505000 	subs	r5, r0, #0
40004de0:	b3a00000 	movlt	r0, #0
40004de4:	ba000008 	blt	40004e0c <d_template_param+0x5c>
40004de8:	e5943028 	ldr	r3, [r4, #40]	; 0x28
40004dec:	e2833001 	add	r3, r3, #1
40004df0:	e5843028 	str	r3, [r4, #40]	; 0x28
40004df4:	e1a00004 	mov	r0, r4
40004df8:	ebfffdd7 	bl	4000455c <d_make_empty>
40004dfc:	e3500000 	cmp	r0, #0
40004e00:	13a03005 	movne	r3, #5
40004e04:	15805004 	strne	r5, [r0, #4]
40004e08:	15c03000 	strbne	r3, [r0]
40004e0c:	e8bd4070 	pop	{r4, r5, r6, lr}
40004e10:	e12fff1e 	bx	lr

Disassembly of section .text.d_discriminator:

40004e14 <d_discriminator>:
40004e14:	e590300c 	ldr	r3, [r0, #12]
40004e18:	e5d32000 	ldrb	r2, [r3]
40004e1c:	e352005f 	cmp	r2, #95	; 0x5f
40004e20:	1a000007 	bne	40004e44 <d_discriminator+0x30>
40004e24:	e2833001 	add	r3, r3, #1
40004e28:	e92d4010 	push	{r4, lr}
40004e2c:	e5a0300c 	str	r3, [r0, #12]!
40004e30:	ebffff9f 	bl	40004cb4 <d_number.isra.0>
40004e34:	e1e00000 	mvn	r0, r0
40004e38:	e8bd4010 	pop	{r4, lr}
40004e3c:	e1a00fa0 	lsr	r0, r0, #31
40004e40:	e12fff1e 	bx	lr
40004e44:	e3a00001 	mov	r0, #1
40004e48:	e12fff1e 	bx	lr

Disassembly of section .text.d_source_name:

40004e4c <d_source_name>:
40004e4c:	e92d4070 	push	{r4, r5, r6, lr}
40004e50:	e1a04000 	mov	r4, r0
40004e54:	e280000c 	add	r0, r0, #12
40004e58:	ebffff95 	bl	40004cb4 <d_number.isra.0>
40004e5c:	e2506000 	subs	r6, r0, #0
40004e60:	d3a00000 	movle	r0, #0
40004e64:	da00002b 	ble	40004f18 <d_source_name+0xcc>
40004e68:	e594500c 	ldr	r5, [r4, #12]
40004e6c:	e5943004 	ldr	r3, [r4, #4]
40004e70:	e0433005 	sub	r3, r3, r5
40004e74:	e1560003 	cmp	r6, r3
40004e78:	c3a00000 	movgt	r0, #0
40004e7c:	ca000024 	bgt	40004f14 <d_source_name+0xc8>
40004e80:	e5942008 	ldr	r2, [r4, #8]
40004e84:	e0853006 	add	r3, r5, r6
40004e88:	e3120004 	tst	r2, #4
40004e8c:	e584300c 	str	r3, [r4, #12]
40004e90:	0a000003 	beq	40004ea4 <d_source_name+0x58>
40004e94:	e7d52006 	ldrb	r2, [r5, r6]
40004e98:	e3520024 	cmp	r2, #36	; 0x24
40004e9c:	02833001 	addeq	r3, r3, #1
40004ea0:	0584300c 	streq	r3, [r4, #12]
40004ea4:	e3560009 	cmp	r6, #9
40004ea8:	da00001c 	ble	40004f20 <d_source_name+0xd4>
40004eac:	e3a02008 	mov	r2, #8
40004eb0:	e59f1074 	ldr	r1, [pc, #116]	; 40004f2c <d_source_name+0xe0>
40004eb4:	e1a00005 	mov	r0, r5
40004eb8:	eb001bc1 	bl	4000bdc4 <memcmp>
40004ebc:	e3500000 	cmp	r0, #0
40004ec0:	1a000016 	bne	40004f20 <d_source_name+0xd4>
40004ec4:	e5d52008 	ldrb	r2, [r5, #8]
40004ec8:	e352005f 	cmp	r2, #95	; 0x5f
40004ecc:	1352002e 	cmpne	r2, #46	; 0x2e
40004ed0:	03a03001 	moveq	r3, #1
40004ed4:	13a03000 	movne	r3, #0
40004ed8:	e3520024 	cmp	r2, #36	; 0x24
40004edc:	03833001 	orreq	r3, r3, #1
40004ee0:	e3530000 	cmp	r3, #0
40004ee4:	0a00000d 	beq	40004f20 <d_source_name+0xd4>
40004ee8:	e5d53009 	ldrb	r3, [r5, #9]
40004eec:	e353004e 	cmp	r3, #78	; 0x4e
40004ef0:	1a00000a 	bne	40004f20 <d_source_name+0xd4>
40004ef4:	e3a02015 	mov	r2, #21
40004ef8:	e5943030 	ldr	r3, [r4, #48]	; 0x30
40004efc:	e2833016 	add	r3, r3, #22
40004f00:	e0436006 	sub	r6, r3, r6
40004f04:	e5846030 	str	r6, [r4, #48]	; 0x30
40004f08:	e59f1020 	ldr	r1, [pc, #32]	; 40004f30 <d_source_name+0xe4>
40004f0c:	e1a00004 	mov	r0, r4
40004f10:	ebfffe00 	bl	40004718 <d_make_name>
40004f14:	e584002c 	str	r0, [r4, #44]	; 0x2c
40004f18:	e8bd4070 	pop	{r4, r5, r6, lr}
40004f1c:	e12fff1e 	bx	lr
40004f20:	e1a02006 	mov	r2, r6
40004f24:	e1a01005 	mov	r1, r5
40004f28:	eafffff7 	b	40004f0c <d_source_name+0xc0>
40004f2c:	400192ab 	.word	0x400192ab
40004f30:	400192b4 	.word	0x400192b4

Disassembly of section .text.d_abi_tags:

40004f34 <d_abi_tags>:
40004f34:	e92d41f0 	push	{r4, r5, r6, r7, r8, lr}
40004f38:	e1a04000 	mov	r4, r0
40004f3c:	e1a05001 	mov	r5, r1
40004f40:	e3a0704b 	mov	r7, #75	; 0x4b
40004f44:	e590602c 	ldr	r6, [r0, #44]	; 0x2c
40004f48:	e594300c 	ldr	r3, [r4, #12]
40004f4c:	e5d32000 	ldrb	r2, [r3]
40004f50:	e3520042 	cmp	r2, #66	; 0x42
40004f54:	0a000003 	beq	40004f68 <d_abi_tags+0x34>
40004f58:	e1a00005 	mov	r0, r5
40004f5c:	e584602c 	str	r6, [r4, #44]	; 0x2c
40004f60:	e8bd41f0 	pop	{r4, r5, r6, r7, r8, lr}
40004f64:	e12fff1e 	bx	lr
40004f68:	e2833001 	add	r3, r3, #1
40004f6c:	e584300c 	str	r3, [r4, #12]
40004f70:	e1a00004 	mov	r0, r4
40004f74:	ebffffb4 	bl	40004e4c <d_source_name>
40004f78:	e1a02005 	mov	r2, r5
40004f7c:	e1a03000 	mov	r3, r0
40004f80:	e1a01007 	mov	r1, r7
40004f84:	e1a00004 	mov	r0, r4
40004f88:	ebfffd7e 	bl	40004588 <d_make_comp>
40004f8c:	e1a05000 	mov	r5, r0
40004f90:	eaffffec 	b	40004f48 <d_abi_tags+0x14>

Disassembly of section .text.d_call_offset:

40004f94 <d_call_offset>:
40004f94:	e3510000 	cmp	r1, #0
40004f98:	e92d4070 	push	{r4, r5, r6, lr}
40004f9c:	e1a04000 	mov	r4, r0
40004fa0:	1a000009 	bne	40004fcc <d_call_offset+0x38>
40004fa4:	e590300c 	ldr	r3, [r0, #12]
40004fa8:	e5d32000 	ldrb	r2, [r3]
40004fac:	e3520000 	cmp	r2, #0
40004fb0:	1a000002 	bne	40004fc0 <d_call_offset+0x2c>
40004fb4:	e3a00000 	mov	r0, #0
40004fb8:	e8bd4070 	pop	{r4, r5, r6, lr}
40004fbc:	e12fff1e 	bx	lr
40004fc0:	e2832001 	add	r2, r3, #1
40004fc4:	e580200c 	str	r2, [r0, #12]
40004fc8:	e5d31000 	ldrb	r1, [r3]
40004fcc:	e3510068 	cmp	r1, #104	; 0x68
40004fd0:	0284000c 	addeq	r0, r4, #12
40004fd4:	0a00000b 	beq	40005008 <d_call_offset+0x74>
40004fd8:	e3510076 	cmp	r1, #118	; 0x76
40004fdc:	1afffff4 	bne	40004fb4 <d_call_offset+0x20>
40004fe0:	e284500c 	add	r5, r4, #12
40004fe4:	e1a00005 	mov	r0, r5
40004fe8:	ebffff31 	bl	40004cb4 <d_number.isra.0>
40004fec:	e594300c 	ldr	r3, [r4, #12]
40004ff0:	e5d32000 	ldrb	r2, [r3]
40004ff4:	e352005f 	cmp	r2, #95	; 0x5f
40004ff8:	1affffed 	bne	40004fb4 <d_call_offset+0x20>
40004ffc:	e1a00005 	mov	r0, r5
40005000:	e2833001 	add	r3, r3, #1
40005004:	e584300c 	str	r3, [r4, #12]
40005008:	ebffff29 	bl	40004cb4 <d_number.isra.0>
4000500c:	e594300c 	ldr	r3, [r4, #12]
40005010:	e5d32000 	ldrb	r2, [r3]
40005014:	e352005f 	cmp	r2, #95	; 0x5f
40005018:	1affffe5 	bne	40004fb4 <d_call_offset+0x20>
4000501c:	e2833001 	add	r3, r3, #1
40005020:	e584300c 	str	r3, [r4, #12]
40005024:	e3a00001 	mov	r0, #1
40005028:	eaffffe2 	b	40004fb8 <d_call_offset+0x24>

Disassembly of section .text.op_is_new_cast.isra.2:

4000502c <op_is_new_cast.isra.2>:
4000502c:	e5903000 	ldr	r3, [r0]
40005030:	e5d32001 	ldrb	r2, [r3, #1]
40005034:	e3520063 	cmp	r2, #99	; 0x63
40005038:	1a000007 	bne	4000505c <op_is_new_cast.isra.2+0x30>
4000503c:	e5d33000 	ldrb	r3, [r3]
40005040:	e2430063 	sub	r0, r3, #99	; 0x63
40005044:	e2433072 	sub	r3, r3, #114	; 0x72
40005048:	e3530001 	cmp	r3, #1
4000504c:	83500001 	cmphi	r0, #1
40005050:	93a00001 	movls	r0, #1
40005054:	83a00000 	movhi	r0, #0
40005058:	e12fff1e 	bx	lr
4000505c:	e3a00000 	mov	r0, #0
40005060:	e12fff1e 	bx	lr

Disassembly of section .text.d_lookup_template_argument.isra.6:

40005064 <d_lookup_template_argument.isra.6>:
40005064:	e5903110 	ldr	r3, [r0, #272]	; 0x110
40005068:	e3530000 	cmp	r3, #0
4000506c:	15933004 	ldrne	r3, [r3, #4]
40005070:	15911000 	ldrne	r1, [r1]
40005074:	15930008 	ldrne	r0, [r3, #8]
40005078:	1afffed0 	bne	40004bc0 <d_index_template_argument>
4000507c:	e3a02001 	mov	r2, #1
40005080:	e5802118 	str	r2, [r0, #280]	; 0x118
40005084:	e1a00003 	mov	r0, r3
40005088:	e12fff1e 	bx	lr

Disassembly of section .text.d_find_pack:

4000508c <d_find_pack>:
4000508c:	e92d4070 	push	{r4, r5, r6, lr}
40005090:	e1a05000 	mov	r5, r0
40005094:	e1a04001 	mov	r4, r1
40005098:	e3540000 	cmp	r4, #0
4000509c:	0a00000b 	beq	400050d0 <d_find_pack+0x44>
400050a0:	e5d43000 	ldrb	r3, [r4]
400050a4:	e353002c 	cmp	r3, #44	; 0x2c
400050a8:	0a000008 	beq	400050d0 <d_find_pack+0x44>
400050ac:	8a000016 	bhi	4000510c <d_find_pack+0x80>
400050b0:	e3530007 	cmp	r3, #7
400050b4:	0a000012 	beq	40005104 <d_find_pack+0x78>
400050b8:	8a000006 	bhi	400050d8 <d_find_pack+0x4c>
400050bc:	e3530005 	cmp	r3, #5
400050c0:	0a000021 	beq	4000514c <d_find_pack+0xc0>
400050c4:	8a000001 	bhi	400050d0 <d_find_pack+0x44>
400050c8:	e3530000 	cmp	r3, #0
400050cc:	1a000007 	bne	400050f0 <d_find_pack+0x64>
400050d0:	e3a00000 	mov	r0, #0
400050d4:	ea000024 	b	4000516c <d_find_pack+0xe0>
400050d8:	e3530018 	cmp	r3, #24
400050dc:	0afffffb 	beq	400050d0 <d_find_pack+0x44>
400050e0:	e3530027 	cmp	r3, #39	; 0x27
400050e4:	0afffff9 	beq	400050d0 <d_find_pack+0x44>
400050e8:	e3530008 	cmp	r3, #8
400050ec:	0a000004 	beq	40005104 <d_find_pack+0x78>
400050f0:	e5941004 	ldr	r1, [r4, #4]
400050f4:	e1a00005 	mov	r0, r5
400050f8:	ebffffe3 	bl	4000508c <d_find_pack>
400050fc:	e3500000 	cmp	r0, #0
40005100:	1a000019 	bne	4000516c <d_find_pack+0xe0>
40005104:	e5944008 	ldr	r4, [r4, #8]
40005108:	eaffffe2 	b	40005098 <d_find_pack+0xc>
4000510c:	e3530041 	cmp	r3, #65	; 0x41
40005110:	8a000005 	bhi	4000512c <d_find_pack+0xa0>
40005114:	e3530040 	cmp	r3, #64	; 0x40
40005118:	2affffec 	bcs	400050d0 <d_find_pack+0x44>
4000511c:	e3530031 	cmp	r3, #49	; 0x31
40005120:	0affffea 	beq	400050d0 <d_find_pack+0x44>
40005124:	e3530032 	cmp	r3, #50	; 0x32
40005128:	eaffffef 	b	400050ec <d_find_pack+0x60>
4000512c:	e3530045 	cmp	r3, #69	; 0x45
40005130:	3affffee 	bcc	400050f0 <d_find_pack+0x64>
40005134:	e3530047 	cmp	r3, #71	; 0x47
40005138:	9affffe4 	bls	400050d0 <d_find_pack+0x44>
4000513c:	e243304a 	sub	r3, r3, #74	; 0x4a
40005140:	e3530001 	cmp	r3, #1
40005144:	8affffe9 	bhi	400050f0 <d_find_pack+0x64>
40005148:	eaffffe0 	b	400050d0 <d_find_pack+0x44>
4000514c:	e2841004 	add	r1, r4, #4
40005150:	e1a00005 	mov	r0, r5
40005154:	ebffffc2 	bl	40005064 <d_lookup_template_argument.isra.6>
40005158:	e3500000 	cmp	r0, #0
4000515c:	0affffdb 	beq	400050d0 <d_find_pack+0x44>
40005160:	e5d03000 	ldrb	r3, [r0]
40005164:	e353002f 	cmp	r3, #47	; 0x2f
40005168:	1affffd8 	bne	400050d0 <d_find_pack+0x44>
4000516c:	e8bd4070 	pop	{r4, r5, r6, lr}
40005170:	e12fff1e 	bx	lr

Disassembly of section .text.d_growable_string_callback_adapter:

40005174 <d_growable_string_callback_adapter>:
40005174:	e92d41f0 	push	{r4, r5, r6, r7, r8, lr}
40005178:	e1a04002 	mov	r4, r2
4000517c:	e5922004 	ldr	r2, [r2, #4]
40005180:	e2813001 	add	r3, r1, #1
40005184:	e5945008 	ldr	r5, [r4, #8]
40005188:	e0833002 	add	r3, r3, r2
4000518c:	e1530005 	cmp	r3, r5
40005190:	e1a08000 	mov	r8, r0
40005194:	e1a06001 	mov	r6, r1
40005198:	9a000014 	bls	400051f0 <d_growable_string_callback_adapter+0x7c>
4000519c:	e594200c 	ldr	r2, [r4, #12]
400051a0:	e3520000 	cmp	r2, #0
400051a4:	1a000011 	bne	400051f0 <d_growable_string_callback_adapter+0x7c>
400051a8:	e3550000 	cmp	r5, #0
400051ac:	03a05002 	moveq	r5, #2
400051b0:	e1530005 	cmp	r3, r5
400051b4:	8a00001e 	bhi	40005234 <d_growable_string_callback_adapter+0xc0>
400051b8:	e1a01005 	mov	r1, r5
400051bc:	e5940000 	ldr	r0, [r4]
400051c0:	eb001c7a 	bl	4000c3b0 <realloc>
400051c4:	e2507000 	subs	r7, r0, #0
400051c8:	15847000 	strne	r7, [r4]
400051cc:	15845008 	strne	r5, [r4, #8]
400051d0:	1a000006 	bne	400051f0 <d_growable_string_callback_adapter+0x7c>
400051d4:	e5940000 	ldr	r0, [r4]
400051d8:	eb0018ca 	bl	4000b508 <free>
400051dc:	e3a03001 	mov	r3, #1
400051e0:	e5847000 	str	r7, [r4]
400051e4:	e5847004 	str	r7, [r4, #4]
400051e8:	e5847008 	str	r7, [r4, #8]
400051ec:	e584300c 	str	r3, [r4, #12]
400051f0:	e594500c 	ldr	r5, [r4, #12]
400051f4:	e3550000 	cmp	r5, #0
400051f8:	1a00000b 	bne	4000522c <d_growable_string_callback_adapter+0xb8>
400051fc:	e1a02006 	mov	r2, r6
40005200:	e8940009 	ldm	r4, {r0, r3}
40005204:	e0800003 	add	r0, r0, r3
40005208:	e1a01008 	mov	r1, r8
4000520c:	eb001b28 	bl	4000beb4 <memcpy>
40005210:	e5943000 	ldr	r3, [r4]
40005214:	e5942004 	ldr	r2, [r4, #4]
40005218:	e0833006 	add	r3, r3, r6
4000521c:	e7c35002 	strb	r5, [r3, r2]
40005220:	e5943004 	ldr	r3, [r4, #4]
40005224:	e0836006 	add	r6, r3, r6
40005228:	e5846004 	str	r6, [r4, #4]
4000522c:	e8bd41f0 	pop	{r4, r5, r6, r7, r8, lr}
40005230:	e12fff1e 	bx	lr
40005234:	e1a05085 	lsl	r5, r5, #1
40005238:	eaffffdc 	b	400051b0 <d_growable_string_callback_adapter+0x3c>

Disassembly of section .text.d_print_expr_op:

4000523c <d_print_expr_op>:
4000523c:	e5d2c000 	ldrb	ip, [r2]
40005240:	e35c0031 	cmp	ip, #49	; 0x31
40005244:	05923004 	ldreq	r3, [r2, #4]
40005248:	09930006 	ldmibeq	r3, {r1, r2}
4000524c:	0afffe4f 	beq	40004b90 <d_append_buffer>
40005250:	ea000055 	b	400053ac <d_print_comp>

Disassembly of section .text.d_maybe_print_fold_expression:

40005254 <d_maybe_print_fold_expression>:
40005254:	e5923004 	ldr	r3, [r2, #4]
40005258:	e5933004 	ldr	r3, [r3, #4]
4000525c:	e5933000 	ldr	r3, [r3]
40005260:	e5d3c000 	ldrb	ip, [r3]
40005264:	e35c0066 	cmp	ip, #102	; 0x66
40005268:	1a00004a 	bne	40005398 <d_maybe_print_fold_expression+0x144>
4000526c:	e92d47f0 	push	{r4, r5, r6, r7, r8, r9, sl, lr}
40005270:	e5922008 	ldr	r2, [r2, #8]
40005274:	e5926008 	ldr	r6, [r2, #8]
40005278:	e5927004 	ldr	r7, [r2, #4]
4000527c:	e5d62000 	ldrb	r2, [r6]
40005280:	e352003b 	cmp	r2, #59	; 0x3b
40005284:	e3e02000 	mvn	r2, #0
40005288:	09960140 	ldmibeq	r6, {r6, r8}
4000528c:	e5909120 	ldr	r9, [r0, #288]	; 0x120
40005290:	e5802120 	str	r2, [r0, #288]	; 0x120
40005294:	e5d33001 	ldrb	r3, [r3, #1]
40005298:	13a08000 	movne	r8, #0
4000529c:	e3530052 	cmp	r3, #82	; 0x52
400052a0:	e1a05001 	mov	r5, r1
400052a4:	e1a04000 	mov	r4, r0
400052a8:	0a000026 	beq	40005348 <d_maybe_print_fold_expression+0xf4>
400052ac:	8a000005 	bhi	400052c8 <d_maybe_print_fold_expression+0x74>
400052b0:	e353004c 	cmp	r3, #76	; 0x4c
400052b4:	0a000023 	beq	40005348 <d_maybe_print_fold_expression+0xf4>
400052b8:	e5849120 	str	r9, [r4, #288]	; 0x120
400052bc:	e3a00001 	mov	r0, #1
400052c0:	e8bd47f0 	pop	{r4, r5, r6, r7, r8, r9, sl, lr}
400052c4:	e12fff1e 	bx	lr
400052c8:	e353006c 	cmp	r3, #108	; 0x6c
400052cc:	0a00000f 	beq	40005310 <d_maybe_print_fold_expression+0xbc>
400052d0:	e3530072 	cmp	r3, #114	; 0x72
400052d4:	1afffff7 	bne	400052b8 <d_maybe_print_fold_expression+0x64>
400052d8:	e3a01028 	mov	r1, #40	; 0x28
400052dc:	ebfffe1e 	bl	40004b5c <d_append_char>
400052e0:	e1a02006 	mov	r2, r6
400052e4:	e1a01005 	mov	r1, r5
400052e8:	e1a00004 	mov	r0, r4
400052ec:	eb0007b5 	bl	400071c8 <d_print_subexpr>
400052f0:	e1a01005 	mov	r1, r5
400052f4:	e1a00004 	mov	r0, r4
400052f8:	e1a02007 	mov	r2, r7
400052fc:	ebffffce 	bl	4000523c <d_print_expr_op>
40005300:	e59f1098 	ldr	r1, [pc, #152]	; 400053a0 <d_maybe_print_fold_expression+0x14c>
40005304:	e1a00004 	mov	r0, r4
40005308:	ebfffe51 	bl	40004c54 <d_append_string>
4000530c:	eaffffe9 	b	400052b8 <d_maybe_print_fold_expression+0x64>
40005310:	e59f108c 	ldr	r1, [pc, #140]	; 400053a4 <d_maybe_print_fold_expression+0x150>
40005314:	ebfffe4e 	bl	40004c54 <d_append_string>
40005318:	e1a02007 	mov	r2, r7
4000531c:	e1a01005 	mov	r1, r5
40005320:	e1a00004 	mov	r0, r4
40005324:	ebffffc4 	bl	4000523c <d_print_expr_op>
40005328:	e1a02006 	mov	r2, r6
4000532c:	e1a01005 	mov	r1, r5
40005330:	e1a00004 	mov	r0, r4
40005334:	eb0007a3 	bl	400071c8 <d_print_subexpr>
40005338:	e3a01029 	mov	r1, #41	; 0x29
4000533c:	e1a00004 	mov	r0, r4
40005340:	ebfffe05 	bl	40004b5c <d_append_char>
40005344:	eaffffdb 	b	400052b8 <d_maybe_print_fold_expression+0x64>
40005348:	e3a01028 	mov	r1, #40	; 0x28
4000534c:	e1a00004 	mov	r0, r4
40005350:	ebfffe01 	bl	40004b5c <d_append_char>
40005354:	e1a02006 	mov	r2, r6
40005358:	e1a01005 	mov	r1, r5
4000535c:	e1a00004 	mov	r0, r4
40005360:	eb000798 	bl	400071c8 <d_print_subexpr>
40005364:	e1a02007 	mov	r2, r7
40005368:	e1a01005 	mov	r1, r5
4000536c:	e1a00004 	mov	r0, r4
40005370:	ebffffb1 	bl	4000523c <d_print_expr_op>
40005374:	e59f102c 	ldr	r1, [pc, #44]	; 400053a8 <d_maybe_print_fold_expression+0x154>
40005378:	e1a00004 	mov	r0, r4
4000537c:	ebfffe34 	bl	40004c54 <d_append_string>
40005380:	e1a02007 	mov	r2, r7
40005384:	e1a01005 	mov	r1, r5
40005388:	e1a00004 	mov	r0, r4
4000538c:	ebffffaa 	bl	4000523c <d_print_expr_op>
40005390:	e1a02008 	mov	r2, r8
40005394:	eaffffe4 	b	4000532c <d_maybe_print_fold_expression+0xd8>
40005398:	e3a00000 	mov	r0, #0
4000539c:	e12fff1e 	bx	lr
400053a0:	4001900e 	.word	0x4001900e
400053a4:	40019009 	.word	0x40019009
400053a8:	4001900a 	.word	0x4001900a

Disassembly of section .text.d_print_comp:

400053ac <d_print_comp>:
400053ac:	e92d4ff0 	push	{r4, r5, r6, r7, r8, r9, sl, fp, lr}
400053b0:	e5903128 	ldr	r3, [r0, #296]	; 0x128
400053b4:	e24dd05c 	sub	sp, sp, #92	; 0x5c
400053b8:	e1a06001 	mov	r6, r1
400053bc:	e3520000 	cmp	r2, #0
400053c0:	e28d1008 	add	r1, sp, #8
400053c4:	e1a04000 	mov	r4, r0
400053c8:	e58d2008 	str	r2, [sp, #8]
400053cc:	e58d300c 	str	r3, [sp, #12]
400053d0:	e5801128 	str	r1, [r0, #296]	; 0x128
400053d4:	1a000006 	bne	400053f4 <d_print_comp+0x48>
400053d8:	e3a03001 	mov	r3, #1
400053dc:	e5843118 	str	r3, [r4, #280]	; 0x118
400053e0:	e59d300c 	ldr	r3, [sp, #12]
400053e4:	e5843128 	str	r3, [r4, #296]	; 0x128
400053e8:	e28dd05c 	add	sp, sp, #92	; 0x5c
400053ec:	e8bd4ff0 	pop	{r4, r5, r6, r7, r8, r9, sl, fp, lr}
400053f0:	e12fff1e 	bx	lr
400053f4:	e5908118 	ldr	r8, [r0, #280]	; 0x118
400053f8:	e3580000 	cmp	r8, #0
400053fc:	1afffff7 	bne	400053e0 <d_print_comp+0x34>
40005400:	e5d23000 	ldrb	r3, [r2]
40005404:	e1a05002 	mov	r5, r2
40005408:	e353004d 	cmp	r3, #77	; 0x4d
4000540c:	979ff103 	ldrls	pc, [pc, r3, lsl #2]
40005410:	ea0005eb 	b	40006bc4 <d_print_comp+0x1818>
40005414:	4000554c 	.word	0x4000554c
40005418:	40005660 	.word	0x40005660
4000541c:	40005660 	.word	0x40005660
40005420:	400056e0 	.word	0x400056e0
40005424:	400057d4 	.word	0x400057d4
40005428:	400058ac 	.word	0x400058ac
4000542c:	40006a94 	.word	0x40006a94
40005430:	40005924 	.word	0x40005924
40005434:	40005934 	.word	0x40005934
40005438:	40005950 	.word	0x40005950
4000543c:	4000596c 	.word	0x4000596c
40005440:	40005988 	.word	0x40005988
40005444:	400059c0 	.word	0x400059c0
40005448:	400059dc 	.word	0x400059dc
4000544c:	400059f8 	.word	0x400059f8
40005450:	40005a14 	.word	0x40005a14
40005454:	40005a30 	.word	0x40005a30
40005458:	40005a4c 	.word	0x40005a4c
4000545c:	40005a68 	.word	0x40005a68
40005460:	40005a84 	.word	0x40005a84
40005464:	40005aa0 	.word	0x40005aa0
40005468:	40005abc 	.word	0x40005abc
4000546c:	40005ad8 	.word	0x40005ad8
40005470:	40005b10 	.word	0x40005b10
40005474:	40005b64 	.word	0x40005b64
40005478:	40005b70 	.word	0x40005b70
4000547c:	40005b70 	.word	0x40005b70
40005480:	40005b70 	.word	0x40005b70
40005484:	40005c70 	.word	0x40005c70
40005488:	40005c70 	.word	0x40005c70
4000548c:	40005c70 	.word	0x40005c70
40005490:	40005c70 	.word	0x40005c70
40005494:	40005c70 	.word	0x40005c70
40005498:	40005c70 	.word	0x40005c70
4000549c:	40005c70 	.word	0x40005c70
400054a0:	40005c24 	.word	0x40005c24
400054a4:	40005c24 	.word	0x40005c24
400054a8:	40005c70 	.word	0x40005c70
400054ac:	40005c70 	.word	0x40005c70
400054b0:	40005db8 	.word	0x40005db8
400054b4:	40005dd4 	.word	0x40005dd4
400054b8:	40005de4 	.word	0x40005de4
400054bc:	40005e90 	.word	0x40005e90
400054c0:	40005f98 	.word	0x40005f98
400054c4:	40005fec 	.word	0x40005fec
400054c8:	40005f98 	.word	0x40005f98
400054cc:	40006044 	.word	0x40006044
400054d0:	40006044 	.word	0x40006044
400054d4:	400060b4 	.word	0x400060b4
400054d8:	400060f0 	.word	0x400060f0
400054dc:	40006140 	.word	0x40006140
400054e0:	40006bc4 	.word	0x40006bc4
400054e4:	4000615c 	.word	0x4000615c
400054e8:	40006228 	.word	0x40006228
400054ec:	40006238 	.word	0x40006238
400054f0:	400063f8 	.word	0x400063f8
400054f4:	400066dc 	.word	0x400066dc
400054f8:	400066e8 	.word	0x400066e8
400054fc:	400067fc 	.word	0x400067fc
40005500:	400067fc 	.word	0x400067fc
40005504:	40006808 	.word	0x40006808
40005508:	40006808 	.word	0x40006808
4000550c:	400069ac 	.word	0x400069ac
40005510:	400069c8 	.word	0x400069c8
40005514:	400069e8 	.word	0x400069e8
40005518:	400069a0 	.word	0x400069a0
4000551c:	400069f4 	.word	0x400069f4
40005520:	40006ad0 	.word	0x40006ad0
40005524:	40006aec 	.word	0x40006aec
40005528:	40006b08 	.word	0x40006b08
4000552c:	40006bc4 	.word	0x40006bc4
40005530:	40006b64 	.word	0x40006b64
40005534:	40005b2c 	.word	0x40005b2c
40005538:	40005b48 	.word	0x40005b48
4000553c:	40006a1c 	.word	0x40006a1c
40005540:	40005628 	.word	0x40005628
40005544:	40005c70 	.word	0x40005c70
40005548:	40006b8c 	.word	0x40006b8c
4000554c:	e3160004 	tst	r6, #4
40005550:	1a000002 	bne	40005560 <d_print_comp+0x1b4>
40005554:	e9920006 	ldmib	r2, {r1, r2}
40005558:	ebfffd8c 	bl	40004b90 <d_append_buffer>
4000555c:	eaffff9f 	b	400053e0 <d_print_comp+0x34>
40005560:	e3a05000 	mov	r5, #0
40005564:	e99200c0 	ldmib	r2, {r6, r7}
40005568:	e0867007 	add	r7, r6, r7
4000556c:	e1570006 	cmp	r7, r6
40005570:	9affff9a 	bls	400053e0 <d_print_comp+0x34>
40005574:	e0473006 	sub	r3, r7, r6
40005578:	e3530003 	cmp	r3, #3
4000557c:	e5d61000 	ldrb	r1, [r6]
40005580:	da000009 	ble	400055ac <d_print_comp+0x200>
40005584:	e351005f 	cmp	r1, #95	; 0x5f
40005588:	1a000007 	bne	400055ac <d_print_comp+0x200>
4000558c:	e5d63001 	ldrb	r3, [r6, #1]
40005590:	e353005f 	cmp	r3, #95	; 0x5f
40005594:	1a000004 	bne	400055ac <d_print_comp+0x200>
40005598:	e5d63002 	ldrb	r3, [r6, #2]
4000559c:	e3530055 	cmp	r3, #85	; 0x55
400055a0:	0286c003 	addeq	ip, r6, #3
400055a4:	01a03005 	moveq	r3, r5
400055a8:	0a000012 	beq	400055f8 <d_print_comp+0x24c>
400055ac:	e1a00004 	mov	r0, r4
400055b0:	ebfffd69 	bl	40004b5c <d_append_char>
400055b4:	e1a08006 	mov	r8, r6
400055b8:	ea000018 	b	40005620 <d_print_comp+0x274>
400055bc:	e4dc2001 	ldrb	r2, [ip], #1
400055c0:	e2420030 	sub	r0, r2, #48	; 0x30
400055c4:	e200e0ff 	and	lr, r0, #255	; 0xff
400055c8:	e35e0009 	cmp	lr, #9
400055cc:	91a02000 	movls	r2, r0
400055d0:	9a000007 	bls	400055f4 <d_print_comp+0x248>
400055d4:	e2420041 	sub	r0, r2, #65	; 0x41
400055d8:	e3500005 	cmp	r0, #5
400055dc:	92422037 	subls	r2, r2, #55	; 0x37
400055e0:	9a000003 	bls	400055f4 <d_print_comp+0x248>
400055e4:	e2420061 	sub	r0, r2, #97	; 0x61
400055e8:	e3500005 	cmp	r0, #5
400055ec:	8a000005 	bhi	40005608 <d_print_comp+0x25c>
400055f0:	e2422057 	sub	r2, r2, #87	; 0x57
400055f4:	e0823203 	add	r3, r2, r3, lsl #4
400055f8:	e157000c 	cmp	r7, ip
400055fc:	e1a0800c 	mov	r8, ip
40005600:	8affffed 	bhi	400055bc <d_print_comp+0x210>
40005604:	eaffffe8 	b	400055ac <d_print_comp+0x200>
40005608:	e35300ff 	cmp	r3, #255	; 0xff
4000560c:	9352005f 	cmpls	r2, #95	; 0x5f
40005610:	1affffe5 	bne	400055ac <d_print_comp+0x200>
40005614:	e20310ff 	and	r1, r3, #255	; 0xff
40005618:	e1a00004 	mov	r0, r4
4000561c:	ebfffd4e 	bl	40004b5c <d_append_char>
40005620:	e2886001 	add	r6, r8, #1
40005624:	eaffffd0 	b	4000556c <d_print_comp+0x1c0>
40005628:	e5922004 	ldr	r2, [r2, #4]
4000562c:	e1a01006 	mov	r1, r6
40005630:	ebffff5d 	bl	400053ac <d_print_comp>
40005634:	e1a00004 	mov	r0, r4
40005638:	e59f1fac 	ldr	r1, [pc, #4012]	; 400065ec <d_print_comp+0x1240>
4000563c:	ebfffd84 	bl	40004c54 <d_append_string>
40005640:	e1a01006 	mov	r1, r6
40005644:	e1a00004 	mov	r0, r4
40005648:	e5952008 	ldr	r2, [r5, #8]
4000564c:	ebffff56 	bl	400053ac <d_print_comp>
40005650:	e3a0105d 	mov	r1, #93	; 0x5d
40005654:	e1a00004 	mov	r0, r4
40005658:	ebfffd3f 	bl	40004b5c <d_append_char>
4000565c:	eaffff5f 	b	400053e0 <d_print_comp+0x34>
40005660:	e5922004 	ldr	r2, [r2, #4]
40005664:	e1a01006 	mov	r1, r6
40005668:	ebffff4f 	bl	400053ac <d_print_comp>
4000566c:	e3160004 	tst	r6, #4
40005670:	1a000016 	bne	400056d0 <d_print_comp+0x324>
40005674:	e59f1f74 	ldr	r1, [pc, #3956]	; 400065f0 <d_print_comp+0x1244>
40005678:	e1a00004 	mov	r0, r4
4000567c:	ebfffd74 	bl	40004c54 <d_append_string>
40005680:	e5955008 	ldr	r5, [r5, #8]
40005684:	e5d53000 	ldrb	r3, [r5]
40005688:	e3530046 	cmp	r3, #70	; 0x46
4000568c:	1a00000a 	bne	400056bc <d_print_comp+0x310>
40005690:	e59f1f5c 	ldr	r1, [pc, #3932]	; 400065f4 <d_print_comp+0x1248>
40005694:	e1a00004 	mov	r0, r4
40005698:	ebfffd6d 	bl	40004c54 <d_append_string>
4000569c:	e5951008 	ldr	r1, [r5, #8]
400056a0:	e1a00004 	mov	r0, r4
400056a4:	e2811001 	add	r1, r1, #1
400056a8:	ebfffd73 	bl	40004c7c <d_append_num>
400056ac:	e59f1f44 	ldr	r1, [pc, #3908]	; 400065f8 <d_print_comp+0x124c>
400056b0:	e1a00004 	mov	r0, r4
400056b4:	ebfffd66 	bl	40004c54 <d_append_string>
400056b8:	e5955004 	ldr	r5, [r5, #4]
400056bc:	e1a02005 	mov	r2, r5
400056c0:	e1a01006 	mov	r1, r6
400056c4:	e1a00004 	mov	r0, r4
400056c8:	ebffff37 	bl	400053ac <d_print_comp>
400056cc:	eaffff43 	b	400053e0 <d_print_comp+0x34>
400056d0:	e3a0102e 	mov	r1, #46	; 0x2e
400056d4:	e1a00004 	mov	r0, r4
400056d8:	ebfffd1f 	bl	40004b5c <d_append_char>
400056dc:	eaffffe7 	b	40005680 <d_print_comp+0x2d4>
400056e0:	e3a07000 	mov	r7, #0
400056e4:	e5903114 	ldr	r3, [r0, #276]	; 0x114
400056e8:	e58d3004 	str	r3, [sp, #4]
400056ec:	e28d3018 	add	r3, sp, #24
400056f0:	e1a0c003 	mov	ip, r3
400056f4:	e1a01007 	mov	r1, r7
400056f8:	e5807114 	str	r7, [r0, #276]	; 0x114
400056fc:	e5928004 	ldr	r8, [r2, #4]
40005700:	e3580000 	cmp	r8, #0
40005704:	0a000001 	beq	40005710 <d_print_comp+0x364>
40005708:	e3570004 	cmp	r7, #4
4000570c:	1a000002 	bne	4000571c <d_print_comp+0x370>
40005710:	e3a03001 	mov	r3, #1
40005714:	e5843118 	str	r3, [r4, #280]	; 0x118
40005718:	eaffff30 	b	400053e0 <d_print_comp+0x34>
4000571c:	e5942114 	ldr	r2, [r4, #276]	; 0x114
40005720:	e5832000 	str	r2, [r3]
40005724:	e5d82000 	ldrb	r2, [r8]
40005728:	e242001c 	sub	r0, r2, #28
4000572c:	e352004c 	cmp	r2, #76	; 0x4c
40005730:	13500004 	cmpne	r0, #4
40005734:	e594b110 	ldr	fp, [r4, #272]	; 0x110
40005738:	e5843114 	str	r3, [r4, #276]	; 0x114
4000573c:	e5838004 	str	r8, [r3, #4]
40005740:	e5831008 	str	r1, [r3, #8]
40005744:	e583b00c 	str	fp, [r3, #12]
40005748:	e2877001 	add	r7, r7, #1
4000574c:	e2833010 	add	r3, r3, #16
40005750:	8a00051e 	bhi	40006bd0 <d_print_comp+0x1824>
40005754:	e5988004 	ldr	r8, [r8, #4]
40005758:	eaffffe8 	b	40005700 <d_print_comp+0x354>
4000575c:	e3520002 	cmp	r2, #2
40005760:	1a000520 	bne	40006be8 <d_print_comp+0x183c>
40005764:	e598e008 	ldr	lr, [r8, #8]
40005768:	e5de3000 	ldrb	r3, [lr]
4000576c:	e3530046 	cmp	r3, #70	; 0x46
40005770:	1a000002 	bne	40005780 <d_print_comp+0x3d4>
40005774:	e59ee004 	ldr	lr, [lr, #4]
40005778:	e35e0000 	cmp	lr, #0
4000577c:	0affffe3 	beq	40005710 <d_print_comp+0x364>
40005780:	e08cc207 	add	ip, ip, r7, lsl #4
40005784:	e5de3000 	ldrb	r3, [lr]
40005788:	e243201c 	sub	r2, r3, #28
4000578c:	e353004c 	cmp	r3, #76	; 0x4c
40005790:	13520004 	cmpne	r2, #4
40005794:	8a000513 	bhi	40006be8 <d_print_comp+0x183c>
40005798:	e3570004 	cmp	r7, #4
4000579c:	e28c9010 	add	r9, ip, #16
400057a0:	0affffda 	beq	40005710 <d_print_comp+0x364>
400057a4:	e24ca010 	sub	sl, ip, #16
400057a8:	e89a000f 	ldm	sl, {r0, r1, r2, r3}
400057ac:	e88c000f 	stm	ip, {r0, r1, r2, r3}
400057b0:	e3a03000 	mov	r3, #0
400057b4:	e509a010 	str	sl, [r9, #-16]
400057b8:	e90c0808 	stmdb	ip, {r3, fp}
400057bc:	e584c114 	str	ip, [r4, #276]	; 0x114
400057c0:	e50ce00c 	str	lr, [ip, #-12]
400057c4:	e2877001 	add	r7, r7, #1
400057c8:	e59ee004 	ldr	lr, [lr, #4]
400057cc:	e1a0c009 	mov	ip, r9
400057d0:	eaffffeb 	b	40005784 <d_print_comp+0x3d8>
400057d4:	e3a03000 	mov	r3, #0
400057d8:	e5908144 	ldr	r8, [r0, #324]	; 0x144
400057dc:	e5909114 	ldr	r9, [r0, #276]	; 0x114
400057e0:	e5842144 	str	r2, [r4, #324]	; 0x144
400057e4:	e5803114 	str	r3, [r0, #276]	; 0x114
400057e8:	e3160004 	tst	r6, #4
400057ec:	e5927004 	ldr	r7, [r2, #4]
400057f0:	0a000014 	beq	40005848 <d_print_comp+0x49c>
400057f4:	e5d73000 	ldrb	r3, [r7]
400057f8:	e3530000 	cmp	r3, #0
400057fc:	1a000011 	bne	40005848 <d_print_comp+0x49c>
40005800:	e5972008 	ldr	r2, [r7, #8]
40005804:	e3520006 	cmp	r2, #6
40005808:	1a00000e 	bne	40005848 <d_print_comp+0x49c>
4000580c:	e59f1de8 	ldr	r1, [pc, #3560]	; 400065fc <d_print_comp+0x1250>
40005810:	e5970004 	ldr	r0, [r7, #4]
40005814:	eb001da6 	bl	4000ceb4 <strncmp>
40005818:	e3500000 	cmp	r0, #0
4000581c:	1a000009 	bne	40005848 <d_print_comp+0x49c>
40005820:	e1a01006 	mov	r1, r6
40005824:	e1a00004 	mov	r0, r4
40005828:	e5952008 	ldr	r2, [r5, #8]
4000582c:	ebfffede 	bl	400053ac <d_print_comp>
40005830:	e59f1dc8 	ldr	r1, [pc, #3528]	; 40006600 <d_print_comp+0x1254>
40005834:	e1a00004 	mov	r0, r4
40005838:	ebfffd05 	bl	40004c54 <d_append_string>
4000583c:	e5849114 	str	r9, [r4, #276]	; 0x114
40005840:	e5848144 	str	r8, [r4, #324]	; 0x144
40005844:	eafffee5 	b	400053e0 <d_print_comp+0x34>
40005848:	e1a02007 	mov	r2, r7
4000584c:	e1a01006 	mov	r1, r6
40005850:	e1a00004 	mov	r0, r4
40005854:	ebfffed4 	bl	400053ac <d_print_comp>
40005858:	e5d43104 	ldrb	r3, [r4, #260]	; 0x104
4000585c:	e353003c 	cmp	r3, #60	; 0x3c
40005860:	03a01020 	moveq	r1, #32
40005864:	01a00004 	moveq	r0, r4
40005868:	0bfffcbb 	bleq	40004b5c <d_append_char>
4000586c:	e3a0103c 	mov	r1, #60	; 0x3c
40005870:	e1a00004 	mov	r0, r4
40005874:	ebfffcb8 	bl	40004b5c <d_append_char>
40005878:	e5952008 	ldr	r2, [r5, #8]
4000587c:	e1a01006 	mov	r1, r6
40005880:	e1a00004 	mov	r0, r4
40005884:	ebfffec8 	bl	400053ac <d_print_comp>
40005888:	e5d43104 	ldrb	r3, [r4, #260]	; 0x104
4000588c:	e353003e 	cmp	r3, #62	; 0x3e
40005890:	03a01020 	moveq	r1, #32
40005894:	01a00004 	moveq	r0, r4
40005898:	0bfffcaf 	bleq	40004b5c <d_append_char>
4000589c:	e3a0103e 	mov	r1, #62	; 0x3e
400058a0:	e1a00004 	mov	r0, r4
400058a4:	ebfffcac 	bl	40004b5c <d_append_char>
400058a8:	eaffffe3 	b	4000583c <d_print_comp+0x490>
400058ac:	e590311c 	ldr	r3, [r0, #284]	; 0x11c
400058b0:	e3530000 	cmp	r3, #0
400058b4:	0a000007 	beq	400058d8 <d_print_comp+0x52c>
400058b8:	e3a02005 	mov	r2, #5
400058bc:	e59f1d40 	ldr	r1, [pc, #3392]	; 40006604 <d_print_comp+0x1258>
400058c0:	ebfffcb2 	bl	40004b90 <d_append_buffer>
400058c4:	e5951004 	ldr	r1, [r5, #4]
400058c8:	e1a00004 	mov	r0, r4
400058cc:	e2811001 	add	r1, r1, #1
400058d0:	ebfffce9 	bl	40004c7c <d_append_num>
400058d4:	eafffec1 	b	400053e0 <d_print_comp+0x34>
400058d8:	e2821004 	add	r1, r2, #4
400058dc:	ebfffde0 	bl	40005064 <d_lookup_template_argument.isra.6>
400058e0:	e2502000 	subs	r2, r0, #0
400058e4:	0afffebb 	beq	400053d8 <d_print_comp+0x2c>
400058e8:	e5d23000 	ldrb	r3, [r2]
400058ec:	e353002f 	cmp	r3, #47	; 0x2f
400058f0:	1a000003 	bne	40005904 <d_print_comp+0x558>
400058f4:	e5941120 	ldr	r1, [r4, #288]	; 0x120
400058f8:	ebfffcb0 	bl	40004bc0 <d_index_template_argument>
400058fc:	e2502000 	subs	r2, r0, #0
40005900:	0afffeb4 	beq	400053d8 <d_print_comp+0x2c>
40005904:	e5945110 	ldr	r5, [r4, #272]	; 0x110
40005908:	e5953000 	ldr	r3, [r5]
4000590c:	e1a01006 	mov	r1, r6
40005910:	e5843110 	str	r3, [r4, #272]	; 0x110
40005914:	e1a00004 	mov	r0, r4
40005918:	ebfffea3 	bl	400053ac <d_print_comp>
4000591c:	e5845110 	str	r5, [r4, #272]	; 0x110
40005920:	eafffeae 	b	400053e0 <d_print_comp+0x34>
40005924:	e5922008 	ldr	r2, [r2, #8]
40005928:	e1a01006 	mov	r1, r6
4000592c:	ebfffe9e 	bl	400053ac <d_print_comp>
40005930:	eafffeaa 	b	400053e0 <d_print_comp+0x34>
40005934:	e3a0107e 	mov	r1, #126	; 0x7e
40005938:	ebfffc87 	bl	40004b5c <d_append_char>
4000593c:	e5952008 	ldr	r2, [r5, #8]
40005940:	e1a01006 	mov	r1, r6
40005944:	e1a00004 	mov	r0, r4
40005948:	ebfffe97 	bl	400053ac <d_print_comp>
4000594c:	eafffea3 	b	400053e0 <d_print_comp+0x34>
40005950:	e59f1cb0 	ldr	r1, [pc, #3248]	; 40006608 <d_print_comp+0x125c>
40005954:	ebfffcbe 	bl	40004c54 <d_append_string>
40005958:	e5952004 	ldr	r2, [r5, #4]
4000595c:	e1a01006 	mov	r1, r6
40005960:	e1a00004 	mov	r0, r4
40005964:	ebfffe90 	bl	400053ac <d_print_comp>
40005968:	eafffe9c 	b	400053e0 <d_print_comp+0x34>
4000596c:	e59f1c98 	ldr	r1, [pc, #3224]	; 4000660c <d_print_comp+0x1260>
40005970:	ebfffcb7 	bl	40004c54 <d_append_string>
40005974:	e5952004 	ldr	r2, [r5, #4]
40005978:	e1a01006 	mov	r1, r6
4000597c:	e1a00004 	mov	r0, r4
40005980:	ebfffe89 	bl	400053ac <d_print_comp>
40005984:	eafffe95 	b	400053e0 <d_print_comp+0x34>
40005988:	e59f1c80 	ldr	r1, [pc, #3200]	; 40006610 <d_print_comp+0x1264>
4000598c:	ebfffcb0 	bl	40004c54 <d_append_string>
40005990:	e5952004 	ldr	r2, [r5, #4]
40005994:	e1a01006 	mov	r1, r6
40005998:	e1a00004 	mov	r0, r4
4000599c:	ebfffe82 	bl	400053ac <d_print_comp>
400059a0:	e1a00004 	mov	r0, r4
400059a4:	e59f1c68 	ldr	r1, [pc, #3176]	; 40006614 <d_print_comp+0x1268>
400059a8:	ebfffca9 	bl	40004c54 <d_append_string>
400059ac:	e5952008 	ldr	r2, [r5, #8]
400059b0:	e1a01006 	mov	r1, r6
400059b4:	e1a00004 	mov	r0, r4
400059b8:	ebfffe7b 	bl	400053ac <d_print_comp>
400059bc:	eafffe87 	b	400053e0 <d_print_comp+0x34>
400059c0:	e59f1c50 	ldr	r1, [pc, #3152]	; 40006618 <d_print_comp+0x126c>
400059c4:	ebfffca2 	bl	40004c54 <d_append_string>
400059c8:	e5952004 	ldr	r2, [r5, #4]
400059cc:	e1a01006 	mov	r1, r6
400059d0:	e1a00004 	mov	r0, r4
400059d4:	ebfffe74 	bl	400053ac <d_print_comp>
400059d8:	eafffe80 	b	400053e0 <d_print_comp+0x34>
400059dc:	e59f1c38 	ldr	r1, [pc, #3128]	; 4000661c <d_print_comp+0x1270>
400059e0:	ebfffc9b 	bl	40004c54 <d_append_string>
400059e4:	e5952004 	ldr	r2, [r5, #4]
400059e8:	e1a01006 	mov	r1, r6
400059ec:	e1a00004 	mov	r0, r4
400059f0:	ebfffe6d 	bl	400053ac <d_print_comp>
400059f4:	eafffe79 	b	400053e0 <d_print_comp+0x34>
400059f8:	e59f1c20 	ldr	r1, [pc, #3104]	; 40006620 <d_print_comp+0x1274>
400059fc:	ebfffc94 	bl	40004c54 <d_append_string>
40005a00:	e5952004 	ldr	r2, [r5, #4]
40005a04:	e1a01006 	mov	r1, r6
40005a08:	e1a00004 	mov	r0, r4
40005a0c:	ebfffe66 	bl	400053ac <d_print_comp>
40005a10:	eafffe72 	b	400053e0 <d_print_comp+0x34>
40005a14:	e59f1c08 	ldr	r1, [pc, #3080]	; 40006624 <d_print_comp+0x1278>
40005a18:	ebfffc8d 	bl	40004c54 <d_append_string>
40005a1c:	e5952004 	ldr	r2, [r5, #4]
40005a20:	e1a01006 	mov	r1, r6
40005a24:	e1a00004 	mov	r0, r4
40005a28:	ebfffe5f 	bl	400053ac <d_print_comp>
40005a2c:	eafffe6b 	b	400053e0 <d_print_comp+0x34>
40005a30:	e59f1bf0 	ldr	r1, [pc, #3056]	; 40006628 <d_print_comp+0x127c>
40005a34:	ebfffc86 	bl	40004c54 <d_append_string>
40005a38:	e5952004 	ldr	r2, [r5, #4]
40005a3c:	e1a01006 	mov	r1, r6
40005a40:	e1a00004 	mov	r0, r4
40005a44:	ebfffe58 	bl	400053ac <d_print_comp>
40005a48:	eafffe64 	b	400053e0 <d_print_comp+0x34>
40005a4c:	e59f1bd8 	ldr	r1, [pc, #3032]	; 4000662c <d_print_comp+0x1280>
40005a50:	ebfffc7f 	bl	40004c54 <d_append_string>
40005a54:	e5952004 	ldr	r2, [r5, #4]
40005a58:	e1a01006 	mov	r1, r6
40005a5c:	e1a00004 	mov	r0, r4
40005a60:	ebfffe51 	bl	400053ac <d_print_comp>
40005a64:	eafffe5d 	b	400053e0 <d_print_comp+0x34>
40005a68:	e59f1bc0 	ldr	r1, [pc, #3008]	; 40006630 <d_print_comp+0x1284>
40005a6c:	ebfffc78 	bl	40004c54 <d_append_string>
40005a70:	e5952004 	ldr	r2, [r5, #4]
40005a74:	e1a01006 	mov	r1, r6
40005a78:	e1a00004 	mov	r0, r4
40005a7c:	ebfffe4a 	bl	400053ac <d_print_comp>
40005a80:	eafffe56 	b	400053e0 <d_print_comp+0x34>
40005a84:	e59f1ba8 	ldr	r1, [pc, #2984]	; 40006634 <d_print_comp+0x1288>
40005a88:	ebfffc71 	bl	40004c54 <d_append_string>
40005a8c:	e5952004 	ldr	r2, [r5, #4]
40005a90:	e1a01006 	mov	r1, r6
40005a94:	e1a00004 	mov	r0, r4
40005a98:	ebfffe43 	bl	400053ac <d_print_comp>
40005a9c:	eafffe4f 	b	400053e0 <d_print_comp+0x34>
40005aa0:	e59f1b90 	ldr	r1, [pc, #2960]	; 40006638 <d_print_comp+0x128c>
40005aa4:	ebfffc6a 	bl	40004c54 <d_append_string>
40005aa8:	e5952004 	ldr	r2, [r5, #4]
40005aac:	e1a01006 	mov	r1, r6
40005ab0:	e1a00004 	mov	r0, r4
40005ab4:	ebfffe3c 	bl	400053ac <d_print_comp>
40005ab8:	eafffe48 	b	400053e0 <d_print_comp+0x34>
40005abc:	e59f1b78 	ldr	r1, [pc, #2936]	; 4000663c <d_print_comp+0x1290>
40005ac0:	ebfffc63 	bl	40004c54 <d_append_string>
40005ac4:	e5952004 	ldr	r2, [r5, #4]
40005ac8:	e1a01006 	mov	r1, r6
40005acc:	e1a00004 	mov	r0, r4
40005ad0:	ebfffe35 	bl	400053ac <d_print_comp>
40005ad4:	eafffe41 	b	400053e0 <d_print_comp+0x34>
40005ad8:	e59f1b60 	ldr	r1, [pc, #2912]	; 40006640 <d_print_comp+0x1294>
40005adc:	ebfffc5c 	bl	40004c54 <d_append_string>
40005ae0:	e5952008 	ldr	r2, [r5, #8]
40005ae4:	e1a01006 	mov	r1, r6
40005ae8:	e1a00004 	mov	r0, r4
40005aec:	ebfffe2e 	bl	400053ac <d_print_comp>
40005af0:	e1a00004 	mov	r0, r4
40005af4:	e59f1b48 	ldr	r1, [pc, #2888]	; 40006644 <d_print_comp+0x1298>
40005af8:	ebfffc55 	bl	40004c54 <d_append_string>
40005afc:	e5952004 	ldr	r2, [r5, #4]
40005b00:	e1a01006 	mov	r1, r6
40005b04:	e1a00004 	mov	r0, r4
40005b08:	ebfffe27 	bl	400053ac <d_print_comp>
40005b0c:	eafffe33 	b	400053e0 <d_print_comp+0x34>
40005b10:	e59f1b30 	ldr	r1, [pc, #2864]	; 40006648 <d_print_comp+0x129c>
40005b14:	ebfffc4e 	bl	40004c54 <d_append_string>
40005b18:	e5952004 	ldr	r2, [r5, #4]
40005b1c:	e1a01006 	mov	r1, r6
40005b20:	e1a00004 	mov	r0, r4
40005b24:	ebfffe20 	bl	400053ac <d_print_comp>
40005b28:	eafffe2c 	b	400053e0 <d_print_comp+0x34>
40005b2c:	e59f1b18 	ldr	r1, [pc, #2840]	; 4000664c <d_print_comp+0x12a0>
40005b30:	ebfffc47 	bl	40004c54 <d_append_string>
40005b34:	e5952004 	ldr	r2, [r5, #4]
40005b38:	e1a01006 	mov	r1, r6
40005b3c:	e1a00004 	mov	r0, r4
40005b40:	ebfffe19 	bl	400053ac <d_print_comp>
40005b44:	eafffe25 	b	400053e0 <d_print_comp+0x34>
40005b48:	e59f1b00 	ldr	r1, [pc, #2816]	; 40006650 <d_print_comp+0x12a4>
40005b4c:	ebfffc40 	bl	40004c54 <d_append_string>
40005b50:	e5952004 	ldr	r2, [r5, #4]
40005b54:	e1a01006 	mov	r1, r6
40005b58:	e1a00004 	mov	r0, r4
40005b5c:	ebfffe12 	bl	400053ac <d_print_comp>
40005b60:	eafffe1e 	b	400053e0 <d_print_comp+0x34>
40005b64:	e9920006 	ldmib	r2, {r1, r2}
40005b68:	ebfffc08 	bl	40004b90 <d_append_buffer>
40005b6c:	eafffe1b 	b	400053e0 <d_print_comp+0x34>
40005b70:	e5902114 	ldr	r2, [r0, #276]	; 0x114
40005b74:	e3520000 	cmp	r2, #0
40005b78:	1a000018 	bne	40005be0 <d_print_comp+0x834>
40005b7c:	e5941114 	ldr	r1, [r4, #276]	; 0x114
40005b80:	e28d3058 	add	r3, sp, #88	; 0x58
40005b84:	e5231040 	str	r1, [r3, #-64]!	; 0xffffffc0
40005b88:	e5843114 	str	r3, [r4, #276]	; 0x114
40005b8c:	e3a03000 	mov	r3, #0
40005b90:	e58d3020 	str	r3, [sp, #32]
40005b94:	e5943110 	ldr	r3, [r4, #272]	; 0x110
40005b98:	e58d501c 	str	r5, [sp, #28]
40005b9c:	e58d3024 	str	r3, [sp, #36]	; 0x24
40005ba0:	e3520000 	cmp	r2, #0
40005ba4:	05952004 	ldreq	r2, [r5, #4]
40005ba8:	e1a01006 	mov	r1, r6
40005bac:	e1a00004 	mov	r0, r4
40005bb0:	ebfffdfd 	bl	400053ac <d_print_comp>
40005bb4:	e59d3020 	ldr	r3, [sp, #32]
40005bb8:	e3530000 	cmp	r3, #0
40005bbc:	01a02005 	moveq	r2, r5
40005bc0:	01a01006 	moveq	r1, r6
40005bc4:	01a00004 	moveq	r0, r4
40005bc8:	0b00042f 	bleq	40006c8c <d_print_mod>
40005bcc:	e59d3018 	ldr	r3, [sp, #24]
40005bd0:	e3580000 	cmp	r8, #0
40005bd4:	e5843114 	str	r3, [r4, #276]	; 0x114
40005bd8:	15847110 	strne	r7, [r4, #272]	; 0x110
40005bdc:	eafffdff 	b	400053e0 <d_print_comp+0x34>
40005be0:	e5921008 	ldr	r1, [r2, #8]
40005be4:	e3510000 	cmp	r1, #0
40005be8:	1a00000b 	bne	40005c1c <d_print_comp+0x870>
40005bec:	e5920004 	ldr	r0, [r2, #4]
40005bf0:	e5d00000 	ldrb	r0, [r0]
40005bf4:	e240c019 	sub	ip, r0, #25
40005bf8:	e35c0002 	cmp	ip, #2
40005bfc:	8a000069 	bhi	40005da8 <d_print_comp+0x9fc>
40005c00:	e1530000 	cmp	r3, r0
40005c04:	1a000004 	bne	40005c1c <d_print_comp+0x870>
40005c08:	e5952004 	ldr	r2, [r5, #4]
40005c0c:	e1a01006 	mov	r1, r6
40005c10:	e1a00004 	mov	r0, r4
40005c14:	ebfffde4 	bl	400053ac <d_print_comp>
40005c18:	eafffdf0 	b	400053e0 <d_print_comp+0x34>
40005c1c:	e5922000 	ldr	r2, [r2]
40005c20:	eaffffd3 	b	40005b74 <d_print_comp+0x7c8>
40005c24:	e594c11c 	ldr	ip, [r4, #284]	; 0x11c
40005c28:	e35c0000 	cmp	ip, #0
40005c2c:	e5920004 	ldr	r0, [r2, #4]
40005c30:	1a000005 	bne	40005c4c <d_print_comp+0x8a0>
40005c34:	e5d03000 	ldrb	r3, [r0]
40005c38:	e3530005 	cmp	r3, #5
40005c3c:	05943130 	ldreq	r3, [r4, #304]	; 0x130
40005c40:	01a0200c 	moveq	r2, ip
40005c44:	0a000011 	beq	40005c90 <d_print_comp+0x8e4>
40005c48:	e1a0800c 	mov	r8, ip
40005c4c:	e5d03000 	ldrb	r3, [r0]
40005c50:	e3530023 	cmp	r3, #35	; 0x23
40005c54:	0a000055 	beq	40005db0 <d_print_comp+0xa04>
40005c58:	e5d52000 	ldrb	r2, [r5]
40005c5c:	e1520003 	cmp	r2, r3
40005c60:	0a000052 	beq	40005db0 <d_print_comp+0xa04>
40005c64:	e3530024 	cmp	r3, #36	; 0x24
40005c68:	05902004 	ldreq	r2, [r0, #4]
40005c6c:	0affffc2 	beq	40005b7c <d_print_comp+0x7d0>
40005c70:	e3a02000 	mov	r2, #0
40005c74:	eaffffc0 	b	40005b7c <d_print_comp+0x7d0>
40005c78:	e594e12c 	ldr	lr, [r4, #300]	; 0x12c
40005c7c:	e08e8182 	add	r8, lr, r2, lsl #3
40005c80:	e79ee182 	ldr	lr, [lr, r2, lsl #3]
40005c84:	e150000e 	cmp	r0, lr
40005c88:	0a000033 	beq	40005d5c <d_print_comp+0x9b0>
40005c8c:	e2822001 	add	r2, r2, #1
40005c90:	e1520003 	cmp	r2, r3
40005c94:	bafffff7 	blt	40005c78 <d_print_comp+0x8cc>
40005c98:	e5942134 	ldr	r2, [r4, #308]	; 0x134
40005c9c:	e1530002 	cmp	r3, r2
40005ca0:	ba000015 	blt	40005cfc <d_print_comp+0x950>
40005ca4:	e3a03001 	mov	r3, #1
40005ca8:	e5843118 	str	r3, [r4, #280]	; 0x118
40005cac:	e5943118 	ldr	r3, [r4, #280]	; 0x118
40005cb0:	e3530000 	cmp	r3, #0
40005cb4:	1afffdc9 	bne	400053e0 <d_print_comp+0x34>
40005cb8:	e1a0800c 	mov	r8, ip
40005cbc:	e2801004 	add	r1, r0, #4
40005cc0:	e1a00004 	mov	r0, r4
40005cc4:	ebfffce6 	bl	40005064 <d_lookup_template_argument.isra.6>
40005cc8:	e2501000 	subs	r1, r0, #0
40005ccc:	0a000007 	beq	40005cf0 <d_print_comp+0x944>
40005cd0:	e5d13000 	ldrb	r3, [r1]
40005cd4:	e353002f 	cmp	r3, #47	; 0x2f
40005cd8:	11a00001 	movne	r0, r1
40005cdc:	1affffda 	bne	40005c4c <d_print_comp+0x8a0>
40005ce0:	e5941120 	ldr	r1, [r4, #288]	; 0x120
40005ce4:	ebfffbb5 	bl	40004bc0 <d_index_template_argument>
40005ce8:	e3500000 	cmp	r0, #0
40005cec:	1affffd6 	bne	40005c4c <d_print_comp+0x8a0>
40005cf0:	e3580000 	cmp	r8, #0
40005cf4:	15847110 	strne	r7, [r4, #272]	; 0x110
40005cf8:	eafffdb6 	b	400053d8 <d_print_comp+0x2c>
40005cfc:	e594112c 	ldr	r1, [r4, #300]	; 0x12c
40005d00:	e283e001 	add	lr, r3, #1
40005d04:	e0812183 	add	r2, r1, r3, lsl #3
40005d08:	e584e130 	str	lr, [r4, #304]	; 0x130
40005d0c:	e7810183 	str	r0, [r1, r3, lsl #3]
40005d10:	e2823004 	add	r3, r2, #4
40005d14:	e5942110 	ldr	r2, [r4, #272]	; 0x110
40005d18:	e3520000 	cmp	r2, #0
40005d1c:	05832000 	streq	r2, [r3]
40005d20:	0affffe1 	beq	40005cac <d_print_comp+0x900>
40005d24:	e594e13c 	ldr	lr, [r4, #316]	; 0x13c
40005d28:	e5941140 	ldr	r1, [r4, #320]	; 0x140
40005d2c:	e15e0001 	cmp	lr, r1
40005d30:	aaffffdb 	bge	40005ca4 <d_print_comp+0x8f8>
40005d34:	e5941138 	ldr	r1, [r4, #312]	; 0x138
40005d38:	e081118e 	add	r1, r1, lr, lsl #3
40005d3c:	e28ee001 	add	lr, lr, #1
40005d40:	e584e13c 	str	lr, [r4, #316]	; 0x13c
40005d44:	e592e004 	ldr	lr, [r2, #4]
40005d48:	e581e004 	str	lr, [r1, #4]
40005d4c:	e5831000 	str	r1, [r3]
40005d50:	e1a03001 	mov	r3, r1
40005d54:	e5922000 	ldr	r2, [r2]
40005d58:	eaffffee 	b	40005d18 <d_print_comp+0x96c>
40005d5c:	e1a03001 	mov	r3, r1
40005d60:	e5932000 	ldr	r2, [r3]
40005d64:	e1500002 	cmp	r0, r2
40005d68:	0affffd2 	beq	40005cb8 <d_print_comp+0x90c>
40005d6c:	e045e002 	sub	lr, r5, r2
40005d70:	e27e2000 	rsbs	r2, lr, #0
40005d74:	e0a2200e 	adc	r2, r2, lr
40005d78:	e1530001 	cmp	r3, r1
40005d7c:	03a02000 	moveq	r2, #0
40005d80:	e3520000 	cmp	r2, #0
40005d84:	1affffcb 	bne	40005cb8 <d_print_comp+0x90c>
40005d88:	e5933004 	ldr	r3, [r3, #4]
40005d8c:	e3530000 	cmp	r3, #0
40005d90:	1afffff2 	bne	40005d60 <d_print_comp+0x9b4>
40005d94:	e5983004 	ldr	r3, [r8, #4]
40005d98:	e5947110 	ldr	r7, [r4, #272]	; 0x110
40005d9c:	e3a08001 	mov	r8, #1
40005da0:	e5843110 	str	r3, [r4, #272]	; 0x110
40005da4:	eaffffc4 	b	40005cbc <d_print_comp+0x910>
40005da8:	e1a08001 	mov	r8, r1
40005dac:	eaffffaf 	b	40005c70 <d_print_comp+0x8c4>
40005db0:	e1a05000 	mov	r5, r0
40005db4:	eaffffad 	b	40005c70 <d_print_comp+0x8c4>
40005db8:	e5923004 	ldr	r3, [r2, #4]
40005dbc:	e3160004 	tst	r6, #4
40005dc0:	12831008 	addne	r1, r3, #8
40005dc4:	08930006 	ldmeq	r3, {r1, r2}
40005dc8:	18910006 	ldmne	r1, {r1, r2}
40005dcc:	ebfffb6f 	bl	40004b90 <d_append_buffer>
40005dd0:	eafffd82 	b	400053e0 <d_print_comp+0x34>
40005dd4:	e5922004 	ldr	r2, [r2, #4]
40005dd8:	e1a01006 	mov	r1, r6
40005ddc:	ebfffd72 	bl	400053ac <d_print_comp>
40005de0:	eafffd7e 	b	400053e0 <d_print_comp+0x34>
40005de4:	e2167020 	ands	r7, r6, #32
40005de8:	15903114 	ldrne	r3, [r0, #276]	; 0x114
40005dec:	12822008 	addne	r2, r2, #8
40005df0:	13c61060 	bicne	r1, r6, #96	; 0x60
40005df4:	1b0004ac 	blne	400070ac <d_print_function_type.isra.10>
40005df8:	e5952004 	ldr	r2, [r5, #4]
40005dfc:	e3520000 	cmp	r2, #0
40005e00:	0a00001f 	beq	40005e84 <d_print_comp+0xad8>
40005e04:	e3570000 	cmp	r7, #0
40005e08:	e3c61060 	bic	r1, r6, #96	; 0x60
40005e0c:	0a000002 	beq	40005e1c <d_print_comp+0xa70>
40005e10:	e1a00004 	mov	r0, r4
40005e14:	ebfffd64 	bl	400053ac <d_print_comp>
40005e18:	eafffd70 	b	400053e0 <d_print_comp+0x34>
40005e1c:	e3160040 	tst	r6, #64	; 0x40
40005e20:	1a000011 	bne	40005e6c <d_print_comp+0xac0>
40005e24:	e5940114 	ldr	r0, [r4, #276]	; 0x114
40005e28:	e28d3058 	add	r3, sp, #88	; 0x58
40005e2c:	e5230040 	str	r0, [r3, #-64]!	; 0xffffffc0
40005e30:	e5843114 	str	r3, [r4, #276]	; 0x114
40005e34:	e5943110 	ldr	r3, [r4, #272]	; 0x110
40005e38:	e1a00004 	mov	r0, r4
40005e3c:	e58d3024 	str	r3, [sp, #36]	; 0x24
40005e40:	e58d501c 	str	r5, [sp, #28]
40005e44:	e58d7020 	str	r7, [sp, #32]
40005e48:	ebfffd57 	bl	400053ac <d_print_comp>
40005e4c:	e59d3018 	ldr	r3, [sp, #24]
40005e50:	e5843114 	str	r3, [r4, #276]	; 0x114
40005e54:	e59d3020 	ldr	r3, [sp, #32]
40005e58:	e3530000 	cmp	r3, #0
40005e5c:	1afffd5f 	bne	400053e0 <d_print_comp+0x34>
40005e60:	e3a01020 	mov	r1, #32
40005e64:	e1a00004 	mov	r0, r4
40005e68:	ebfffb3b 	bl	40004b5c <d_append_char>
40005e6c:	e5943114 	ldr	r3, [r4, #276]	; 0x114
40005e70:	e2852008 	add	r2, r5, #8
40005e74:	e3c61060 	bic	r1, r6, #96	; 0x60
40005e78:	e1a00004 	mov	r0, r4
40005e7c:	eb00048a 	bl	400070ac <d_print_function_type.isra.10>
40005e80:	eafffd56 	b	400053e0 <d_print_comp+0x34>
40005e84:	e3570000 	cmp	r7, #0
40005e88:	1afffd54 	bne	400053e0 <d_print_comp+0x34>
40005e8c:	eafffff6 	b	40005e6c <d_print_comp+0xac0>
40005e90:	e3a03000 	mov	r3, #0
40005e94:	e5909114 	ldr	r9, [r0, #276]	; 0x114
40005e98:	e3a07001 	mov	r7, #1
40005e9c:	e1a0c009 	mov	ip, r9
40005ea0:	e28d8058 	add	r8, sp, #88	; 0x58
40005ea4:	e5289040 	str	r9, [r8, #-64]!	; 0xffffffc0
40005ea8:	e58d3020 	str	r3, [sp, #32]
40005eac:	e5903110 	ldr	r3, [r0, #272]	; 0x110
40005eb0:	e5808114 	str	r8, [r0, #276]	; 0x114
40005eb4:	e58d201c 	str	r2, [sp, #28]
40005eb8:	e58d3024 	str	r3, [sp, #36]	; 0x24
40005ebc:	e35c0000 	cmp	ip, #0
40005ec0:	0a000004 	beq	40005ed8 <d_print_comp+0xb2c>
40005ec4:	e59c3004 	ldr	r3, [ip, #4]
40005ec8:	e5d33000 	ldrb	r3, [r3]
40005ecc:	e2433019 	sub	r3, r3, #25
40005ed0:	e3530002 	cmp	r3, #2
40005ed4:	9a000012 	bls	40005f24 <d_print_comp+0xb78>
40005ed8:	e5952008 	ldr	r2, [r5, #8]
40005edc:	e1a01006 	mov	r1, r6
40005ee0:	e1a00004 	mov	r0, r4
40005ee4:	ebfffd30 	bl	400053ac <d_print_comp>
40005ee8:	e5849114 	str	r9, [r4, #276]	; 0x114
40005eec:	e59d9020 	ldr	r9, [sp, #32]
40005ef0:	e3590000 	cmp	r9, #0
40005ef4:	01a0a207 	lsleq	sl, r7, #4
40005ef8:	03e0b00f 	mvneq	fp, #15
40005efc:	1afffd37 	bne	400053e0 <d_print_comp+0x34>
40005f00:	e2899001 	add	r9, r9, #1
40005f04:	e1570009 	cmp	r7, r9
40005f08:	1a00001b 	bne	40005f7c <d_print_comp+0xbd0>
40005f0c:	e5943114 	ldr	r3, [r4, #276]	; 0x114
40005f10:	e2852004 	add	r2, r5, #4
40005f14:	e1a01006 	mov	r1, r6
40005f18:	e1a00004 	mov	r0, r4
40005f1c:	eb00042b 	bl	40006fd0 <d_print_array_type.isra.9>
40005f20:	eafffd2e 	b	400053e0 <d_print_comp+0x34>
40005f24:	e59c3008 	ldr	r3, [ip, #8]
40005f28:	e3530000 	cmp	r3, #0
40005f2c:	1a000010 	bne	40005f74 <d_print_comp+0xbc8>
40005f30:	e3570003 	cmp	r7, #3
40005f34:	83a03001 	movhi	r3, #1
40005f38:	85843118 	strhi	r3, [r4, #280]	; 0x118
40005f3c:	8afffd27 	bhi	400053e0 <d_print_comp+0x34>
40005f40:	e1a0e207 	lsl	lr, r7, #4
40005f44:	e28d3058 	add	r3, sp, #88	; 0x58
40005f48:	e083b00e 	add	fp, r3, lr
40005f4c:	e89c000f 	ldm	ip, {r0, r1, r2, r3}
40005f50:	e24ba040 	sub	sl, fp, #64	; 0x40
40005f54:	e88a000f 	stm	sl, {r0, r1, r2, r3}
40005f58:	e5943114 	ldr	r3, [r4, #276]	; 0x114
40005f5c:	e50b3040 	str	r3, [fp, #-64]	; 0xffffffc0
40005f60:	e3a03001 	mov	r3, #1
40005f64:	e088e00e 	add	lr, r8, lr
40005f68:	e584e114 	str	lr, [r4, #276]	; 0x114
40005f6c:	e58c3008 	str	r3, [ip, #8]
40005f70:	e0877003 	add	r7, r7, r3
40005f74:	e59cc000 	ldr	ip, [ip]
40005f78:	eaffffcf 	b	40005ebc <d_print_comp+0xb10>
40005f7c:	e023a99b 	mla	r3, fp, r9, sl
40005f80:	e0883003 	add	r3, r8, r3
40005f84:	e5932004 	ldr	r2, [r3, #4]
40005f88:	e1a01006 	mov	r1, r6
40005f8c:	e1a00004 	mov	r0, r4
40005f90:	eb00033d 	bl	40006c8c <d_print_mod>
40005f94:	eaffffd9 	b	40005f00 <d_print_comp+0xb54>
40005f98:	e5902114 	ldr	r2, [r0, #276]	; 0x114
40005f9c:	e28d3058 	add	r3, sp, #88	; 0x58
40005fa0:	e5232040 	str	r2, [r3, #-64]!	; 0xffffffc0
40005fa4:	e5803114 	str	r3, [r0, #276]	; 0x114
40005fa8:	e3a03000 	mov	r3, #0
40005fac:	e58d3020 	str	r3, [sp, #32]
40005fb0:	e5903110 	ldr	r3, [r0, #272]	; 0x110
40005fb4:	e5952008 	ldr	r2, [r5, #8]
40005fb8:	e1a01006 	mov	r1, r6
40005fbc:	e58d3024 	str	r3, [sp, #36]	; 0x24
40005fc0:	e58d501c 	str	r5, [sp, #28]
40005fc4:	ebfffcf8 	bl	400053ac <d_print_comp>
40005fc8:	e59d3020 	ldr	r3, [sp, #32]
40005fcc:	e3530000 	cmp	r3, #0
40005fd0:	01a02005 	moveq	r2, r5
40005fd4:	01a01006 	moveq	r1, r6
40005fd8:	01a00004 	moveq	r0, r4
40005fdc:	0b00032a 	bleq	40006c8c <d_print_mod>
40005fe0:	e59d3018 	ldr	r3, [sp, #24]
40005fe4:	e5843114 	str	r3, [r4, #276]	; 0x114
40005fe8:	eafffcfc 	b	400053e0 <d_print_comp+0x34>
40005fec:	e1d230fa 	ldrsh	r3, [r2, #10]
40005ff0:	e3530000 	cmp	r3, #0
40005ff4:	159f1658 	ldrne	r1, [pc, #1624]	; 40006654 <d_print_comp+0x12a8>
40005ff8:	1bfffb15 	blne	40004c54 <d_append_string>
40005ffc:	e5952004 	ldr	r2, [r5, #4]
40006000:	e59f3650 	ldr	r3, [pc, #1616]	; 40006658 <d_print_comp+0x12ac>
40006004:	e5921004 	ldr	r1, [r2, #4]
40006008:	e1510003 	cmp	r1, r3
4000600c:	0a000005 	beq	40006028 <d_print_comp+0xc7c>
40006010:	e1a01006 	mov	r1, r6
40006014:	e1a00004 	mov	r0, r4
40006018:	ebfffce3 	bl	400053ac <d_print_comp>
4000601c:	e3a01020 	mov	r1, #32
40006020:	e1a00004 	mov	r0, r4
40006024:	ebfffacc 	bl	40004b5c <d_append_char>
40006028:	e1d530f8 	ldrsh	r3, [r5, #8]
4000602c:	e3530000 	cmp	r3, #0
40006030:	159f1624 	ldrne	r1, [pc, #1572]	; 4000665c <d_print_comp+0x12b0>
40006034:	059f1624 	ldreq	r1, [pc, #1572]	; 40006660 <d_print_comp+0x12b4>
40006038:	e1a00004 	mov	r0, r4
4000603c:	ebfffb04 	bl	40004c54 <d_append_string>
40006040:	eafffce6 	b	400053e0 <d_print_comp+0x34>
40006044:	e5922004 	ldr	r2, [r2, #4]
40006048:	e3520000 	cmp	r2, #0
4000604c:	11a01006 	movne	r1, r6
40006050:	1bfffcd5 	blne	400053ac <d_print_comp>
40006054:	e5953008 	ldr	r3, [r5, #8]
40006058:	e3530000 	cmp	r3, #0
4000605c:	0afffcdf 	beq	400053e0 <d_print_comp+0x34>
40006060:	e5943100 	ldr	r3, [r4, #256]	; 0x100
40006064:	e35300fd 	cmp	r3, #253	; 0xfd
40006068:	81a00004 	movhi	r0, r4
4000606c:	8bfffaab 	blhi	40004b20 <d_print_flush>
40006070:	e59f163c 	ldr	r1, [pc, #1596]	; 400066b4 <d_print_comp+0x1308>
40006074:	e1a00004 	mov	r0, r4
40006078:	ebfffaf5 	bl	40004c54 <d_append_string>
4000607c:	e5952008 	ldr	r2, [r5, #8]
40006080:	e1a01006 	mov	r1, r6
40006084:	e1a00004 	mov	r0, r4
40006088:	e5948124 	ldr	r8, [r4, #292]	; 0x124
4000608c:	e5947100 	ldr	r7, [r4, #256]	; 0x100
40006090:	ebfffcc5 	bl	400053ac <d_print_comp>
40006094:	e5943124 	ldr	r3, [r4, #292]	; 0x124
40006098:	e1580003 	cmp	r8, r3
4000609c:	1afffccf 	bne	400053e0 <d_print_comp+0x34>
400060a0:	e5943100 	ldr	r3, [r4, #256]	; 0x100
400060a4:	e1570003 	cmp	r7, r3
400060a8:	02477002 	subeq	r7, r7, #2
400060ac:	05847100 	streq	r7, [r4, #256]	; 0x100
400060b0:	eafffcca 	b	400053e0 <d_print_comp+0x34>
400060b4:	e9920024 	ldmib	r2, {r2, r5}
400060b8:	e3520000 	cmp	r2, #0
400060bc:	11a01006 	movne	r1, r6
400060c0:	1bfffcb9 	blne	400053ac <d_print_comp>
400060c4:	e1a00004 	mov	r0, r4
400060c8:	e3a0107b 	mov	r1, #123	; 0x7b
400060cc:	ebfffaa2 	bl	40004b5c <d_append_char>
400060d0:	e1a01006 	mov	r1, r6
400060d4:	e1a00004 	mov	r0, r4
400060d8:	e1a02005 	mov	r2, r5
400060dc:	ebfffcb2 	bl	400053ac <d_print_comp>
400060e0:	e3a0107d 	mov	r1, #125	; 0x7d
400060e4:	e1a00004 	mov	r0, r4
400060e8:	ebfffa9b 	bl	40004b5c <d_append_char>
400060ec:	eafffcbb 	b	400053e0 <d_print_comp+0x34>
400060f0:	e5926004 	ldr	r6, [r2, #4]
400060f4:	e59f1568 	ldr	r1, [pc, #1384]	; 40006664 <d_print_comp+0x12b8>
400060f8:	e5965008 	ldr	r5, [r6, #8]
400060fc:	ebfffad4 	bl	40004c54 <d_append_string>
40006100:	e5963004 	ldr	r3, [r6, #4]
40006104:	e5d33000 	ldrb	r3, [r3]
40006108:	e2433061 	sub	r3, r3, #97	; 0x61
4000610c:	e3530019 	cmp	r3, #25
40006110:	93a01020 	movls	r1, #32
40006114:	91a00004 	movls	r0, r4
40006118:	9bfffa8f 	blls	40004b5c <d_append_char>
4000611c:	e5961004 	ldr	r1, [r6, #4]
40006120:	e0813005 	add	r3, r1, r5
40006124:	e5533001 	ldrb	r3, [r3, #-1]
40006128:	e3530020 	cmp	r3, #32
4000612c:	02455001 	subeq	r5, r5, #1
40006130:	e1a02005 	mov	r2, r5
40006134:	e1a00004 	mov	r0, r4
40006138:	ebfffa94 	bl	40004b90 <d_append_buffer>
4000613c:	eafffca7 	b	400053e0 <d_print_comp+0x34>
40006140:	e59f1520 	ldr	r1, [pc, #1312]	; 40006668 <d_print_comp+0x12bc>
40006144:	ebfffac2 	bl	40004c54 <d_append_string>
40006148:	e5952008 	ldr	r2, [r5, #8]
4000614c:	e1a01006 	mov	r1, r6
40006150:	e1a00004 	mov	r0, r4
40006154:	ebfffc94 	bl	400053ac <d_print_comp>
40006158:	eafffca0 	b	400053e0 <d_print_comp+0x34>
4000615c:	e59f1504 	ldr	r1, [pc, #1284]	; 40006668 <d_print_comp+0x12bc>
40006160:	ebfffabb 	bl	40004c54 <d_append_string>
40006164:	e5942144 	ldr	r2, [r4, #324]	; 0x144
40006168:	e3520000 	cmp	r2, #0
4000616c:	15941110 	ldrne	r1, [r4, #272]	; 0x110
40006170:	128d3058 	addne	r3, sp, #88	; 0x58
40006174:	15231040 	strne	r1, [r3, #-64]!	; 0xffffffc0
40006178:	158d201c 	strne	r2, [sp, #28]
4000617c:	e5952004 	ldr	r2, [r5, #4]
40006180:	15843110 	strne	r3, [r4, #272]	; 0x110
40006184:	e5d23000 	ldrb	r3, [r2]
40006188:	e3530004 	cmp	r3, #4
4000618c:	0a000007 	beq	400061b0 <d_print_comp+0xe04>
40006190:	e1a01006 	mov	r1, r6
40006194:	e1a00004 	mov	r0, r4
40006198:	ebfffc83 	bl	400053ac <d_print_comp>
4000619c:	e5943144 	ldr	r3, [r4, #324]	; 0x144
400061a0:	e3530000 	cmp	r3, #0
400061a4:	159d3018 	ldrne	r3, [sp, #24]
400061a8:	15843110 	strne	r3, [r4, #272]	; 0x110
400061ac:	eafffc8b 	b	400053e0 <d_print_comp+0x34>
400061b0:	e5922004 	ldr	r2, [r2, #4]
400061b4:	e1a01006 	mov	r1, r6
400061b8:	e1a00004 	mov	r0, r4
400061bc:	ebfffc7a 	bl	400053ac <d_print_comp>
400061c0:	e5943144 	ldr	r3, [r4, #324]	; 0x144
400061c4:	e3530000 	cmp	r3, #0
400061c8:	159d3018 	ldrne	r3, [sp, #24]
400061cc:	15843110 	strne	r3, [r4, #272]	; 0x110
400061d0:	e5d43104 	ldrb	r3, [r4, #260]	; 0x104
400061d4:	e353003c 	cmp	r3, #60	; 0x3c
400061d8:	03a01020 	moveq	r1, #32
400061dc:	01a00004 	moveq	r0, r4
400061e0:	0bfffa5d 	bleq	40004b5c <d_append_char>
400061e4:	e3a0103c 	mov	r1, #60	; 0x3c
400061e8:	e1a00004 	mov	r0, r4
400061ec:	ebfffa5a 	bl	40004b5c <d_append_char>
400061f0:	e5953004 	ldr	r3, [r5, #4]
400061f4:	e1a01006 	mov	r1, r6
400061f8:	e5932008 	ldr	r2, [r3, #8]
400061fc:	e1a00004 	mov	r0, r4
40006200:	ebfffc69 	bl	400053ac <d_print_comp>
40006204:	e5d43104 	ldrb	r3, [r4, #260]	; 0x104
40006208:	e353003e 	cmp	r3, #62	; 0x3e
4000620c:	03a01020 	moveq	r1, #32
40006210:	01a00004 	moveq	r0, r4
40006214:	0bfffa50 	bleq	40004b5c <d_append_char>
40006218:	e3a0103e 	mov	r1, #62	; 0x3e
4000621c:	e1a00004 	mov	r0, r4
40006220:	ebfffa4d 	bl	40004b5c <d_append_char>
40006224:	eafffc6d 	b	400053e0 <d_print_comp+0x34>
40006228:	e5922004 	ldr	r2, [r2, #4]
4000622c:	e1a01006 	mov	r1, r6
40006230:	ebfffc01 	bl	4000523c <d_print_expr_op>
40006234:	eafffc69 	b	400053e0 <d_print_comp+0x34>
40006238:	e5929004 	ldr	r9, [r2, #4]
4000623c:	e5d93000 	ldrb	r3, [r9]
40006240:	e3530031 	cmp	r3, #49	; 0x31
40006244:	e5925008 	ldr	r5, [r2, #8]
40006248:	1a000038 	bne	40006330 <d_print_comp+0xf84>
4000624c:	e5993004 	ldr	r3, [r9, #4]
40006250:	e5937000 	ldr	r7, [r3]
40006254:	e59f1410 	ldr	r1, [pc, #1040]	; 4000666c <d_print_comp+0x12c0>
40006258:	e1a00007 	mov	r0, r7
4000625c:	ebffed0f 	bl	400016a0 <strcmp>
40006260:	e3500000 	cmp	r0, #0
40006264:	1a00000a 	bne	40006294 <d_print_comp+0xee8>
40006268:	e5d53000 	ldrb	r3, [r5]
4000626c:	e3530003 	cmp	r3, #3
40006270:	1a000007 	bne	40006294 <d_print_comp+0xee8>
40006274:	e5953004 	ldr	r3, [r5, #4]
40006278:	e5d32000 	ldrb	r2, [r3]
4000627c:	e3520001 	cmp	r2, #1
40006280:	1a000003 	bne	40006294 <d_print_comp+0xee8>
40006284:	e5952008 	ldr	r2, [r5, #8]
40006288:	e5d22000 	ldrb	r2, [r2]
4000628c:	e3520029 	cmp	r2, #41	; 0x29
40006290:	01a05003 	moveq	r5, r3
40006294:	e5d53000 	ldrb	r3, [r5]
40006298:	e3530038 	cmp	r3, #56	; 0x38
4000629c:	1a00026d 	bne	40006c58 <d_print_comp+0x18ac>
400062a0:	e5952004 	ldr	r2, [r5, #4]
400062a4:	e1a01006 	mov	r1, r6
400062a8:	e1a00004 	mov	r0, r4
400062ac:	eb0003c5 	bl	400071c8 <d_print_subexpr>
400062b0:	e1a02009 	mov	r2, r9
400062b4:	e1a01006 	mov	r1, r6
400062b8:	e1a00004 	mov	r0, r4
400062bc:	ebfffbde 	bl	4000523c <d_print_expr_op>
400062c0:	eafffc46 	b	400053e0 <d_print_comp+0x34>
400062c4:	e59f13a4 	ldr	r1, [pc, #932]	; 40006670 <d_print_comp+0x12c4>
400062c8:	e1a00007 	mov	r0, r7
400062cc:	ebffecf3 	bl	400016a0 <strcmp>
400062d0:	e2508000 	subs	r8, r0, #0
400062d4:	1a000018 	bne	4000633c <d_print_comp+0xf90>
400062d8:	e5d53000 	ldrb	r3, [r5]
400062dc:	e353002f 	cmp	r3, #47	; 0x2f
400062e0:	1a00000e 	bne	40006320 <d_print_comp+0xf74>
400062e4:	e5953004 	ldr	r3, [r5, #4]
400062e8:	e3530000 	cmp	r3, #0
400062ec:	0a00000b 	beq	40006320 <d_print_comp+0xf74>
400062f0:	e5d32000 	ldrb	r2, [r3]
400062f4:	e352004a 	cmp	r2, #74	; 0x4a
400062f8:	12888001 	addne	r8, r8, #1
400062fc:	1a000004 	bne	40006314 <d_print_comp+0xf68>
40006300:	e5931004 	ldr	r1, [r3, #4]
40006304:	e1a00004 	mov	r0, r4
40006308:	ebfffb5f 	bl	4000508c <d_find_pack>
4000630c:	ebfffa42 	bl	40004c1c <d_pack_length>
40006310:	e0888000 	add	r8, r8, r0
40006314:	e5955008 	ldr	r5, [r5, #8]
40006318:	e3550000 	cmp	r5, #0
4000631c:	1affffed 	bne	400062d8 <d_print_comp+0xf2c>
40006320:	e1a01008 	mov	r1, r8
40006324:	e1a00004 	mov	r0, r4
40006328:	ebfffa53 	bl	40004c7c <d_append_num>
4000632c:	eafffc2b 	b	400053e0 <d_print_comp+0x34>
40006330:	e3530033 	cmp	r3, #51	; 0x33
40006334:	0a00000b 	beq	40006368 <d_print_comp+0xfbc>
40006338:	e3a07000 	mov	r7, #0
4000633c:	e1a02009 	mov	r2, r9
40006340:	e1a01006 	mov	r1, r6
40006344:	e1a00004 	mov	r0, r4
40006348:	ebfffbbb 	bl	4000523c <d_print_expr_op>
4000634c:	e3570000 	cmp	r7, #0
40006350:	1a00000e 	bne	40006390 <d_print_comp+0xfe4>
40006354:	e1a02005 	mov	r2, r5
40006358:	e1a01006 	mov	r1, r6
4000635c:	e1a00004 	mov	r0, r4
40006360:	eb000398 	bl	400071c8 <d_print_subexpr>
40006364:	eafffc1d 	b	400053e0 <d_print_comp+0x34>
40006368:	e3a01028 	mov	r1, #40	; 0x28
4000636c:	ebfff9fa 	bl	40004b5c <d_append_char>
40006370:	e1a01006 	mov	r1, r6
40006374:	e1a00004 	mov	r0, r4
40006378:	e5992004 	ldr	r2, [r9, #4]
4000637c:	ebfffc0a 	bl	400053ac <d_print_comp>
40006380:	e3a01029 	mov	r1, #41	; 0x29
40006384:	e1a00004 	mov	r0, r4
40006388:	ebfff9f3 	bl	40004b5c <d_append_char>
4000638c:	eafffff0 	b	40006354 <d_print_comp+0xfa8>
40006390:	e59f12dc 	ldr	r1, [pc, #732]	; 40006674 <d_print_comp+0x12c8>
40006394:	e1a00007 	mov	r0, r7
40006398:	ebffecc0 	bl	400016a0 <strcmp>
4000639c:	e3500000 	cmp	r0, #0
400063a0:	1a000004 	bne	400063b8 <d_print_comp+0x100c>
400063a4:	e1a02005 	mov	r2, r5
400063a8:	e1a01006 	mov	r1, r6
400063ac:	e1a00004 	mov	r0, r4
400063b0:	ebfffbfd 	bl	400053ac <d_print_comp>
400063b4:	eafffc09 	b	400053e0 <d_print_comp+0x34>
400063b8:	e59f12b8 	ldr	r1, [pc, #696]	; 40006678 <d_print_comp+0x12cc>
400063bc:	e1a00007 	mov	r0, r7
400063c0:	ebffecb6 	bl	400016a0 <strcmp>
400063c4:	e3500000 	cmp	r0, #0
400063c8:	1affffe1 	bne	40006354 <d_print_comp+0xfa8>
400063cc:	e1a00004 	mov	r0, r4
400063d0:	e3a01028 	mov	r1, #40	; 0x28
400063d4:	ebfff9e0 	bl	40004b5c <d_append_char>
400063d8:	e1a01006 	mov	r1, r6
400063dc:	e1a00004 	mov	r0, r4
400063e0:	e1a02005 	mov	r2, r5
400063e4:	ebfffbf0 	bl	400053ac <d_print_comp>
400063e8:	e3a01029 	mov	r1, #41	; 0x29
400063ec:	e1a00004 	mov	r0, r4
400063f0:	ebfff9d9 	bl	40004b5c <d_append_char>
400063f4:	eafffbf9 	b	400053e0 <d_print_comp+0x34>
400063f8:	e5923008 	ldr	r3, [r2, #8]
400063fc:	e5d33000 	ldrb	r3, [r3]
40006400:	e3530038 	cmp	r3, #56	; 0x38
40006404:	1afffbf3 	bne	400053d8 <d_print_comp+0x2c>
40006408:	e5921004 	ldr	r1, [r2, #4]
4000640c:	e5910004 	ldr	r0, [r1, #4]
40006410:	ebfffb05 	bl	4000502c <op_is_new_cast.isra.2>
40006414:	e3500000 	cmp	r0, #0
40006418:	0a000017 	beq	4000647c <d_print_comp+0x10d0>
4000641c:	e1a02001 	mov	r2, r1
40006420:	e1a00004 	mov	r0, r4
40006424:	e1a01006 	mov	r1, r6
40006428:	ebfffb83 	bl	4000523c <d_print_expr_op>
4000642c:	e1a00004 	mov	r0, r4
40006430:	e3a0103c 	mov	r1, #60	; 0x3c
40006434:	ebfff9c8 	bl	40004b5c <d_append_char>
40006438:	e5953008 	ldr	r3, [r5, #8]
4000643c:	e1a01006 	mov	r1, r6
40006440:	e5932004 	ldr	r2, [r3, #4]
40006444:	e1a00004 	mov	r0, r4
40006448:	ebfffbd7 	bl	400053ac <d_print_comp>
4000644c:	e1a00004 	mov	r0, r4
40006450:	e59f1224 	ldr	r1, [pc, #548]	; 4000667c <d_print_comp+0x12d0>
40006454:	ebfff9fe 	bl	40004c54 <d_append_string>
40006458:	e5953008 	ldr	r3, [r5, #8]
4000645c:	e1a01006 	mov	r1, r6
40006460:	e1a00004 	mov	r0, r4
40006464:	e5932008 	ldr	r2, [r3, #8]
40006468:	ebfffbcf 	bl	400053ac <d_print_comp>
4000646c:	e3a01029 	mov	r1, #41	; 0x29
40006470:	e1a00004 	mov	r0, r4
40006474:	ebfff9b8 	bl	40004b5c <d_append_char>
40006478:	eafffbd8 	b	400053e0 <d_print_comp+0x34>
4000647c:	e1a02005 	mov	r2, r5
40006480:	e1a01006 	mov	r1, r6
40006484:	e1a00004 	mov	r0, r4
40006488:	ebfffb71 	bl	40005254 <d_maybe_print_fold_expression>
4000648c:	e3500000 	cmp	r0, #0
40006490:	1afffbd2 	bne	400053e0 <d_print_comp+0x34>
40006494:	e5953004 	ldr	r3, [r5, #4]
40006498:	e5d32000 	ldrb	r2, [r3]
4000649c:	e3520031 	cmp	r2, #49	; 0x31
400064a0:	1a000009 	bne	400064cc <d_print_comp+0x1120>
400064a4:	e5933004 	ldr	r3, [r3, #4]
400064a8:	e5932008 	ldr	r2, [r3, #8]
400064ac:	e3520001 	cmp	r2, #1
400064b0:	1a000005 	bne	400064cc <d_print_comp+0x1120>
400064b4:	e5933004 	ldr	r3, [r3, #4]
400064b8:	e5d33000 	ldrb	r3, [r3]
400064bc:	e353003e 	cmp	r3, #62	; 0x3e
400064c0:	03a01028 	moveq	r1, #40	; 0x28
400064c4:	01a00004 	moveq	r0, r4
400064c8:	0bfff9a3 	bleq	40004b5c <d_append_char>
400064cc:	e5953004 	ldr	r3, [r5, #4]
400064d0:	e5933004 	ldr	r3, [r3, #4]
400064d4:	e59f11a4 	ldr	r1, [pc, #420]	; 40006680 <d_print_comp+0x12d4>
400064d8:	e5930000 	ldr	r0, [r3]
400064dc:	ebffec6f 	bl	400016a0 <strcmp>
400064e0:	e3500000 	cmp	r0, #0
400064e4:	e5952008 	ldr	r2, [r5, #8]
400064e8:	1a00002f 	bne	400065ac <d_print_comp+0x1200>
400064ec:	e5923004 	ldr	r3, [r2, #4]
400064f0:	e5d31000 	ldrb	r1, [r3]
400064f4:	e3510003 	cmp	r1, #3
400064f8:	1a00002b 	bne	400065ac <d_print_comp+0x1200>
400064fc:	e5932008 	ldr	r2, [r3, #8]
40006500:	e5d22000 	ldrb	r2, [r2]
40006504:	e3520029 	cmp	r2, #41	; 0x29
40006508:	13a02001 	movne	r2, #1
4000650c:	15842118 	strne	r2, [r4, #280]	; 0x118
40006510:	e5932004 	ldr	r2, [r3, #4]
40006514:	e1a01006 	mov	r1, r6
40006518:	e1a00004 	mov	r0, r4
4000651c:	eb000329 	bl	400071c8 <d_print_subexpr>
40006520:	e5957004 	ldr	r7, [r5, #4]
40006524:	e5973004 	ldr	r3, [r7, #4]
40006528:	e5938000 	ldr	r8, [r3]
4000652c:	e59f1150 	ldr	r1, [pc, #336]	; 40006684 <d_print_comp+0x12d8>
40006530:	e1a00008 	mov	r0, r8
40006534:	ebffec59 	bl	400016a0 <strcmp>
40006538:	e3500000 	cmp	r0, #0
4000653c:	1a00001c 	bne	400065b4 <d_print_comp+0x1208>
40006540:	e3a0105b 	mov	r1, #91	; 0x5b
40006544:	e1a00004 	mov	r0, r4
40006548:	ebfff983 	bl	40004b5c <d_append_char>
4000654c:	e5953008 	ldr	r3, [r5, #8]
40006550:	e1a01006 	mov	r1, r6
40006554:	e1a00004 	mov	r0, r4
40006558:	e5932008 	ldr	r2, [r3, #8]
4000655c:	ebfffb92 	bl	400053ac <d_print_comp>
40006560:	e3a0105d 	mov	r1, #93	; 0x5d
40006564:	e1a00004 	mov	r0, r4
40006568:	ebfff97b 	bl	40004b5c <d_append_char>
4000656c:	e5953004 	ldr	r3, [r5, #4]
40006570:	e5d32000 	ldrb	r2, [r3]
40006574:	e3520031 	cmp	r2, #49	; 0x31
40006578:	1afffb98 	bne	400053e0 <d_print_comp+0x34>
4000657c:	e5933004 	ldr	r3, [r3, #4]
40006580:	e5932008 	ldr	r2, [r3, #8]
40006584:	e3520001 	cmp	r2, #1
40006588:	1afffb94 	bne	400053e0 <d_print_comp+0x34>
4000658c:	e5933004 	ldr	r3, [r3, #4]
40006590:	e5d33000 	ldrb	r3, [r3]
40006594:	e353003e 	cmp	r3, #62	; 0x3e
40006598:	1afffb90 	bne	400053e0 <d_print_comp+0x34>
4000659c:	e3a01029 	mov	r1, #41	; 0x29
400065a0:	e1a00004 	mov	r0, r4
400065a4:	ebfff96c 	bl	40004b5c <d_append_char>
400065a8:	eafffb8c 	b	400053e0 <d_print_comp+0x34>
400065ac:	e5922004 	ldr	r2, [r2, #4]
400065b0:	eaffffd7 	b	40006514 <d_print_comp+0x1168>
400065b4:	e59f10c4 	ldr	r1, [pc, #196]	; 40006680 <d_print_comp+0x12d4>
400065b8:	e1a00008 	mov	r0, r8
400065bc:	ebffec37 	bl	400016a0 <strcmp>
400065c0:	e3500000 	cmp	r0, #0
400065c4:	11a02007 	movne	r2, r7
400065c8:	11a01006 	movne	r1, r6
400065cc:	11a00004 	movne	r0, r4
400065d0:	1bfffb19 	blne	4000523c <d_print_expr_op>
400065d4:	e5953008 	ldr	r3, [r5, #8]
400065d8:	e1a01006 	mov	r1, r6
400065dc:	e5932008 	ldr	r2, [r3, #8]
400065e0:	e1a00004 	mov	r0, r4
400065e4:	eb0002f7 	bl	400071c8 <d_print_subexpr>
400065e8:	eaffffdf 	b	4000656c <d_print_comp+0x11c0>
400065ec:	40019029 	.word	0x40019029
400065f0:	4001903e 	.word	0x4001903e
400065f4:	4001902f 	.word	0x4001902f
400065f8:	4001903d 	.word	0x4001903d
400065fc:	40019041 	.word	0x40019041
40006600:	40019048 	.word	0x40019048
40006604:	4001904b 	.word	0x4001904b
40006608:	40019067 	.word	0x40019067
4000660c:	40019051 	.word	0x40019051
40006610:	4001905a 	.word	0x4001905a
40006614:	40019073 	.word	0x40019073
40006618:	40019078 	.word	0x40019078
4000661c:	40019086 	.word	0x40019086
40006620:	40019099 	.word	0x40019099
40006624:	400190aa 	.word	0x400190aa
40006628:	400190ae 	.word	0x400190ae
4000662c:	400190c0 	.word	0x400190c0
40006630:	400190db 	.word	0x400190db
40006634:	400190eb 	.word	0x400190eb
40006638:	400190ff 	.word	0x400190ff
4000663c:	40019116 	.word	0x40019116
40006640:	40019130 	.word	0x40019130
40006644:	40019054 	.word	0x40019054
40006648:	40019146 	.word	0x40019146
4000664c:	4001915c 	.word	0x4001915c
40006650:	40019158 	.word	0x40019158
40006654:	40019173 	.word	0x40019173
40006658:	400189cc 	.word	0x400189cc
4000665c:	40019179 	.word	0x40019179
40006660:	40019180 	.word	0x40019180
40006664:	4001918a 	.word	0x4001918a
40006668:	40019193 	.word	0x40019193
4000666c:	4001919d 	.word	0x4001919d
40006670:	400191a0 	.word	0x400191a0
40006674:	400191a3 	.word	0x400191a3
40006678:	400191a6 	.word	0x400191a6
4000667c:	400191a9 	.word	0x400191a9
40006680:	400191ac 	.word	0x400191ac
40006684:	400191af 	.word	0x400191af
40006688:	400191b2 	.word	0x400191b2
4000668c:	400191b5 	.word	0x400191b5
40006690:	400191b9 	.word	0x400191b9
40006694:	400191be 	.word	0x400191be
40006698:	400191c2 	.word	0x400191c2
4000669c:	400191c1 	.word	0x400191c1
400066a0:	400191cb 	.word	0x400191cb
400066a4:	400191c5 	.word	0x400191c5
400066a8:	400191d0 	.word	0x400191d0
400066ac:	400191df 	.word	0x400191df
400066b0:	4001900a 	.word	0x4001900a
400066b4:	40019187 	.word	0x40019187
400066b8:	400191ea 	.word	0x400191ea
400066bc:	400191ef 	.word	0x400191ef
400066c0:	400191f6 	.word	0x400191f6
400066c4:	40019214 	.word	0x40019214
400066c8:	40019231 	.word	0x40019231
400066cc:	4001923a 	.word	0x4001923a
400066d0:	4001923d 	.word	0x4001923d
400066d4:	4001924c 	.word	0x4001924c
400066d8:	40019255 	.word	0x40019255
400066dc:	e3a03001 	mov	r3, #1
400066e0:	e5803118 	str	r3, [r0, #280]	; 0x118
400066e4:	eafffb3d 	b	400053e0 <d_print_comp+0x34>
400066e8:	e5923008 	ldr	r3, [r2, #8]
400066ec:	e5d32000 	ldrb	r2, [r3]
400066f0:	e352003a 	cmp	r2, #58	; 0x3a
400066f4:	1afffb37 	bne	400053d8 <d_print_comp+0x2c>
400066f8:	e5933008 	ldr	r3, [r3, #8]
400066fc:	e5d33000 	ldrb	r3, [r3]
40006700:	e353003b 	cmp	r3, #59	; 0x3b
40006704:	1afffb33 	bne	400053d8 <d_print_comp+0x2c>
40006708:	e1a02005 	mov	r2, r5
4000670c:	e1a01006 	mov	r1, r6
40006710:	ebfffacf 	bl	40005254 <d_maybe_print_fold_expression>
40006714:	e3500000 	cmp	r0, #0
40006718:	1afffb30 	bne	400053e0 <d_print_comp+0x34>
4000671c:	e5953008 	ldr	r3, [r5, #8]
40006720:	e5959004 	ldr	r9, [r5, #4]
40006724:	e5937004 	ldr	r7, [r3, #4]
40006728:	e5933008 	ldr	r3, [r3, #8]
4000672c:	e5938004 	ldr	r8, [r3, #4]
40006730:	e5935008 	ldr	r5, [r3, #8]
40006734:	e5993004 	ldr	r3, [r9, #4]
40006738:	e51f10b8 	ldr	r1, [pc, #-184]	; 40006688 <d_print_comp+0x12dc>
4000673c:	e5930000 	ldr	r0, [r3]
40006740:	ebffebd6 	bl	400016a0 <strcmp>
40006744:	e3500000 	cmp	r0, #0
40006748:	1a000013 	bne	4000679c <d_print_comp+0x13f0>
4000674c:	e1a02007 	mov	r2, r7
40006750:	e1a01006 	mov	r1, r6
40006754:	e1a00004 	mov	r0, r4
40006758:	eb00029a 	bl	400071c8 <d_print_subexpr>
4000675c:	e1a02009 	mov	r2, r9
40006760:	e1a01006 	mov	r1, r6
40006764:	e1a00004 	mov	r0, r4
40006768:	ebfffab3 	bl	4000523c <d_print_expr_op>
4000676c:	e1a02008 	mov	r2, r8
40006770:	e1a01006 	mov	r1, r6
40006774:	e1a00004 	mov	r0, r4
40006778:	eb000292 	bl	400071c8 <d_print_subexpr>
4000677c:	e1a00004 	mov	r0, r4
40006780:	e51f10fc 	ldr	r1, [pc, #-252]	; 4000668c <d_print_comp+0x12e0>
40006784:	ebfff932 	bl	40004c54 <d_append_string>
40006788:	e1a02005 	mov	r2, r5
4000678c:	e1a01006 	mov	r1, r6
40006790:	e1a00004 	mov	r0, r4
40006794:	eb00028b 	bl	400071c8 <d_print_subexpr>
40006798:	eafffb10 	b	400053e0 <d_print_comp+0x34>
4000679c:	e51f1114 	ldr	r1, [pc, #-276]	; 40006690 <d_print_comp+0x12e4>
400067a0:	e1a00004 	mov	r0, r4
400067a4:	ebfff92a 	bl	40004c54 <d_append_string>
400067a8:	e5973004 	ldr	r3, [r7, #4]
400067ac:	e3530000 	cmp	r3, #0
400067b0:	0a000006 	beq	400067d0 <d_print_comp+0x1424>
400067b4:	e1a01006 	mov	r1, r6
400067b8:	e1a00004 	mov	r0, r4
400067bc:	e1a02007 	mov	r2, r7
400067c0:	eb000280 	bl	400071c8 <d_print_subexpr>
400067c4:	e3a01020 	mov	r1, #32
400067c8:	e1a00004 	mov	r0, r4
400067cc:	ebfff8e2 	bl	40004b5c <d_append_char>
400067d0:	e1a02008 	mov	r2, r8
400067d4:	e1a01006 	mov	r1, r6
400067d8:	e1a00004 	mov	r0, r4
400067dc:	ebfffaf2 	bl	400053ac <d_print_comp>
400067e0:	e3550000 	cmp	r5, #0
400067e4:	0afffafd 	beq	400053e0 <d_print_comp+0x34>
400067e8:	e1a02005 	mov	r2, r5
400067ec:	e1a01006 	mov	r1, r6
400067f0:	e1a00004 	mov	r0, r4
400067f4:	eb000273 	bl	400071c8 <d_print_subexpr>
400067f8:	eafffaf8 	b	400053e0 <d_print_comp+0x34>
400067fc:	e3a03001 	mov	r3, #1
40006800:	e5803118 	str	r3, [r0, #280]	; 0x118
40006804:	eafffaf5 	b	400053e0 <d_print_comp+0x34>
40006808:	e5922004 	ldr	r2, [r2, #4]
4000680c:	e5d21000 	ldrb	r1, [r2]
40006810:	e3510027 	cmp	r1, #39	; 0x27
40006814:	13a07000 	movne	r7, #0
40006818:	1a000007 	bne	4000683c <d_print_comp+0x1490>
4000681c:	e5922004 	ldr	r2, [r2, #4]
40006820:	e5d27010 	ldrb	r7, [r2, #16]
40006824:	e3570001 	cmp	r7, #1
40006828:	3a000003 	bcc	4000683c <d_print_comp+0x1490>
4000682c:	e3570006 	cmp	r7, #6
40006830:	9a00001e 	bls	400068b0 <d_print_comp+0x1504>
40006834:	e3570007 	cmp	r7, #7
40006838:	0a000044 	beq	40006950 <d_print_comp+0x15a4>
4000683c:	e3a01028 	mov	r1, #40	; 0x28
40006840:	e1a00004 	mov	r0, r4
40006844:	ebfff8c4 	bl	40004b5c <d_append_char>
40006848:	e5952004 	ldr	r2, [r5, #4]
4000684c:	e1a01006 	mov	r1, r6
40006850:	e1a00004 	mov	r0, r4
40006854:	ebfffad4 	bl	400053ac <d_print_comp>
40006858:	e3a01029 	mov	r1, #41	; 0x29
4000685c:	e1a00004 	mov	r0, r4
40006860:	ebfff8bd 	bl	40004b5c <d_append_char>
40006864:	e5d53000 	ldrb	r3, [r5]
40006868:	e353003d 	cmp	r3, #61	; 0x3d
4000686c:	03a0102d 	moveq	r1, #45	; 0x2d
40006870:	01a00004 	moveq	r0, r4
40006874:	0bfff8b8 	bleq	40004b5c <d_append_char>
40006878:	e3570008 	cmp	r7, #8
4000687c:	03a0105b 	moveq	r1, #91	; 0x5b
40006880:	01a00004 	moveq	r0, r4
40006884:	0bfff8b4 	bleq	40004b5c <d_append_char>
40006888:	e5952008 	ldr	r2, [r5, #8]
4000688c:	e1a01006 	mov	r1, r6
40006890:	e1a00004 	mov	r0, r4
40006894:	ebfffac4 	bl	400053ac <d_print_comp>
40006898:	e3570008 	cmp	r7, #8
4000689c:	1afffacf 	bne	400053e0 <d_print_comp+0x34>
400068a0:	e3a0105d 	mov	r1, #93	; 0x5d
400068a4:	e1a00004 	mov	r0, r4
400068a8:	ebfff8ab 	bl	40004b5c <d_append_char>
400068ac:	eafffacb 	b	400053e0 <d_print_comp+0x34>
400068b0:	e5952008 	ldr	r2, [r5, #8]
400068b4:	e5d22000 	ldrb	r2, [r2]
400068b8:	e3520000 	cmp	r2, #0
400068bc:	1affffde 	bne	4000683c <d_print_comp+0x1490>
400068c0:	e353003d 	cmp	r3, #61	; 0x3d
400068c4:	03a0102d 	moveq	r1, #45	; 0x2d
400068c8:	0bfff8a3 	bleq	40004b5c <d_append_char>
400068cc:	e5952008 	ldr	r2, [r5, #8]
400068d0:	e1a01006 	mov	r1, r6
400068d4:	e1a00004 	mov	r0, r4
400068d8:	e2477002 	sub	r7, r7, #2
400068dc:	ebfffab2 	bl	400053ac <d_print_comp>
400068e0:	e3570004 	cmp	r7, #4
400068e4:	979ff107 	ldrls	pc, [pc, r7, lsl #2]
400068e8:	eafffabc 	b	400053e0 <d_print_comp+0x34>
400068ec:	40006900 	.word	0x40006900
400068f0:	40006910 	.word	0x40006910
400068f4:	40006920 	.word	0x40006920
400068f8:	40006930 	.word	0x40006930
400068fc:	40006940 	.word	0x40006940
40006900:	e3a01075 	mov	r1, #117	; 0x75
40006904:	e1a00004 	mov	r0, r4
40006908:	ebfff893 	bl	40004b5c <d_append_char>
4000690c:	eafffab3 	b	400053e0 <d_print_comp+0x34>
40006910:	e3a0106c 	mov	r1, #108	; 0x6c
40006914:	e1a00004 	mov	r0, r4
40006918:	ebfff88f 	bl	40004b5c <d_append_char>
4000691c:	eafffaaf 	b	400053e0 <d_print_comp+0x34>
40006920:	e51f1294 	ldr	r1, [pc, #-660]	; 40006694 <d_print_comp+0x12e8>
40006924:	e1a00004 	mov	r0, r4
40006928:	ebfff8c9 	bl	40004c54 <d_append_string>
4000692c:	eafffaab 	b	400053e0 <d_print_comp+0x34>
40006930:	e51f12a0 	ldr	r1, [pc, #-672]	; 40006698 <d_print_comp+0x12ec>
40006934:	e1a00004 	mov	r0, r4
40006938:	ebfff8c5 	bl	40004c54 <d_append_string>
4000693c:	eafffaa7 	b	400053e0 <d_print_comp+0x34>
40006940:	e51f12ac 	ldr	r1, [pc, #-684]	; 4000669c <d_print_comp+0x12f0>
40006944:	e1a00004 	mov	r0, r4
40006948:	ebfff8c1 	bl	40004c54 <d_append_string>
4000694c:	eafffaa3 	b	400053e0 <d_print_comp+0x34>
40006950:	e5952008 	ldr	r2, [r5, #8]
40006954:	e5d21000 	ldrb	r1, [r2]
40006958:	e3510000 	cmp	r1, #0
4000695c:	1affffb6 	bne	4000683c <d_print_comp+0x1490>
40006960:	e5921008 	ldr	r1, [r2, #8]
40006964:	e3510001 	cmp	r1, #1
40006968:	0353003c 	cmpeq	r3, #60	; 0x3c
4000696c:	1affffb2 	bne	4000683c <d_print_comp+0x1490>
40006970:	e5923004 	ldr	r3, [r2, #4]
40006974:	e5d33000 	ldrb	r3, [r3]
40006978:	e3530030 	cmp	r3, #48	; 0x30
4000697c:	0a000004 	beq	40006994 <d_print_comp+0x15e8>
40006980:	e3530031 	cmp	r3, #49	; 0x31
40006984:	1affffac 	bne	4000683c <d_print_comp+0x1490>
40006988:	e51f12f0 	ldr	r1, [pc, #-752]	; 400066a0 <d_print_comp+0x12f4>
4000698c:	ebfff8b0 	bl	40004c54 <d_append_string>
40006990:	eafffa92 	b	400053e0 <d_print_comp+0x34>
40006994:	e51f12f8 	ldr	r1, [pc, #-760]	; 400066a4 <d_print_comp+0x12f8>
40006998:	ebfff8ad 	bl	40004c54 <d_append_string>
4000699c:	eafffa8f 	b	400053e0 <d_print_comp+0x34>
400069a0:	e5921004 	ldr	r1, [r2, #4]
400069a4:	ebfff8b4 	bl	40004c7c <d_append_num>
400069a8:	eafffa8c 	b	400053e0 <d_print_comp+0x34>
400069ac:	e51f130c 	ldr	r1, [pc, #-780]	; 400066a8 <d_print_comp+0x12fc>
400069b0:	ebfff8a7 	bl	40004c54 <d_append_string>
400069b4:	e5952004 	ldr	r2, [r5, #4]
400069b8:	e1a01006 	mov	r1, r6
400069bc:	e1a00004 	mov	r0, r4
400069c0:	ebfffa79 	bl	400053ac <d_print_comp>
400069c4:	eafffa85 	b	400053e0 <d_print_comp+0x34>
400069c8:	e1a01006 	mov	r1, r6
400069cc:	e5922004 	ldr	r2, [r2, #4]
400069d0:	ebfffa75 	bl	400053ac <d_print_comp>
400069d4:	e5952008 	ldr	r2, [r5, #8]
400069d8:	e1a01006 	mov	r1, r6
400069dc:	e1a00004 	mov	r0, r4
400069e0:	ebfffa71 	bl	400053ac <d_print_comp>
400069e4:	eafffa7d 	b	400053e0 <d_print_comp+0x34>
400069e8:	e5d21004 	ldrb	r1, [r2, #4]
400069ec:	ebfff85a 	bl	40004b5c <d_append_char>
400069f0:	eafffa7a 	b	400053e0 <d_print_comp+0x34>
400069f4:	e51f1350 	ldr	r1, [pc, #-848]	; 400066ac <d_print_comp+0x1300>
400069f8:	ebfff895 	bl	40004c54 <d_append_string>
400069fc:	e1a01006 	mov	r1, r6
40006a00:	e1a00004 	mov	r0, r4
40006a04:	e5952004 	ldr	r2, [r5, #4]
40006a08:	ebfffa67 	bl	400053ac <d_print_comp>
40006a0c:	e3a01029 	mov	r1, #41	; 0x29
40006a10:	e1a00004 	mov	r0, r4
40006a14:	ebfff850 	bl	40004b5c <d_append_char>
40006a18:	eafffa70 	b	400053e0 <d_print_comp+0x34>
40006a1c:	e5921004 	ldr	r1, [r2, #4]
40006a20:	ebfff999 	bl	4000508c <d_find_pack>
40006a24:	e3500000 	cmp	r0, #0
40006a28:	1a000007 	bne	40006a4c <d_print_comp+0x16a0>
40006a2c:	e1a01006 	mov	r1, r6
40006a30:	e1a00004 	mov	r0, r4
40006a34:	e5952004 	ldr	r2, [r5, #4]
40006a38:	eb0001e2 	bl	400071c8 <d_print_subexpr>
40006a3c:	e51f1394 	ldr	r1, [pc, #-916]	; 400066b0 <d_print_comp+0x1304>
40006a40:	e1a00004 	mov	r0, r4
40006a44:	ebfff882 	bl	40004c54 <d_append_string>
40006a48:	eafffa64 	b	400053e0 <d_print_comp+0x34>
40006a4c:	ebfff872 	bl	40004c1c <d_pack_length>
40006a50:	e1a07000 	mov	r7, r0
40006a54:	e5955004 	ldr	r5, [r5, #4]
40006a58:	e51fa3ac 	ldr	sl, [pc, #-940]	; 400066b4 <d_print_comp+0x1308>
40006a5c:	e2409001 	sub	r9, r0, #1
40006a60:	e1570008 	cmp	r7, r8
40006a64:	dafffa5d 	ble	400053e0 <d_print_comp+0x34>
40006a68:	e5848120 	str	r8, [r4, #288]	; 0x120
40006a6c:	e1a02005 	mov	r2, r5
40006a70:	e1a01006 	mov	r1, r6
40006a74:	e1a00004 	mov	r0, r4
40006a78:	ebfffa4b 	bl	400053ac <d_print_comp>
40006a7c:	e1580009 	cmp	r8, r9
40006a80:	b1a0100a 	movlt	r1, sl
40006a84:	b1a00004 	movlt	r0, r4
40006a88:	bbfff871 	bllt	40004c54 <d_append_string>
40006a8c:	e2888001 	add	r8, r8, #1
40006a90:	eafffff2 	b	40006a60 <d_print_comp+0x16b4>
40006a94:	e5925004 	ldr	r5, [r2, #4]
40006a98:	e3550000 	cmp	r5, #0
40006a9c:	1a000002 	bne	40006aac <d_print_comp+0x1700>
40006aa0:	e51f13f0 	ldr	r1, [pc, #-1008]	; 400066b8 <d_print_comp+0x130c>
40006aa4:	ebfff86a 	bl	40004c54 <d_append_string>
40006aa8:	eafffa4c 	b	400053e0 <d_print_comp+0x34>
40006aac:	e51f13f8 	ldr	r1, [pc, #-1016]	; 400066bc <d_print_comp+0x1310>
40006ab0:	ebfff867 	bl	40004c54 <d_append_string>
40006ab4:	e1a01005 	mov	r1, r5
40006ab8:	e1a00004 	mov	r0, r4
40006abc:	ebfff86e 	bl	40004c7c <d_append_num>
40006ac0:	e3a0107d 	mov	r1, #125	; 0x7d
40006ac4:	e1a00004 	mov	r0, r4
40006ac8:	ebfff823 	bl	40004b5c <d_append_char>
40006acc:	eafffa43 	b	400053e0 <d_print_comp+0x34>
40006ad0:	e51f1418 	ldr	r1, [pc, #-1048]	; 400066c0 <d_print_comp+0x1314>
40006ad4:	ebfff85e 	bl	40004c54 <d_append_string>
40006ad8:	e5952004 	ldr	r2, [r5, #4]
40006adc:	e1a01006 	mov	r1, r6
40006ae0:	e1a00004 	mov	r0, r4
40006ae4:	ebfffa30 	bl	400053ac <d_print_comp>
40006ae8:	eafffa3c 	b	400053e0 <d_print_comp+0x34>
40006aec:	e51f1430 	ldr	r1, [pc, #-1072]	; 400066c4 <d_print_comp+0x1318>
40006af0:	ebfff857 	bl	40004c54 <d_append_string>
40006af4:	e5952004 	ldr	r2, [r5, #4]
40006af8:	e1a01006 	mov	r1, r6
40006afc:	e1a00004 	mov	r0, r4
40006b00:	ebfffa29 	bl	400053ac <d_print_comp>
40006b04:	eafffa35 	b	400053e0 <d_print_comp+0x34>
40006b08:	e51f1448 	ldr	r1, [pc, #-1096]	; 400066c8 <d_print_comp+0x131c>
40006b0c:	ebfff850 	bl	40004c54 <d_append_string>
40006b10:	e594311c 	ldr	r3, [r4, #284]	; 0x11c
40006b14:	e2833001 	add	r3, r3, #1
40006b18:	e584311c 	str	r3, [r4, #284]	; 0x11c
40006b1c:	e1a01006 	mov	r1, r6
40006b20:	e5952004 	ldr	r2, [r5, #4]
40006b24:	e1a00004 	mov	r0, r4
40006b28:	ebfffa1f 	bl	400053ac <d_print_comp>
40006b2c:	e594311c 	ldr	r3, [r4, #284]	; 0x11c
40006b30:	e2433001 	sub	r3, r3, #1
40006b34:	e584311c 	str	r3, [r4, #284]	; 0x11c
40006b38:	e1a00004 	mov	r0, r4
40006b3c:	e51f1478 	ldr	r1, [pc, #-1144]	; 400066cc <d_print_comp+0x1320>
40006b40:	ebfff843 	bl	40004c54 <d_append_string>
40006b44:	e5951008 	ldr	r1, [r5, #8]
40006b48:	e1a00004 	mov	r0, r4
40006b4c:	e2811001 	add	r1, r1, #1
40006b50:	ebfff849 	bl	40004c7c <d_append_num>
40006b54:	e3a0107d 	mov	r1, #125	; 0x7d
40006b58:	e1a00004 	mov	r0, r4
40006b5c:	ebfff7fe 	bl	40004b5c <d_append_char>
40006b60:	eafffa1e 	b	400053e0 <d_print_comp+0x34>
40006b64:	e51f149c 	ldr	r1, [pc, #-1180]	; 400066d0 <d_print_comp+0x1324>
40006b68:	ebfff839 	bl	40004c54 <d_append_string>
40006b6c:	e5951004 	ldr	r1, [r5, #4]
40006b70:	e1a00004 	mov	r0, r4
40006b74:	e2811001 	add	r1, r1, #1
40006b78:	ebfff83f 	bl	40004c7c <d_append_num>
40006b7c:	e3a0107d 	mov	r1, #125	; 0x7d
40006b80:	e1a00004 	mov	r0, r4
40006b84:	ebfff7f4 	bl	40004b5c <d_append_char>
40006b88:	eafffa14 	b	400053e0 <d_print_comp+0x34>
40006b8c:	e5922004 	ldr	r2, [r2, #4]
40006b90:	e1a01006 	mov	r1, r6
40006b94:	ebfffa04 	bl	400053ac <d_print_comp>
40006b98:	e1a00004 	mov	r0, r4
40006b9c:	e51f14d0 	ldr	r1, [pc, #-1232]	; 400066d4 <d_print_comp+0x1328>
40006ba0:	ebfff82b 	bl	40004c54 <d_append_string>
40006ba4:	e1a01006 	mov	r1, r6
40006ba8:	e1a00004 	mov	r0, r4
40006bac:	e5952008 	ldr	r2, [r5, #8]
40006bb0:	ebfff9fd 	bl	400053ac <d_print_comp>
40006bb4:	e3a0105d 	mov	r1, #93	; 0x5d
40006bb8:	e1a00004 	mov	r0, r4
40006bbc:	ebfff7e6 	bl	40004b5c <d_append_char>
40006bc0:	eafffa06 	b	400053e0 <d_print_comp+0x34>
40006bc4:	e3a03001 	mov	r3, #1
40006bc8:	e5803118 	str	r3, [r0, #280]	; 0x118
40006bcc:	eafffa03 	b	400053e0 <d_print_comp+0x34>
40006bd0:	e3520004 	cmp	r2, #4
40006bd4:	1afffae0 	bne	4000575c <d_print_comp+0x3b0>
40006bd8:	e28d3058 	add	r3, sp, #88	; 0x58
40006bdc:	e523b048 	str	fp, [r3, #-72]!	; 0xffffffb8
40006be0:	e58d8014 	str	r8, [sp, #20]
40006be4:	e5843110 	str	r3, [r4, #272]	; 0x110
40006be8:	e5952008 	ldr	r2, [r5, #8]
40006bec:	e1a01006 	mov	r1, r6
40006bf0:	e1a00004 	mov	r0, r4
40006bf4:	ebfff9ec 	bl	400053ac <d_print_comp>
40006bf8:	e5d83000 	ldrb	r3, [r8]
40006bfc:	e3a08020 	mov	r8, #32
40006c00:	e3530004 	cmp	r3, #4
40006c04:	059d3010 	ldreq	r3, [sp, #16]
40006c08:	05843110 	streq	r3, [r4, #272]	; 0x110
40006c0c:	e28d3018 	add	r3, sp, #24
40006c10:	e0835207 	add	r5, r3, r7, lsl #4
40006c14:	e5153008 	ldr	r3, [r5, #-8]
40006c18:	e3530000 	cmp	r3, #0
40006c1c:	e2477001 	sub	r7, r7, #1
40006c20:	1a000006 	bne	40006c40 <d_print_comp+0x1894>
40006c24:	e1a01008 	mov	r1, r8
40006c28:	e1a00004 	mov	r0, r4
40006c2c:	ebfff7ca 	bl	40004b5c <d_append_char>
40006c30:	e515200c 	ldr	r2, [r5, #-12]
40006c34:	e1a01006 	mov	r1, r6
40006c38:	e1a00004 	mov	r0, r4
40006c3c:	eb000012 	bl	40006c8c <d_print_mod>
40006c40:	e3570000 	cmp	r7, #0
40006c44:	e2455010 	sub	r5, r5, #16
40006c48:	1afffff1 	bne	40006c14 <d_print_comp+0x1868>
40006c4c:	e59d3004 	ldr	r3, [sp, #4]
40006c50:	e5843114 	str	r3, [r4, #276]	; 0x114
40006c54:	eafff9e1 	b	400053e0 <d_print_comp+0x34>
40006c58:	e51f1588 	ldr	r1, [pc, #-1416]	; 400066d8 <d_print_comp+0x132c>
40006c5c:	e1a00007 	mov	r0, r7
40006c60:	ebffea8e 	bl	400016a0 <strcmp>
40006c64:	e3500000 	cmp	r0, #0
40006c68:	1afffd95 	bne	400062c4 <d_print_comp+0xf18>
40006c6c:	e1a01005 	mov	r1, r5
40006c70:	e1a00004 	mov	r0, r4
40006c74:	ebfff904 	bl	4000508c <d_find_pack>
40006c78:	ebfff7e7 	bl	40004c1c <d_pack_length>
40006c7c:	e1a01000 	mov	r1, r0
40006c80:	e1a00004 	mov	r0, r4
40006c84:	ebfff7fc 	bl	40004c7c <d_append_num>
40006c88:	eafff9d4 	b	400053e0 <d_print_comp+0x34>

Disassembly of section .text.d_print_mod:

40006c8c <d_print_mod>:
40006c8c:	e5d23000 	ldrb	r3, [r2]
40006c90:	e3530020 	cmp	r3, #32
40006c94:	e92d4070 	push	{r4, r5, r6, lr}
40006c98:	e1a04000 	mov	r4, r0
40006c9c:	0a000047 	beq	40006dc0 <d_print_mod+0x134>
40006ca0:	e1a06001 	mov	r6, r1
40006ca4:	e1a05002 	mov	r5, r2
40006ca8:	8a000017 	bhi	40006d0c <d_print_mod+0x80>
40006cac:	e353001b 	cmp	r3, #27
40006cb0:	0a000034 	beq	40006d88 <d_print_mod+0xfc>
40006cb4:	8a000007 	bhi	40006cd8 <d_print_mod+0x4c>
40006cb8:	e3530019 	cmp	r3, #25
40006cbc:	0a00002c 	beq	40006d74 <d_print_mod+0xe8>
40006cc0:	8a00002e 	bhi	40006d80 <d_print_mod+0xf4>
40006cc4:	e3530003 	cmp	r3, #3
40006cc8:	05922004 	ldreq	r2, [r2, #4]
40006ccc:	0a000034 	beq	40006da4 <d_print_mod+0x118>
40006cd0:	e1a02005 	mov	r2, r5
40006cd4:	ea000030 	b	40006d9c <d_print_mod+0x110>
40006cd8:	e353001d 	cmp	r3, #29
40006cdc:	0a000027 	beq	40006d80 <d_print_mod+0xf4>
40006ce0:	3a000023 	bcc	40006d74 <d_print_mod+0xe8>
40006ce4:	e353001e 	cmp	r3, #30
40006ce8:	0a000026 	beq	40006d88 <d_print_mod+0xfc>
40006cec:	e353001f 	cmp	r3, #31
40006cf0:	1afffff6 	bne	40006cd0 <d_print_mod+0x44>
40006cf4:	e3a01020 	mov	r1, #32
40006cf8:	ebfff797 	bl	40004b5c <d_append_char>
40006cfc:	e3a01026 	mov	r1, #38	; 0x26
40006d00:	e1a00004 	mov	r0, r4
40006d04:	e8bd4070 	pop	{r4, r5, r6, lr}
40006d08:	eafff793 	b	40004b5c <d_append_char>
40006d0c:	e3530025 	cmp	r3, #37	; 0x25
40006d10:	0a00002d 	beq	40006dcc <d_print_mod+0x140>
40006d14:	8a000008 	bhi	40006d3c <d_print_mod+0xb0>
40006d18:	e3530022 	cmp	r3, #34	; 0x22
40006d1c:	0a000022 	beq	40006dac <d_print_mod+0x120>
40006d20:	3a00001a 	bcc	40006d90 <d_print_mod+0x104>
40006d24:	e3530023 	cmp	r3, #35	; 0x23
40006d28:	0afffff3 	beq	40006cfc <d_print_mod+0x70>
40006d2c:	e3530024 	cmp	r3, #36	; 0x24
40006d30:	1affffe6 	bne	40006cd0 <d_print_mod+0x44>
40006d34:	e59f10e0 	ldr	r1, [pc, #224]	; 40006e1c <d_print_mod+0x190>
40006d38:	ea00000e 	b	40006d78 <d_print_mod+0xec>
40006d3c:	e353002b 	cmp	r3, #43	; 0x2b
40006d40:	0a000023 	beq	40006dd4 <d_print_mod+0x148>
40006d44:	8a000004 	bhi	40006d5c <d_print_mod+0xd0>
40006d48:	e3530026 	cmp	r3, #38	; 0x26
40006d4c:	059f10cc 	ldreq	r1, [pc, #204]	; 40006e20 <d_print_mod+0x194>
40006d50:	1affffde 	bne	40006cd0 <d_print_mod+0x44>
40006d54:	e8bd4070 	pop	{r4, r5, r6, lr}
40006d58:	eafff7bd 	b	40004c54 <d_append_string>
40006d5c:	e353002d 	cmp	r3, #45	; 0x2d
40006d60:	0a000025 	beq	40006dfc <d_print_mod+0x170>
40006d64:	e353004c 	cmp	r3, #76	; 0x4c
40006d68:	059f10b4 	ldreq	r1, [pc, #180]	; 40006e24 <d_print_mod+0x198>
40006d6c:	0afffff8 	beq	40006d54 <d_print_mod+0xc8>
40006d70:	eaffffd6 	b	40006cd0 <d_print_mod+0x44>
40006d74:	e59f10ac 	ldr	r1, [pc, #172]	; 40006e28 <d_print_mod+0x19c>
40006d78:	e1a00004 	mov	r0, r4
40006d7c:	eafffff4 	b	40006d54 <d_print_mod+0xc8>
40006d80:	e59f10a4 	ldr	r1, [pc, #164]	; 40006e2c <d_print_mod+0x1a0>
40006d84:	eafffffb 	b	40006d78 <d_print_mod+0xec>
40006d88:	e59f10a0 	ldr	r1, [pc, #160]	; 40006e30 <d_print_mod+0x1a4>
40006d8c:	eafffff9 	b	40006d78 <d_print_mod+0xec>
40006d90:	e3a01020 	mov	r1, #32
40006d94:	ebfff770 	bl	40004b5c <d_append_char>
40006d98:	e5952008 	ldr	r2, [r5, #8]
40006d9c:	e1a01006 	mov	r1, r6
40006da0:	e1a00004 	mov	r0, r4
40006da4:	e8bd4070 	pop	{r4, r5, r6, lr}
40006da8:	eafff97f 	b	400053ac <d_print_comp>
40006dac:	e3110004 	tst	r1, #4
40006db0:	03a0102a 	moveq	r1, #42	; 0x2a
40006db4:	0affffd2 	beq	40006d04 <d_print_mod+0x78>
40006db8:	e8bd4070 	pop	{r4, r5, r6, lr}
40006dbc:	e12fff1e 	bx	lr
40006dc0:	e1a01003 	mov	r1, r3
40006dc4:	ebfff764 	bl	40004b5c <d_append_char>
40006dc8:	eaffffd9 	b	40006d34 <d_print_mod+0xa8>
40006dcc:	e59f1060 	ldr	r1, [pc, #96]	; 40006e34 <d_print_mod+0x1a8>
40006dd0:	eaffffdf 	b	40006d54 <d_print_mod+0xc8>
40006dd4:	e5d03104 	ldrb	r3, [r0, #260]	; 0x104
40006dd8:	e3530028 	cmp	r3, #40	; 0x28
40006ddc:	13a01020 	movne	r1, #32
40006de0:	1bfff75d 	blne	40004b5c <d_append_char>
40006de4:	e1a01006 	mov	r1, r6
40006de8:	e5952004 	ldr	r2, [r5, #4]
40006dec:	e1a00004 	mov	r0, r4
40006df0:	ebfff96d 	bl	400053ac <d_print_comp>
40006df4:	e59f103c 	ldr	r1, [pc, #60]	; 40006e38 <d_print_mod+0x1ac>
40006df8:	eaffffde 	b	40006d78 <d_print_mod+0xec>
40006dfc:	e59f1038 	ldr	r1, [pc, #56]	; 40006e3c <d_print_mod+0x1b0>
40006e00:	ebfff793 	bl	40004c54 <d_append_string>
40006e04:	e1a01006 	mov	r1, r6
40006e08:	e5952004 	ldr	r2, [r5, #4]
40006e0c:	e1a00004 	mov	r0, r4
40006e10:	ebfff965 	bl	400053ac <d_print_comp>
40006e14:	e3a01029 	mov	r1, #41	; 0x29
40006e18:	eaffffb8 	b	40006d00 <d_print_mod+0x74>
40006e1c:	40019285 	.word	0x40019285
40006e20:	40019291 	.word	0x40019291
40006e24:	40019273 	.word	0x40019273
40006e28:	40019258 	.word	0x40019258
40006e2c:	40019262 	.word	0x40019262
40006e30:	4001926c 	.word	0x4001926c
40006e34:	40019288 	.word	0x40019288
40006e38:	4001929c 	.word	0x4001929c
40006e3c:	400192a0 	.word	0x400192a0

Disassembly of section .text.d_print_mod_list:

40006e40 <d_print_mod_list>:
40006e40:	e92d47f0 	push	{r4, r5, r6, r7, r8, r9, sl, lr}
40006e44:	e1a04000 	mov	r4, r0
40006e48:	e1a06001 	mov	r6, r1
40006e4c:	e1a05002 	mov	r5, r2
40006e50:	e1a08003 	mov	r8, r3
40006e54:	e3a09001 	mov	r9, #1
40006e58:	e3550000 	cmp	r5, #0
40006e5c:	0a00001c 	beq	40006ed4 <d_print_mod_list+0x94>
40006e60:	e5943118 	ldr	r3, [r4, #280]	; 0x118
40006e64:	e3530000 	cmp	r3, #0
40006e68:	1a000019 	bne	40006ed4 <d_print_mod_list+0x94>
40006e6c:	e5953008 	ldr	r3, [r5, #8]
40006e70:	e3530000 	cmp	r3, #0
40006e74:	1a000007 	bne	40006e98 <d_print_mod_list+0x58>
40006e78:	e3580000 	cmp	r8, #0
40006e7c:	e5952004 	ldr	r2, [r5, #4]
40006e80:	1a000006 	bne	40006ea0 <d_print_mod_list+0x60>
40006e84:	e5d21000 	ldrb	r1, [r2]
40006e88:	e241301c 	sub	r3, r1, #28
40006e8c:	e351004c 	cmp	r1, #76	; 0x4c
40006e90:	13530004 	cmpne	r3, #4
40006e94:	8a000001 	bhi	40006ea0 <d_print_mod_list+0x60>
40006e98:	e5955000 	ldr	r5, [r5]
40006e9c:	eaffffed 	b	40006e58 <d_print_mod_list+0x18>
40006ea0:	e5d21000 	ldrb	r1, [r2]
40006ea4:	e595300c 	ldr	r3, [r5, #12]
40006ea8:	e3510029 	cmp	r1, #41	; 0x29
40006eac:	e5859008 	str	r9, [r5, #8]
40006eb0:	e5947110 	ldr	r7, [r4, #272]	; 0x110
40006eb4:	e5843110 	str	r3, [r4, #272]	; 0x110
40006eb8:	1a000007 	bne	40006edc <d_print_mod_list+0x9c>
40006ebc:	e5953000 	ldr	r3, [r5]
40006ec0:	e2822008 	add	r2, r2, #8
40006ec4:	e1a01006 	mov	r1, r6
40006ec8:	e1a00004 	mov	r0, r4
40006ecc:	eb000076 	bl	400070ac <d_print_function_type.isra.10>
40006ed0:	e5847110 	str	r7, [r4, #272]	; 0x110
40006ed4:	e8bd47f0 	pop	{r4, r5, r6, r7, r8, r9, sl, lr}
40006ed8:	e12fff1e 	bx	lr
40006edc:	e351002a 	cmp	r1, #42	; 0x2a
40006ee0:	1a000005 	bne	40006efc <d_print_mod_list+0xbc>
40006ee4:	e5953000 	ldr	r3, [r5]
40006ee8:	e2822004 	add	r2, r2, #4
40006eec:	e1a01006 	mov	r1, r6
40006ef0:	e1a00004 	mov	r0, r4
40006ef4:	eb000035 	bl	40006fd0 <d_print_array_type.isra.9>
40006ef8:	eafffff4 	b	40006ed0 <d_print_mod_list+0x90>
40006efc:	e3510002 	cmp	r1, #2
40006f00:	1a00002a 	bne	40006fb0 <d_print_mod_list+0x170>
40006f04:	e3a03000 	mov	r3, #0
40006f08:	e5948114 	ldr	r8, [r4, #276]	; 0x114
40006f0c:	e5843114 	str	r3, [r4, #276]	; 0x114
40006f10:	e1a01006 	mov	r1, r6
40006f14:	e5922004 	ldr	r2, [r2, #4]
40006f18:	e1a00004 	mov	r0, r4
40006f1c:	ebfff922 	bl	400053ac <d_print_comp>
40006f20:	e3160004 	tst	r6, #4
40006f24:	e5848114 	str	r8, [r4, #276]	; 0x114
40006f28:	1a00001c 	bne	40006fa0 <d_print_mod_list+0x160>
40006f2c:	e59f1090 	ldr	r1, [pc, #144]	; 40006fc4 <d_print_mod_list+0x184>
40006f30:	e1a00004 	mov	r0, r4
40006f34:	ebfff746 	bl	40004c54 <d_append_string>
40006f38:	e5953004 	ldr	r3, [r5, #4]
40006f3c:	e5935008 	ldr	r5, [r3, #8]
40006f40:	e5d53000 	ldrb	r3, [r5]
40006f44:	e3530046 	cmp	r3, #70	; 0x46
40006f48:	1a00000a 	bne	40006f78 <d_print_mod_list+0x138>
40006f4c:	e59f1074 	ldr	r1, [pc, #116]	; 40006fc8 <d_print_mod_list+0x188>
40006f50:	e1a00004 	mov	r0, r4
40006f54:	ebfff73e 	bl	40004c54 <d_append_string>
40006f58:	e5951008 	ldr	r1, [r5, #8]
40006f5c:	e1a00004 	mov	r0, r4
40006f60:	e2811001 	add	r1, r1, #1
40006f64:	ebfff744 	bl	40004c7c <d_append_num>
40006f68:	e59f105c 	ldr	r1, [pc, #92]	; 40006fcc <d_print_mod_list+0x18c>
40006f6c:	e1a00004 	mov	r0, r4
40006f70:	ebfff737 	bl	40004c54 <d_append_string>
40006f74:	e5955004 	ldr	r5, [r5, #4]
40006f78:	e5d53000 	ldrb	r3, [r5]
40006f7c:	e243201c 	sub	r2, r3, #28
40006f80:	e353004c 	cmp	r3, #76	; 0x4c
40006f84:	13520004 	cmpne	r2, #4
40006f88:	9afffff9 	bls	40006f74 <d_print_mod_list+0x134>
40006f8c:	e1a02005 	mov	r2, r5
40006f90:	e1a01006 	mov	r1, r6
40006f94:	e1a00004 	mov	r0, r4
40006f98:	ebfff903 	bl	400053ac <d_print_comp>
40006f9c:	eaffffcb 	b	40006ed0 <d_print_mod_list+0x90>
40006fa0:	e3a0102e 	mov	r1, #46	; 0x2e
40006fa4:	e1a00004 	mov	r0, r4
40006fa8:	ebfff6eb 	bl	40004b5c <d_append_char>
40006fac:	eaffffe1 	b	40006f38 <d_print_mod_list+0xf8>
40006fb0:	e1a01006 	mov	r1, r6
40006fb4:	e1a00004 	mov	r0, r4
40006fb8:	ebffff33 	bl	40006c8c <d_print_mod>
40006fbc:	e5847110 	str	r7, [r4, #272]	; 0x110
40006fc0:	eaffffb4 	b	40006e98 <d_print_mod_list+0x58>
40006fc4:	4001903e 	.word	0x4001903e
40006fc8:	4001902f 	.word	0x4001902f
40006fcc:	4001903d 	.word	0x4001903d

Disassembly of section .text.d_print_array_type.isra.9:

40006fd0 <d_print_array_type.isra.9>:
40006fd0:	e92d47f0 	push	{r4, r5, r6, r7, r8, r9, sl, lr}
40006fd4:	e2538000 	subs	r8, r3, #0
40006fd8:	e1a04000 	mov	r4, r0
40006fdc:	e1a07001 	mov	r7, r1
40006fe0:	e1a09002 	mov	r9, r2
40006fe4:	11a03008 	movne	r3, r8
40006fe8:	1a00000e 	bne	40007028 <d_print_array_type.isra.9+0x58>
40006fec:	e3a01020 	mov	r1, #32
40006ff0:	e1a00004 	mov	r0, r4
40006ff4:	ebfff6d8 	bl	40004b5c <d_append_char>
40006ff8:	e3a0105b 	mov	r1, #91	; 0x5b
40006ffc:	e1a00004 	mov	r0, r4
40007000:	ebfff6d5 	bl	40004b5c <d_append_char>
40007004:	e5992000 	ldr	r2, [r9]
40007008:	e3520000 	cmp	r2, #0
4000700c:	11a01007 	movne	r1, r7
40007010:	11a00004 	movne	r0, r4
40007014:	1bfff8e4 	blne	400053ac <d_print_comp>
40007018:	e1a00004 	mov	r0, r4
4000701c:	e3a0105d 	mov	r1, #93	; 0x5d
40007020:	e8bd47f0 	pop	{r4, r5, r6, r7, r8, r9, sl, lr}
40007024:	eafff6cc 	b	40004b5c <d_append_char>
40007028:	e5935008 	ldr	r5, [r3, #8]
4000702c:	e3550000 	cmp	r5, #0
40007030:	1a000005 	bne	4000704c <d_print_array_type.isra.9+0x7c>
40007034:	e5933004 	ldr	r3, [r3, #4]
40007038:	e5d33000 	ldrb	r3, [r3]
4000703c:	e353002a 	cmp	r3, #42	; 0x2a
40007040:	1a000012 	bne	40007090 <d_print_array_type.isra.9+0xc0>
40007044:	e1a06005 	mov	r6, r5
40007048:	ea000004 	b	40007060 <d_print_array_type.isra.9+0x90>
4000704c:	e5933000 	ldr	r3, [r3]
40007050:	e3530000 	cmp	r3, #0
40007054:	1afffff3 	bne	40007028 <d_print_array_type.isra.9+0x58>
40007058:	e3a06001 	mov	r6, #1
4000705c:	e1a05003 	mov	r5, r3
40007060:	e3a03000 	mov	r3, #0
40007064:	e1a02008 	mov	r2, r8
40007068:	e1a01007 	mov	r1, r7
4000706c:	e1a00004 	mov	r0, r4
40007070:	ebffff72 	bl	40006e40 <d_print_mod_list>
40007074:	e3550000 	cmp	r5, #0
40007078:	13a01029 	movne	r1, #41	; 0x29
4000707c:	11a00004 	movne	r0, r4
40007080:	1bfff6b5 	blne	40004b5c <d_append_char>
40007084:	e3560000 	cmp	r6, #0
40007088:	0affffda 	beq	40006ff8 <d_print_array_type.isra.9+0x28>
4000708c:	eaffffd6 	b	40006fec <d_print_array_type.isra.9+0x1c>
40007090:	e3a06001 	mov	r6, #1
40007094:	e59f100c 	ldr	r1, [pc, #12]	; 400070a8 <d_print_array_type.isra.9+0xd8>
40007098:	e1a00004 	mov	r0, r4
4000709c:	ebfff6ec 	bl	40004c54 <d_append_string>
400070a0:	e1a05006 	mov	r5, r6
400070a4:	eaffffed 	b	40007060 <d_print_array_type.isra.9+0x90>
400070a8:	40019026 	.word	0x40019026

Disassembly of section .text.d_print_function_type.isra.10:

400070ac <d_print_function_type.isra.10>:
400070ac:	e92d47f0 	push	{r4, r5, r6, r7, r8, r9, sl, lr}
400070b0:	e1a06001 	mov	r6, r1
400070b4:	e1a08002 	mov	r8, r2
400070b8:	e1a07003 	mov	r7, r3
400070bc:	e3a01001 	mov	r1, #1
400070c0:	e1a04000 	mov	r4, r0
400070c4:	e59f00f8 	ldr	r0, [pc, #248]	; 400071c4 <d_print_function_type.isra.10+0x118>
400070c8:	e3530000 	cmp	r3, #0
400070cc:	1a000001 	bne	400070d8 <d_print_function_type.isra.10+0x2c>
400070d0:	e3a05000 	mov	r5, #0
400070d4:	ea00001a 	b	40007144 <d_print_function_type.isra.10+0x98>
400070d8:	e5932008 	ldr	r2, [r3, #8]
400070dc:	e3520000 	cmp	r2, #0
400070e0:	1afffffa 	bne	400070d0 <d_print_function_type.isra.10+0x24>
400070e4:	e5932004 	ldr	r2, [r3, #4]
400070e8:	e5d22000 	ldrb	r2, [r2]
400070ec:	e2422019 	sub	r2, r2, #25
400070f0:	e20220ff 	and	r2, r2, #255	; 0xff
400070f4:	e3520012 	cmp	r2, #18
400070f8:	8a00002f 	bhi	400071bc <d_print_function_type.isra.10+0x110>
400070fc:	e1a02211 	lsl	r2, r1, r2
40007100:	e1120000 	tst	r2, r0
40007104:	1a000005 	bne	40007120 <d_print_function_type.isra.10+0x74>
40007108:	e3120c0e 	tst	r2, #3584	; 0xe00
4000710c:	0a00002a 	beq	400071bc <d_print_function_type.isra.10+0x110>
40007110:	e5d43104 	ldrb	r3, [r4, #260]	; 0x104
40007114:	e20330fd 	and	r3, r3, #253	; 0xfd
40007118:	e3530028 	cmp	r3, #40	; 0x28
4000711c:	0a000004 	beq	40007134 <d_print_function_type.isra.10+0x88>
40007120:	e5d43104 	ldrb	r3, [r4, #260]	; 0x104
40007124:	e3530020 	cmp	r3, #32
40007128:	13a01020 	movne	r1, #32
4000712c:	11a00004 	movne	r0, r4
40007130:	1bfff689 	blne	40004b5c <d_append_char>
40007134:	e3a01028 	mov	r1, #40	; 0x28
40007138:	e1a00004 	mov	r0, r4
4000713c:	ebfff686 	bl	40004b5c <d_append_char>
40007140:	e3a05001 	mov	r5, #1
40007144:	e3a03000 	mov	r3, #0
40007148:	e5949114 	ldr	r9, [r4, #276]	; 0x114
4000714c:	e1a02007 	mov	r2, r7
40007150:	e5843114 	str	r3, [r4, #276]	; 0x114
40007154:	e1a01006 	mov	r1, r6
40007158:	e1a00004 	mov	r0, r4
4000715c:	ebffff37 	bl	40006e40 <d_print_mod_list>
40007160:	e3550000 	cmp	r5, #0
40007164:	13a01029 	movne	r1, #41	; 0x29
40007168:	11a00004 	movne	r0, r4
4000716c:	1bfff67a 	blne	40004b5c <d_append_char>
40007170:	e3a01028 	mov	r1, #40	; 0x28
40007174:	e1a00004 	mov	r0, r4
40007178:	ebfff677 	bl	40004b5c <d_append_char>
4000717c:	e5982000 	ldr	r2, [r8]
40007180:	e3520000 	cmp	r2, #0
40007184:	11a01006 	movne	r1, r6
40007188:	11a00004 	movne	r0, r4
4000718c:	1bfff886 	blne	400053ac <d_print_comp>
40007190:	e1a00004 	mov	r0, r4
40007194:	e3a01029 	mov	r1, #41	; 0x29
40007198:	ebfff66f 	bl	40004b5c <d_append_char>
4000719c:	e1a02007 	mov	r2, r7
400071a0:	e1a01006 	mov	r1, r6
400071a4:	e1a00004 	mov	r0, r4
400071a8:	e3a03001 	mov	r3, #1
400071ac:	ebffff23 	bl	40006e40 <d_print_mod_list>
400071b0:	e5849114 	str	r9, [r4, #276]	; 0x114
400071b4:	e8bd47f0 	pop	{r4, r5, r6, r7, r8, r9, sl, lr}
400071b8:	e12fff1e 	bx	lr
400071bc:	e5933000 	ldr	r3, [r3]
400071c0:	eaffffc0 	b	400070c8 <d_print_function_type.isra.10+0x1c>
400071c4:	00043107 	.word	0x00043107

Disassembly of section .text.d_print_subexpr:

400071c8 <d_print_subexpr>:
400071c8:	e5d23000 	ldrb	r3, [r2]
400071cc:	e3530030 	cmp	r3, #48	; 0x30
400071d0:	13530001 	cmpne	r3, #1
400071d4:	e92d41f0 	push	{r4, r5, r6, r7, r8, lr}
400071d8:	93a04001 	movls	r4, #1
400071dc:	83a04000 	movhi	r4, #0
400071e0:	e3530006 	cmp	r3, #6
400071e4:	03844001 	orreq	r4, r4, #1
400071e8:	e3540000 	cmp	r4, #0
400071ec:	e1a05000 	mov	r5, r0
400071f0:	e1a07001 	mov	r7, r1
400071f4:	e1a06002 	mov	r6, r2
400071f8:	0a00000a 	beq	40007228 <d_print_subexpr+0x60>
400071fc:	e3a04001 	mov	r4, #1
40007200:	e1a02006 	mov	r2, r6
40007204:	e1a01007 	mov	r1, r7
40007208:	e1a00005 	mov	r0, r5
4000720c:	ebfff866 	bl	400053ac <d_print_comp>
40007210:	e3540000 	cmp	r4, #0
40007214:	1a000006 	bne	40007234 <d_print_subexpr+0x6c>
40007218:	e1a00005 	mov	r0, r5
4000721c:	e3a01029 	mov	r1, #41	; 0x29
40007220:	e8bd41f0 	pop	{r4, r5, r6, r7, r8, lr}
40007224:	eafff64c 	b	40004b5c <d_append_char>
40007228:	e3a01028 	mov	r1, #40	; 0x28
4000722c:	ebfff64a 	bl	40004b5c <d_append_char>
40007230:	eafffff2 	b	40007200 <d_print_subexpr+0x38>
40007234:	e8bd41f0 	pop	{r4, r5, r6, r7, r8, lr}
40007238:	e12fff1e 	bx	lr

Disassembly of section .text.d_substitution:

4000723c <d_substitution>:
4000723c:	e92d41f0 	push	{r4, r5, r6, r7, r8, lr}
40007240:	e590200c 	ldr	r2, [r0, #12]
40007244:	e5d23000 	ldrb	r3, [r2]
40007248:	e3530053 	cmp	r3, #83	; 0x53
4000724c:	0a000003 	beq	40007260 <d_substitution+0x24>
40007250:	e3a04000 	mov	r4, #0
40007254:	e1a00004 	mov	r0, r4
40007258:	e8bd41f0 	pop	{r4, r5, r6, r7, r8, lr}
4000725c:	e12fff1e 	bx	lr
40007260:	e2823001 	add	r3, r2, #1
40007264:	e580300c 	str	r3, [r0, #12]
40007268:	e5d23001 	ldrb	r3, [r2, #1]
4000726c:	e3530000 	cmp	r3, #0
40007270:	12823002 	addne	r3, r2, #2
40007274:	1580300c 	strne	r3, [r0, #12]
40007278:	15d23001 	ldrbne	r3, [r2, #1]
4000727c:	e2432030 	sub	r2, r3, #48	; 0x30
40007280:	e353005f 	cmp	r3, #95	; 0x5f
40007284:	13520009 	cmpne	r2, #9
40007288:	93a02001 	movls	r2, #1
4000728c:	83a02000 	movhi	r2, #0
40007290:	9a00003e 	bls	40007390 <d_substitution+0x154>
40007294:	e243c041 	sub	ip, r3, #65	; 0x41
40007298:	e35c0019 	cmp	ip, #25
4000729c:	9a000040 	bls	400073a4 <d_substitution+0x168>
400072a0:	e5902008 	ldr	r2, [r0, #8]
400072a4:	e2022008 	and	r2, r2, #8
400072a8:	e3520000 	cmp	r2, #0
400072ac:	03a02001 	moveq	r2, #1
400072b0:	13a02000 	movne	r2, #0
400072b4:	13a06001 	movne	r6, #1
400072b8:	03a06000 	moveq	r6, #0
400072bc:	e3510000 	cmp	r1, #0
400072c0:	03a01000 	moveq	r1, #0
400072c4:	12021001 	andne	r1, r2, #1
400072c8:	e3510000 	cmp	r1, #0
400072cc:	0a000004 	beq	400072e4 <d_substitution+0xa8>
400072d0:	e590200c 	ldr	r2, [r0, #12]
400072d4:	e5d22000 	ldrb	r2, [r2]
400072d8:	e2422043 	sub	r2, r2, #67	; 0x43
400072dc:	e3520001 	cmp	r2, #1
400072e0:	93a06001 	movls	r6, #1
400072e4:	e59f4160 	ldr	r4, [pc, #352]	; 4000744c <d_substitution+0x210>
400072e8:	e28420c4 	add	r2, r4, #196	; 0xc4
400072ec:	e5d41000 	ldrb	r1, [r4]
400072f0:	e1510003 	cmp	r1, r3
400072f4:	1a000050 	bne	4000743c <d_substitution+0x200>
400072f8:	e5947014 	ldr	r7, [r4, #20]
400072fc:	e3570000 	cmp	r7, #0
40007300:	e1a05000 	mov	r5, r0
40007304:	0a000006 	beq	40007324 <d_substitution+0xe8>
40007308:	e5948018 	ldr	r8, [r4, #24]
4000730c:	ebfff492 	bl	4000455c <d_make_empty>
40007310:	e3500000 	cmp	r0, #0
40007314:	13a03018 	movne	r3, #24
40007318:	19800180 	stmibne	r0, {r7, r8}
4000731c:	15c03000 	strbne	r3, [r0]
40007320:	e585002c 	str	r0, [r5, #44]	; 0x2c
40007324:	e3560000 	cmp	r6, #0
40007328:	15946010 	ldrne	r6, [r4, #16]
4000732c:	05946008 	ldreq	r6, [r4, #8]
40007330:	e5953030 	ldr	r3, [r5, #48]	; 0x30
40007334:	e0833006 	add	r3, r3, r6
40007338:	1594700c 	ldrne	r7, [r4, #12]
4000733c:	05947004 	ldreq	r7, [r4, #4]
40007340:	e1a00005 	mov	r0, r5
40007344:	e5853030 	str	r3, [r5, #48]	; 0x30
40007348:	ebfff483 	bl	4000455c <d_make_empty>
4000734c:	e2504000 	subs	r4, r0, #0
40007350:	13a03018 	movne	r3, #24
40007354:	15847004 	strne	r7, [r4, #4]
40007358:	15846008 	strne	r6, [r4, #8]
4000735c:	15c43000 	strbne	r3, [r4]
40007360:	e595300c 	ldr	r3, [r5, #12]
40007364:	e5d33000 	ldrb	r3, [r3]
40007368:	e3530042 	cmp	r3, #66	; 0x42
4000736c:	1affffb8 	bne	40007254 <d_substitution+0x18>
40007370:	e1a01004 	mov	r1, r4
40007374:	e1a00005 	mov	r0, r5
40007378:	ebfff6ed 	bl	40004f34 <d_abi_tags>
4000737c:	e1a04000 	mov	r4, r0
40007380:	e1a01000 	mov	r1, r0
40007384:	e1a00005 	mov	r0, r5
40007388:	ebfff56a 	bl	40004938 <d_add_substitution>
4000738c:	eaffffb0 	b	40007254 <d_substitution+0x18>
40007390:	e353005f 	cmp	r3, #95	; 0x5f
40007394:	13a01000 	movne	r1, #0
40007398:	1a000002 	bne	400073a8 <d_substitution+0x16c>
4000739c:	e3a02000 	mov	r2, #0
400073a0:	ea000013 	b	400073f4 <d_substitution+0x1b8>
400073a4:	e1a01002 	mov	r1, r2
400073a8:	e3a0c024 	mov	ip, #36	; 0x24
400073ac:	e3a0e000 	mov	lr, #0
400073b0:	e2432030 	sub	r2, r3, #48	; 0x30
400073b4:	e3520009 	cmp	r2, #9
400073b8:	8a000019 	bhi	40007424 <d_substitution+0x1e8>
400073bc:	e023319c 	mla	r3, ip, r1, r3
400073c0:	e2432030 	sub	r2, r3, #48	; 0x30
400073c4:	e1510002 	cmp	r1, r2
400073c8:	8affffa0 	bhi	40007250 <d_substitution+0x14>
400073cc:	e590300c 	ldr	r3, [r0, #12]
400073d0:	e5d31000 	ldrb	r1, [r3]
400073d4:	e3510000 	cmp	r1, #0
400073d8:	0a00000e 	beq	40007418 <d_substitution+0x1dc>
400073dc:	e2831001 	add	r1, r3, #1
400073e0:	e580100c 	str	r1, [r0, #12]
400073e4:	e5d33000 	ldrb	r3, [r3]
400073e8:	e353005f 	cmp	r3, #95	; 0x5f
400073ec:	1a00000a 	bne	4000741c <d_substitution+0x1e0>
400073f0:	e2822001 	add	r2, r2, #1
400073f4:	e5903020 	ldr	r3, [r0, #32]
400073f8:	e1520003 	cmp	r2, r3
400073fc:	2affff93 	bcs	40007250 <d_substitution+0x14>
40007400:	e5903028 	ldr	r3, [r0, #40]	; 0x28
40007404:	e2833001 	add	r3, r3, #1
40007408:	e5803028 	str	r3, [r0, #40]	; 0x28
4000740c:	e590301c 	ldr	r3, [r0, #28]
40007410:	e7934102 	ldr	r4, [r3, r2, lsl #2]
40007414:	eaffff8e 	b	40007254 <d_substitution+0x18>
40007418:	e1a0300e 	mov	r3, lr
4000741c:	e1a01002 	mov	r1, r2
40007420:	eaffffe2 	b	400073b0 <d_substitution+0x174>
40007424:	e2432041 	sub	r2, r3, #65	; 0x41
40007428:	e3520019 	cmp	r2, #25
4000742c:	8affff87 	bhi	40007250 <d_substitution+0x14>
40007430:	e023319c 	mla	r3, ip, r1, r3
40007434:	e2432037 	sub	r2, r3, #55	; 0x37
40007438:	eaffffe1 	b	400073c4 <d_substitution+0x188>
4000743c:	e284401c 	add	r4, r4, #28
40007440:	e1540002 	cmp	r4, r2
40007444:	3affffa8 	bcc	400072ec <d_substitution+0xb0>
40007448:	eaffff80 	b	40007250 <d_substitution+0x14>
4000744c:	400192e4 	.word	0x400192e4

Disassembly of section .text.d_name:

40007450 <d_name>:
40007450:	e92d4ff0 	push	{r4, r5, r6, r7, r8, r9, sl, fp, lr}
40007454:	e590300c 	ldr	r3, [r0, #12]
40007458:	e5d32000 	ldrb	r2, [r3]
4000745c:	e242204e 	sub	r2, r2, #78	; 0x4e
40007460:	e24dd014 	sub	sp, sp, #20
40007464:	e1a04000 	mov	r4, r0
40007468:	e352000c 	cmp	r2, #12
4000746c:	979ff102 	ldrls	pc, [pc, r2, lsl #2]
40007470:	ea0000f4 	b	40007848 <d_name+0x3f8>
40007474:	400074a8 	.word	0x400074a8
40007478:	40007848 	.word	0x40007848
4000747c:	40007848 	.word	0x40007848
40007480:	40007848 	.word	0x40007848
40007484:	40007848 	.word	0x40007848
40007488:	400077b0 	.word	0x400077b0
4000748c:	40007848 	.word	0x40007848
40007490:	400077a4 	.word	0x400077a4
40007494:	40007848 	.word	0x40007848
40007498:	40007848 	.word	0x40007848
4000749c:	40007848 	.word	0x40007848
400074a0:	40007848 	.word	0x40007848
400074a4:	400076ac 	.word	0x400076ac
400074a8:	e2833001 	add	r3, r3, #1
400074ac:	e580300c 	str	r3, [r0, #12]
400074b0:	e3a02001 	mov	r2, #1
400074b4:	e28d100c 	add	r1, sp, #12
400074b8:	ebfff4b2 	bl	40004788 <d_cv_qualifiers>
400074bc:	e2508000 	subs	r8, r0, #0
400074c0:	1a000001 	bne	400074cc <d_name+0x7c>
400074c4:	e3a05000 	mov	r5, #0
400074c8:	ea00001a 	b	40007538 <d_name+0xe8>
400074cc:	e3a01000 	mov	r1, #0
400074d0:	e1a00004 	mov	r0, r4
400074d4:	ebfff503 	bl	400048e8 <d_ref_qualifier>
400074d8:	e3a0b000 	mov	fp, #0
400074dc:	e1a07000 	mov	r7, r0
400074e0:	e3a06001 	mov	r6, #1
400074e4:	e3a09004 	mov	r9, #4
400074e8:	e59fa388 	ldr	sl, [pc, #904]	; 40007878 <d_name+0x428>
400074ec:	e594100c 	ldr	r1, [r4, #12]
400074f0:	e5d15000 	ldrb	r5, [r1]
400074f4:	e3550000 	cmp	r5, #0
400074f8:	1a000012 	bne	40007548 <d_name+0xf8>
400074fc:	e3a0b000 	mov	fp, #0
40007500:	e35b0000 	cmp	fp, #0
40007504:	e588b000 	str	fp, [r8]
40007508:	0affffed 	beq	400074c4 <d_name+0x74>
4000750c:	e3570000 	cmp	r7, #0
40007510:	159d300c 	ldrne	r3, [sp, #12]
40007514:	15873004 	strne	r3, [r7, #4]
40007518:	158d700c 	strne	r7, [sp, #12]
4000751c:	e594300c 	ldr	r3, [r4, #12]
40007520:	e5d32000 	ldrb	r2, [r3]
40007524:	e3520045 	cmp	r2, #69	; 0x45
40007528:	02833001 	addeq	r3, r3, #1
4000752c:	0584300c 	streq	r3, [r4, #12]
40007530:	059d500c 	ldreq	r5, [sp, #12]
40007534:	1affffe2 	bne	400074c4 <d_name+0x74>
40007538:	e1a00005 	mov	r0, r5
4000753c:	e28dd014 	add	sp, sp, #20
40007540:	e8bd4ff0 	pop	{r4, r5, r6, r7, r8, r9, sl, fp, lr}
40007544:	e12fff1e 	bx	lr
40007548:	e3550044 	cmp	r5, #68	; 0x44
4000754c:	1a000016 	bne	400075ac <d_name+0x15c>
40007550:	e5d13001 	ldrb	r3, [r1, #1]
40007554:	e20330df 	and	r3, r3, #223	; 0xdf
40007558:	e3530054 	cmp	r3, #84	; 0x54
4000755c:	e1a00004 	mov	r0, r4
40007560:	1a00000f 	bne	400075a4 <d_name+0x154>
40007564:	eb0000c6 	bl	40007884 <d_type>
40007568:	e35b0000 	cmp	fp, #0
4000756c:	e1a03000 	mov	r3, r0
40007570:	1a000021 	bne	400075fc <d_name+0x1ac>
40007574:	e594200c 	ldr	r2, [r4, #12]
40007578:	e5d22000 	ldrb	r2, [r2]
4000757c:	e3520045 	cmp	r2, #69	; 0x45
40007580:	0a000027 	beq	40007624 <d_name+0x1d4>
40007584:	e1a01003 	mov	r1, r3
40007588:	e1a00004 	mov	r0, r4
4000758c:	e58d3004 	str	r3, [sp, #4]
40007590:	ebfff4e8 	bl	40004938 <d_add_substitution>
40007594:	e3500000 	cmp	r0, #0
40007598:	e59d3004 	ldr	r3, [sp, #4]
4000759c:	1a000020 	bne	40007624 <d_name+0x1d4>
400075a0:	eaffffd5 	b	400074fc <d_name+0xac>
400075a4:	eb00032c 	bl	4000825c <d_unqualified_name>
400075a8:	eaffffee 	b	40007568 <d_name+0x118>
400075ac:	e2453030 	sub	r3, r5, #48	; 0x30
400075b0:	e20330ff 	and	r3, r3, #255	; 0xff
400075b4:	e353001c 	cmp	r3, #28
400075b8:	91e0333a 	mvnls	r3, sl, lsr r3
400075bc:	81a03006 	movhi	r3, r6
400075c0:	e2032001 	and	r2, r3, #1
400075c4:	e2450061 	sub	r0, r5, #97	; 0x61
400075c8:	e2222001 	eor	r2, r2, #1
400075cc:	e3500019 	cmp	r0, #25
400075d0:	81a03002 	movhi	r3, r2
400075d4:	93823001 	orrls	r3, r2, #1
400075d8:	e3530000 	cmp	r3, #0
400075dc:	1a000001 	bne	400075e8 <d_name+0x198>
400075e0:	e3550055 	cmp	r5, #85	; 0x55
400075e4:	1a000006 	bne	40007604 <d_name+0x1b4>
400075e8:	e1a00004 	mov	r0, r4
400075ec:	eb00031a 	bl	4000825c <d_unqualified_name>
400075f0:	e35b0000 	cmp	fp, #0
400075f4:	e1a03000 	mov	r3, r0
400075f8:	0a000017 	beq	4000765c <d_name+0x20c>
400075fc:	e1a01006 	mov	r1, r6
40007600:	ea000011 	b	4000764c <d_name+0x1fc>
40007604:	e3550053 	cmp	r5, #83	; 0x53
40007608:	1a000007 	bne	4000762c <d_name+0x1dc>
4000760c:	e1a01006 	mov	r1, r6
40007610:	e1a00004 	mov	r0, r4
40007614:	ebffff08 	bl	4000723c <d_substitution>
40007618:	e35b0000 	cmp	fp, #0
4000761c:	e1a03000 	mov	r3, r0
40007620:	1afffff5 	bne	400075fc <d_name+0x1ac>
40007624:	e1a0b003 	mov	fp, r3
40007628:	eaffffaf 	b	400074ec <d_name+0x9c>
4000762c:	e3550049 	cmp	r5, #73	; 0x49
40007630:	1a00000c 	bne	40007668 <d_name+0x218>
40007634:	e35b0000 	cmp	fp, #0
40007638:	0affffaf 	beq	400074fc <d_name+0xac>
4000763c:	e1a00004 	mov	r0, r4
40007640:	eb000610 	bl	40008e88 <d_template_args>
40007644:	e1a01009 	mov	r1, r9
40007648:	e1a03000 	mov	r3, r0
4000764c:	e1a0200b 	mov	r2, fp
40007650:	e1a00004 	mov	r0, r4
40007654:	ebfff3cb 	bl	40004588 <d_make_comp>
40007658:	e1a03000 	mov	r3, r0
4000765c:	e3550053 	cmp	r5, #83	; 0x53
40007660:	1affffc3 	bne	40007574 <d_name+0x124>
40007664:	eaffffee 	b	40007624 <d_name+0x1d4>
40007668:	e3550054 	cmp	r5, #84	; 0x54
4000766c:	1a000002 	bne	4000767c <d_name+0x22c>
40007670:	e1a00004 	mov	r0, r4
40007674:	ebfff5cd 	bl	40004db0 <d_template_param>
40007678:	eaffffba 	b	40007568 <d_name+0x118>
4000767c:	e3550045 	cmp	r5, #69	; 0x45
40007680:	0affff9e 	beq	40007500 <d_name+0xb0>
40007684:	e255504d 	subs	r5, r5, #77	; 0x4d
40007688:	13a05001 	movne	r5, #1
4000768c:	e35b0000 	cmp	fp, #0
40007690:	03855001 	orreq	r5, r5, #1
40007694:	e3550000 	cmp	r5, #0
40007698:	1affff97 	bne	400074fc <d_name+0xac>
4000769c:	e2811001 	add	r1, r1, #1
400076a0:	e584100c 	str	r1, [r4, #12]
400076a4:	e1a0300b 	mov	r3, fp
400076a8:	eaffffdd 	b	40007624 <d_name+0x1d4>
400076ac:	e2833001 	add	r3, r3, #1
400076b0:	e580300c 	str	r3, [r0, #12]
400076b4:	e3a01000 	mov	r1, #0
400076b8:	eb0003e9 	bl	40008664 <d_encoding>
400076bc:	e594300c 	ldr	r3, [r4, #12]
400076c0:	e5d32000 	ldrb	r2, [r3]
400076c4:	e3520045 	cmp	r2, #69	; 0x45
400076c8:	e1a07000 	mov	r7, r0
400076cc:	1affff7c 	bne	400074c4 <d_name+0x74>
400076d0:	e2832001 	add	r2, r3, #1
400076d4:	e584200c 	str	r2, [r4, #12]
400076d8:	e5d32001 	ldrb	r2, [r3, #1]
400076dc:	e3520073 	cmp	r2, #115	; 0x73
400076e0:	1a00000f 	bne	40007724 <d_name+0x2d4>
400076e4:	e2833002 	add	r3, r3, #2
400076e8:	e584300c 	str	r3, [r4, #12]
400076ec:	e1a00004 	mov	r0, r4
400076f0:	ebfff5c7 	bl	40004e14 <d_discriminator>
400076f4:	e3500000 	cmp	r0, #0
400076f8:	0affff71 	beq	400074c4 <d_name+0x74>
400076fc:	e3a0200e 	mov	r2, #14
40007700:	e59f1174 	ldr	r1, [pc, #372]	; 4000787c <d_name+0x42c>
40007704:	e1a00004 	mov	r0, r4
40007708:	ebfff402 	bl	40004718 <d_make_name>
4000770c:	e1a03000 	mov	r3, r0
40007710:	e1a02007 	mov	r2, r7
40007714:	e3a01002 	mov	r1, #2
40007718:	e1a00004 	mov	r0, r4
4000771c:	ebfff399 	bl	40004588 <d_make_comp>
40007720:	ea000020 	b	400077a8 <d_name+0x358>
40007724:	e3520064 	cmp	r2, #100	; 0x64
40007728:	13e06000 	mvnne	r6, #0
4000772c:	1a000005 	bne	40007748 <d_name+0x2f8>
40007730:	e2833002 	add	r3, r3, #2
40007734:	e584300c 	str	r3, [r4, #12]
40007738:	e1a00004 	mov	r0, r4
4000773c:	ebfff583 	bl	40004d50 <d_compact_number>
40007740:	e2506000 	subs	r6, r0, #0
40007744:	baffff5e 	blt	400074c4 <d_name+0x74>
40007748:	e1a00004 	mov	r0, r4
4000774c:	ebffff3f 	bl	40007450 <d_name>
40007750:	e2505000 	subs	r5, r0, #0
40007754:	0a000008 	beq	4000777c <d_name+0x32c>
40007758:	e5d53000 	ldrb	r3, [r5]
4000775c:	e3530045 	cmp	r3, #69	; 0x45
40007760:	0a000005 	beq	4000777c <d_name+0x32c>
40007764:	e3530047 	cmp	r3, #71	; 0x47
40007768:	0a000003 	beq	4000777c <d_name+0x32c>
4000776c:	e1a00004 	mov	r0, r4
40007770:	ebfff5a7 	bl	40004e14 <d_discriminator>
40007774:	e3500000 	cmp	r0, #0
40007778:	0affff51 	beq	400074c4 <d_name+0x74>
4000777c:	e3760001 	cmn	r6, #1
40007780:	01a03005 	moveq	r3, r5
40007784:	0affffe1 	beq	40007710 <d_name+0x2c0>
40007788:	e1a00004 	mov	r0, r4
4000778c:	ebfff372 	bl	4000455c <d_make_empty>
40007790:	e2503000 	subs	r3, r0, #0
40007794:	13a02046 	movne	r2, #70	; 0x46
40007798:	19830060 	stmibne	r3, {r5, r6}
4000779c:	15c32000 	strbne	r2, [r3]
400077a0:	eaffffda 	b	40007710 <d_name+0x2c0>
400077a4:	eb0002ac 	bl	4000825c <d_unqualified_name>
400077a8:	e1a05000 	mov	r5, r0
400077ac:	eaffff61 	b	40007538 <d_name+0xe8>
400077b0:	e5d32001 	ldrb	r2, [r3, #1]
400077b4:	e3520074 	cmp	r2, #116	; 0x74
400077b8:	0a00000f 	beq	400077fc <d_name+0x3ac>
400077bc:	e3a01000 	mov	r1, #0
400077c0:	ebfffe9d 	bl	4000723c <d_substitution>
400077c4:	e3a03001 	mov	r3, #1
400077c8:	e1a05000 	mov	r5, r0
400077cc:	e594200c 	ldr	r2, [r4, #12]
400077d0:	e5d22000 	ldrb	r2, [r2]
400077d4:	e3520049 	cmp	r2, #73	; 0x49
400077d8:	1affff56 	bne	40007538 <d_name+0xe8>
400077dc:	e3530000 	cmp	r3, #0
400077e0:	0a00001e 	beq	40007860 <d_name+0x410>
400077e4:	e1a00004 	mov	r0, r4
400077e8:	eb0005a6 	bl	40008e88 <d_template_args>
400077ec:	e1a02005 	mov	r2, r5
400077f0:	e1a03000 	mov	r3, r0
400077f4:	e3a01004 	mov	r1, #4
400077f8:	eaffffc6 	b	40007718 <d_name+0x2c8>
400077fc:	e2833002 	add	r3, r3, #2
40007800:	e580300c 	str	r3, [r0, #12]
40007804:	e3a02003 	mov	r2, #3
40007808:	e59f1070 	ldr	r1, [pc, #112]	; 40007880 <d_name+0x430>
4000780c:	ebfff3c1 	bl	40004718 <d_make_name>
40007810:	e1a05000 	mov	r5, r0
40007814:	e1a00004 	mov	r0, r4
40007818:	eb00028f 	bl	4000825c <d_unqualified_name>
4000781c:	e1a02005 	mov	r2, r5
40007820:	e1a03000 	mov	r3, r0
40007824:	e3a01001 	mov	r1, #1
40007828:	e1a00004 	mov	r0, r4
4000782c:	ebfff355 	bl	40004588 <d_make_comp>
40007830:	e5943030 	ldr	r3, [r4, #48]	; 0x30
40007834:	e2833003 	add	r3, r3, #3
40007838:	e5843030 	str	r3, [r4, #48]	; 0x30
4000783c:	e1a05000 	mov	r5, r0
40007840:	e3a03000 	mov	r3, #0
40007844:	eaffffe0 	b	400077cc <d_name+0x37c>
40007848:	eb000283 	bl	4000825c <d_unqualified_name>
4000784c:	e594300c 	ldr	r3, [r4, #12]
40007850:	e5d33000 	ldrb	r3, [r3]
40007854:	e3530049 	cmp	r3, #73	; 0x49
40007858:	e1a05000 	mov	r5, r0
4000785c:	1affff35 	bne	40007538 <d_name+0xe8>
40007860:	e1a01005 	mov	r1, r5
40007864:	e1a00004 	mov	r0, r4
40007868:	ebfff432 	bl	40004938 <d_add_substitution>
4000786c:	e3500000 	cmp	r0, #0
40007870:	1affffdb 	bne	400077e4 <d_name+0x394>
40007874:	eaffff12 	b	400074c4 <d_name+0x74>
40007878:	100803ff 	.word	0x100803ff
4000787c:	40019013 	.word	0x40019013
40007880:	40019022 	.word	0x40019022

Disassembly of section .text.d_type:

40007884 <d_type>:
40007884:	e92d47f3 	push	{r0, r1, r4, r5, r6, r7, r8, r9, sl, lr}
40007888:	e590c00c 	ldr	ip, [r0, #12]
4000788c:	e5dc1000 	ldrb	r1, [ip]
40007890:	e3510056 	cmp	r1, #86	; 0x56
40007894:	13510072 	cmpne	r1, #114	; 0x72
40007898:	03a05001 	moveq	r5, #1
4000789c:	13a05000 	movne	r5, #0
400078a0:	e351004b 	cmp	r1, #75	; 0x4b
400078a4:	03855001 	orreq	r5, r5, #1
400078a8:	e3550000 	cmp	r5, #0
400078ac:	e1a04000 	mov	r4, r0
400078b0:	1a000004 	bne	400078c8 <d_type+0x44>
400078b4:	e3510044 	cmp	r1, #68	; 0x44
400078b8:	1a000026 	bne	40007958 <d_type+0xd4>
400078bc:	e5dc3001 	ldrb	r3, [ip, #1]
400078c0:	e3530078 	cmp	r3, #120	; 0x78
400078c4:	1a000129 	bne	40007d70 <d_type+0x4ec>
400078c8:	e3a02000 	mov	r2, #0
400078cc:	e28d1004 	add	r1, sp, #4
400078d0:	e1a00004 	mov	r0, r4
400078d4:	ebfff3ab 	bl	40004788 <d_cv_qualifiers>
400078d8:	e2505000 	subs	r5, r0, #0
400078dc:	1a000001 	bne	400078e8 <d_type+0x64>
400078e0:	e3a00000 	mov	r0, #0
400078e4:	ea00007f 	b	40007ae8 <d_type+0x264>
400078e8:	e594300c 	ldr	r3, [r4, #12]
400078ec:	e5d33000 	ldrb	r3, [r3]
400078f0:	e3530046 	cmp	r3, #70	; 0x46
400078f4:	e1a00004 	mov	r0, r4
400078f8:	1a000014 	bne	40007950 <d_type+0xcc>
400078fc:	eb00033d 	bl	400085f8 <d_function_type>
40007900:	e5850000 	str	r0, [r5]
40007904:	e5953000 	ldr	r3, [r5]
40007908:	e3530000 	cmp	r3, #0
4000790c:	0afffff3 	beq	400078e0 <d_type+0x5c>
40007910:	e5d32000 	ldrb	r2, [r3]
40007914:	e242201f 	sub	r2, r2, #31
40007918:	e3520001 	cmp	r2, #1
4000791c:	8a000005 	bhi	40007938 <d_type+0xb4>
40007920:	e59d1004 	ldr	r1, [sp, #4]
40007924:	e5932004 	ldr	r2, [r3, #4]
40007928:	e5831004 	str	r1, [r3, #4]
4000792c:	e5953000 	ldr	r3, [r5]
40007930:	e58d3004 	str	r3, [sp, #4]
40007934:	e5852000 	str	r2, [r5]
40007938:	e59d1004 	ldr	r1, [sp, #4]
4000793c:	e1a00004 	mov	r0, r4
40007940:	ebfff3fc 	bl	40004938 <d_add_substitution>
40007944:	e3500000 	cmp	r0, #0
40007948:	1a000065 	bne	40007ae4 <d_type+0x260>
4000794c:	eaffffe3 	b	400078e0 <d_type+0x5c>
40007950:	ebffffcb 	bl	40007884 <d_type>
40007954:	eaffffe9 	b	40007900 <d_type+0x7c>
40007958:	e3510053 	cmp	r1, #83	; 0x53
4000795c:	0a0000cd 	beq	40007c98 <d_type+0x414>
40007960:	8a000025 	bhi	400079fc <d_type+0x178>
40007964:	e3510047 	cmp	r1, #71	; 0x47
40007968:	0a0000f9 	beq	40007d54 <d_type+0x4d0>
4000796c:	8a00000f 	bhi	400079b0 <d_type+0x12c>
40007970:	e3510041 	cmp	r1, #65	; 0x41
40007974:	0a000069 	beq	40007b20 <d_type+0x29c>
40007978:	8a000005 	bhi	40007994 <d_type+0x110>
4000797c:	e2411030 	sub	r1, r1, #48	; 0x30
40007980:	e3510009 	cmp	r1, #9
40007984:	8affffd5 	bhi	400078e0 <d_type+0x5c>
40007988:	e1a00004 	mov	r0, r4
4000798c:	ebfffeaf 	bl	40007450 <d_name>
40007990:	ea000004 	b	400079a8 <d_type+0x124>
40007994:	e3510043 	cmp	r1, #67	; 0x43
40007998:	0a0000e6 	beq	40007d38 <d_type+0x4b4>
4000799c:	e3510046 	cmp	r1, #70	; 0x46
400079a0:	1affffce 	bne	400078e0 <d_type+0x5c>
400079a4:	eb000313 	bl	400085f8 <d_function_type>
400079a8:	e58d0004 	str	r0, [sp, #4]
400079ac:	eaffffe1 	b	40007938 <d_type+0xb4>
400079b0:	e351004f 	cmp	r1, #79	; 0x4f
400079b4:	0a0000d1 	beq	40007d00 <d_type+0x47c>
400079b8:	8a000004 	bhi	400079d0 <d_type+0x14c>
400079bc:	e351004d 	cmp	r1, #77	; 0x4d
400079c0:	0a00007a 	beq	40007bb0 <d_type+0x32c>
400079c4:	e351004e 	cmp	r1, #78	; 0x4e
400079c8:	0affffee 	beq	40007988 <d_type+0x104>
400079cc:	eaffffc3 	b	400078e0 <d_type+0x5c>
400079d0:	e3510050 	cmp	r1, #80	; 0x50
400079d4:	0a0000d0 	beq	40007d1c <d_type+0x498>
400079d8:	e3510052 	cmp	r1, #82	; 0x52
400079dc:	1affffbf 	bne	400078e0 <d_type+0x5c>
400079e0:	e28cc001 	add	ip, ip, #1
400079e4:	e580c00c 	str	ip, [r0, #12]
400079e8:	ebffffa5 	bl	40007884 <d_type>
400079ec:	e3a03000 	mov	r3, #0
400079f0:	e1a02000 	mov	r2, r0
400079f4:	e3a01023 	mov	r1, #35	; 0x23
400079f8:	ea000045 	b	40007b14 <d_type+0x290>
400079fc:	e351006f 	cmp	r1, #111	; 0x6f
40007a00:	8a000023 	bhi	40007a94 <d_type+0x210>
40007a04:	e351006c 	cmp	r1, #108	; 0x6c
40007a08:	2a000026 	bcs	40007aa8 <d_type+0x224>
40007a0c:	e351005a 	cmp	r1, #90	; 0x5a
40007a10:	0affffdc 	beq	40007988 <d_type+0x104>
40007a14:	8a00001a 	bhi	40007a84 <d_type+0x200>
40007a18:	e3510054 	cmp	r1, #84	; 0x54
40007a1c:	0a00006f 	beq	40007be0 <d_type+0x35c>
40007a20:	e3510055 	cmp	r1, #85	; 0x55
40007a24:	1affffad 	bne	400078e0 <d_type+0x5c>
40007a28:	e28cc001 	add	ip, ip, #1
40007a2c:	e580c00c 	str	ip, [r0, #12]
40007a30:	ebfff505 	bl	40004e4c <d_source_name>
40007a34:	e594300c 	ldr	r3, [r4, #12]
40007a38:	e58d0004 	str	r0, [sp, #4]
40007a3c:	e5d33000 	ldrb	r3, [r3]
40007a40:	e3530049 	cmp	r3, #73	; 0x49
40007a44:	e1a05000 	mov	r5, r0
40007a48:	1a000007 	bne	40007a6c <d_type+0x1e8>
40007a4c:	e1a00004 	mov	r0, r4
40007a50:	eb00050c 	bl	40008e88 <d_template_args>
40007a54:	e1a02005 	mov	r2, r5
40007a58:	e1a03000 	mov	r3, r0
40007a5c:	e3a01004 	mov	r1, #4
40007a60:	e1a00004 	mov	r0, r4
40007a64:	ebfff2c7 	bl	40004588 <d_make_comp>
40007a68:	e58d0004 	str	r0, [sp, #4]
40007a6c:	e1a00004 	mov	r0, r4
40007a70:	ebffff83 	bl	40007884 <d_type>
40007a74:	e59d3004 	ldr	r3, [sp, #4]
40007a78:	e1a02000 	mov	r2, r0
40007a7c:	e3a01021 	mov	r1, #33	; 0x21
40007a80:	ea000023 	b	40007b14 <d_type+0x290>
40007a84:	e2413061 	sub	r3, r1, #97	; 0x61
40007a88:	e3530009 	cmp	r3, #9
40007a8c:	9a000005 	bls	40007aa8 <d_type+0x224>
40007a90:	eaffff92 	b	400078e0 <d_type+0x5c>
40007a94:	e3510075 	cmp	r1, #117	; 0x75
40007a98:	0a000017 	beq	40007afc <d_type+0x278>
40007a9c:	8a000014 	bhi	40007af4 <d_type+0x270>
40007aa0:	e3510073 	cmp	r1, #115	; 0x73
40007aa4:	3affff8d 	bcc	400078e0 <d_type+0x5c>
40007aa8:	e3a02014 	mov	r2, #20
40007aac:	e59f353c 	ldr	r3, [pc, #1340]	; 40007ff0 <d_type+0x76c>
40007ab0:	e2411061 	sub	r1, r1, #97	; 0x61
40007ab4:	e0213192 	mla	r1, r2, r1, r3
40007ab8:	e1a00004 	mov	r0, r4
40007abc:	ebfff326 	bl	4000475c <d_make_builtin_type>
40007ac0:	e5902004 	ldr	r2, [r0, #4]
40007ac4:	e5943030 	ldr	r3, [r4, #48]	; 0x30
40007ac8:	e5922004 	ldr	r2, [r2, #4]
40007acc:	e0833002 	add	r3, r3, r2
40007ad0:	e5843030 	str	r3, [r4, #48]	; 0x30
40007ad4:	e594300c 	ldr	r3, [r4, #12]
40007ad8:	e2833001 	add	r3, r3, #1
40007adc:	e58d0004 	str	r0, [sp, #4]
40007ae0:	e584300c 	str	r3, [r4, #12]
40007ae4:	e59d0004 	ldr	r0, [sp, #4]
40007ae8:	e28dd008 	add	sp, sp, #8
40007aec:	e8bd47f0 	pop	{r4, r5, r6, r7, r8, r9, sl, lr}
40007af0:	e12fff1e 	bx	lr
40007af4:	e351007a 	cmp	r1, #122	; 0x7a
40007af8:	eaffffe3 	b	40007a8c <d_type+0x208>
40007afc:	e28cc001 	add	ip, ip, #1
40007b00:	e580c00c 	str	ip, [r0, #12]
40007b04:	ebfff4d0 	bl	40004e4c <d_source_name>
40007b08:	e1a03005 	mov	r3, r5
40007b0c:	e1a02000 	mov	r2, r0
40007b10:	e3a01028 	mov	r1, #40	; 0x28
40007b14:	e1a00004 	mov	r0, r4
40007b18:	ebfff29a 	bl	40004588 <d_make_comp>
40007b1c:	eaffffa1 	b	400079a8 <d_type+0x124>
40007b20:	e28c1001 	add	r1, ip, #1
40007b24:	e580100c 	str	r1, [r0, #12]
40007b28:	e5dc3001 	ldrb	r3, [ip, #1]
40007b2c:	e353005f 	cmp	r3, #95	; 0x5f
40007b30:	0a000012 	beq	40007b80 <d_type+0x2fc>
40007b34:	e2433030 	sub	r3, r3, #48	; 0x30
40007b38:	e3530009 	cmp	r3, #9
40007b3c:	8a00000d 	bhi	40007b78 <d_type+0x2f4>
40007b40:	e594300c 	ldr	r3, [r4, #12]
40007b44:	e2832001 	add	r2, r3, #1
40007b48:	e584200c 	str	r2, [r4, #12]
40007b4c:	e5d33001 	ldrb	r3, [r3, #1]
40007b50:	e2433030 	sub	r3, r3, #48	; 0x30
40007b54:	e3530009 	cmp	r3, #9
40007b58:	9afffff8 	bls	40007b40 <d_type+0x2bc>
40007b5c:	e0422001 	sub	r2, r2, r1
40007b60:	e1a00004 	mov	r0, r4
40007b64:	ebfff2eb 	bl	40004718 <d_make_name>
40007b68:	e2505000 	subs	r5, r0, #0
40007b6c:	1a000003 	bne	40007b80 <d_type+0x2fc>
40007b70:	e3a00000 	mov	r0, #0
40007b74:	eaffff8b 	b	400079a8 <d_type+0x124>
40007b78:	eb000637 	bl	4000945c <d_expression>
40007b7c:	eafffff9 	b	40007b68 <d_type+0x2e4>
40007b80:	e594300c 	ldr	r3, [r4, #12]
40007b84:	e5d32000 	ldrb	r2, [r3]
40007b88:	e352005f 	cmp	r2, #95	; 0x5f
40007b8c:	1afffff7 	bne	40007b70 <d_type+0x2ec>
40007b90:	e2833001 	add	r3, r3, #1
40007b94:	e584300c 	str	r3, [r4, #12]
40007b98:	e1a00004 	mov	r0, r4
40007b9c:	ebffff38 	bl	40007884 <d_type>
40007ba0:	e1a02005 	mov	r2, r5
40007ba4:	e1a03000 	mov	r3, r0
40007ba8:	e3a0102a 	mov	r1, #42	; 0x2a
40007bac:	eaffffd8 	b	40007b14 <d_type+0x290>
40007bb0:	e28cc001 	add	ip, ip, #1
40007bb4:	e580c00c 	str	ip, [r0, #12]
40007bb8:	ebffff31 	bl	40007884 <d_type>
40007bbc:	e2505000 	subs	r5, r0, #0
40007bc0:	0affffea 	beq	40007b70 <d_type+0x2ec>
40007bc4:	e1a00004 	mov	r0, r4
40007bc8:	ebffff2d 	bl	40007884 <d_type>
40007bcc:	e2503000 	subs	r3, r0, #0
40007bd0:	11a02005 	movne	r2, r5
40007bd4:	13a0102b 	movne	r1, #43	; 0x2b
40007bd8:	1affffcd 	bne	40007b14 <d_type+0x290>
40007bdc:	eaffffe3 	b	40007b70 <d_type+0x2ec>
40007be0:	ebfff472 	bl	40004db0 <d_template_param>
40007be4:	e594500c 	ldr	r5, [r4, #12]
40007be8:	e58d0004 	str	r0, [sp, #4]
40007bec:	e5d53000 	ldrb	r3, [r5]
40007bf0:	e3530049 	cmp	r3, #73	; 0x49
40007bf4:	e1a01000 	mov	r1, r0
40007bf8:	1affff4e 	bne	40007938 <d_type+0xb4>
40007bfc:	e5943038 	ldr	r3, [r4, #56]	; 0x38
40007c00:	e3530000 	cmp	r3, #0
40007c04:	1a000009 	bne	40007c30 <d_type+0x3ac>
40007c08:	e1a00004 	mov	r0, r4
40007c0c:	ebfff349 	bl	40004938 <d_add_substitution>
40007c10:	e3500000 	cmp	r0, #0
40007c14:	159d5004 	ldrne	r5, [sp, #4]
40007c18:	0affff30 	beq	400078e0 <d_type+0x5c>
40007c1c:	e1a00004 	mov	r0, r4
40007c20:	eb000498 	bl	40008e88 <d_template_args>
40007c24:	e1a02005 	mov	r2, r5
40007c28:	e1a03000 	mov	r3, r0
40007c2c:	ea000011 	b	40007c78 <d_type+0x3f4>
40007c30:	e1a00004 	mov	r0, r4
40007c34:	e5949014 	ldr	r9, [r4, #20]
40007c38:	e5948020 	ldr	r8, [r4, #32]
40007c3c:	e5947028 	ldr	r7, [r4, #40]	; 0x28
40007c40:	e5946030 	ldr	r6, [r4, #48]	; 0x30
40007c44:	eb00048f 	bl	40008e88 <d_template_args>
40007c48:	e594300c 	ldr	r3, [r4, #12]
40007c4c:	e5d33000 	ldrb	r3, [r3]
40007c50:	e3530049 	cmp	r3, #73	; 0x49
40007c54:	e1a0a000 	mov	sl, r0
40007c58:	1a000008 	bne	40007c80 <d_type+0x3fc>
40007c5c:	e59d1004 	ldr	r1, [sp, #4]
40007c60:	e1a00004 	mov	r0, r4
40007c64:	ebfff333 	bl	40004938 <d_add_substitution>
40007c68:	e3500000 	cmp	r0, #0
40007c6c:	0affff9d 	beq	40007ae8 <d_type+0x264>
40007c70:	e1a0300a 	mov	r3, sl
40007c74:	e59d2004 	ldr	r2, [sp, #4]
40007c78:	e3a01004 	mov	r1, #4
40007c7c:	eaffffa4 	b	40007b14 <d_type+0x290>
40007c80:	e584500c 	str	r5, [r4, #12]
40007c84:	e5849014 	str	r9, [r4, #20]
40007c88:	e5848020 	str	r8, [r4, #32]
40007c8c:	e5847028 	str	r7, [r4, #40]	; 0x28
40007c90:	e5846030 	str	r6, [r4, #48]	; 0x30
40007c94:	eaffff27 	b	40007938 <d_type+0xb4>
40007c98:	e5dc3001 	ldrb	r3, [ip, #1]
40007c9c:	e2432030 	sub	r2, r3, #48	; 0x30
40007ca0:	e353005f 	cmp	r3, #95	; 0x5f
40007ca4:	13520009 	cmpne	r2, #9
40007ca8:	9a000002 	bls	40007cb8 <d_type+0x434>
40007cac:	e2433041 	sub	r3, r3, #65	; 0x41
40007cb0:	e3530019 	cmp	r3, #25
40007cb4:	8a000009 	bhi	40007ce0 <d_type+0x45c>
40007cb8:	e3a01000 	mov	r1, #0
40007cbc:	e1a00004 	mov	r0, r4
40007cc0:	ebfffd5d 	bl	4000723c <d_substitution>
40007cc4:	e594300c 	ldr	r3, [r4, #12]
40007cc8:	e58d0004 	str	r0, [sp, #4]
40007ccc:	e5d33000 	ldrb	r3, [r3]
40007cd0:	e3530049 	cmp	r3, #73	; 0x49
40007cd4:	e1a05000 	mov	r5, r0
40007cd8:	1affff81 	bne	40007ae4 <d_type+0x260>
40007cdc:	eaffffce 	b	40007c1c <d_type+0x398>
40007ce0:	ebfffdda 	bl	40007450 <d_name>
40007ce4:	e3500000 	cmp	r0, #0
40007ce8:	e58d0004 	str	r0, [sp, #4]
40007cec:	0affff11 	beq	40007938 <d_type+0xb4>
40007cf0:	e5d03000 	ldrb	r3, [r0]
40007cf4:	e3530018 	cmp	r3, #24
40007cf8:	1affff0e 	bne	40007938 <d_type+0xb4>
40007cfc:	eaffff78 	b	40007ae4 <d_type+0x260>
40007d00:	e28cc001 	add	ip, ip, #1
40007d04:	e580c00c 	str	ip, [r0, #12]
40007d08:	ebfffedd 	bl	40007884 <d_type>
40007d0c:	e1a03005 	mov	r3, r5
40007d10:	e1a02000 	mov	r2, r0
40007d14:	e3a01024 	mov	r1, #36	; 0x24
40007d18:	eaffff7d 	b	40007b14 <d_type+0x290>
40007d1c:	e28cc001 	add	ip, ip, #1
40007d20:	e580c00c 	str	ip, [r0, #12]
40007d24:	ebfffed6 	bl	40007884 <d_type>
40007d28:	e1a03005 	mov	r3, r5
40007d2c:	e1a02000 	mov	r2, r0
40007d30:	e3a01022 	mov	r1, #34	; 0x22
40007d34:	eaffff76 	b	40007b14 <d_type+0x290>
40007d38:	e28cc001 	add	ip, ip, #1
40007d3c:	e580c00c 	str	ip, [r0, #12]
40007d40:	ebfffecf 	bl	40007884 <d_type>
40007d44:	e1a03005 	mov	r3, r5
40007d48:	e1a02000 	mov	r2, r0
40007d4c:	e3a01025 	mov	r1, #37	; 0x25
40007d50:	eaffff6f 	b	40007b14 <d_type+0x290>
40007d54:	e28cc001 	add	ip, ip, #1
40007d58:	e580c00c 	str	ip, [r0, #12]
40007d5c:	ebfffec8 	bl	40007884 <d_type>
40007d60:	e1a03005 	mov	r3, r5
40007d64:	e1a02000 	mov	r2, r0
40007d68:	e3a01026 	mov	r1, #38	; 0x26
40007d6c:	eaffff68 	b	40007b14 <d_type+0x290>
40007d70:	e28c3001 	add	r3, ip, #1
40007d74:	e580300c 	str	r3, [r0, #12]
40007d78:	e5dc3001 	ldrb	r3, [ip, #1]
40007d7c:	e3530000 	cmp	r3, #0
40007d80:	0afffed6 	beq	400078e0 <d_type+0x5c>
40007d84:	e28c3002 	add	r3, ip, #2
40007d88:	e580300c 	str	r3, [r0, #12]
40007d8c:	e5dc3001 	ldrb	r3, [ip, #1]
40007d90:	e3530066 	cmp	r3, #102	; 0x66
40007d94:	0a000043 	beq	40007ea8 <d_type+0x624>
40007d98:	8a00001f 	bhi	40007e1c <d_type+0x598>
40007d9c:	e3530061 	cmp	r3, #97	; 0x61
40007da0:	0a00003b 	beq	40007e94 <d_type+0x610>
40007da4:	8a000014 	bhi	40007dfc <d_type+0x578>
40007da8:	e3530046 	cmp	r3, #70	; 0x46
40007dac:	0a00004d 	beq	40007ee8 <d_type+0x664>
40007db0:	e3530054 	cmp	r3, #84	; 0x54
40007db4:	1afffec9 	bne	400078e0 <d_type+0x5c>
40007db8:	e1a00004 	mov	r0, r4
40007dbc:	eb0005a6 	bl	4000945c <d_expression>
40007dc0:	e3a03000 	mov	r3, #0
40007dc4:	e1a02000 	mov	r2, r0
40007dc8:	e3a01042 	mov	r1, #66	; 0x42
40007dcc:	e1a00004 	mov	r0, r4
40007dd0:	ebfff1ec 	bl	40004588 <d_make_comp>
40007dd4:	e3500000 	cmp	r0, #0
40007dd8:	e58d0004 	str	r0, [sp, #4]
40007ddc:	0afffed5 	beq	40007938 <d_type+0xb4>
40007de0:	e594300c 	ldr	r3, [r4, #12]
40007de4:	e5d32000 	ldrb	r2, [r3]
40007de8:	e3520000 	cmp	r2, #0
40007dec:	1a00001d 	bne	40007e68 <d_type+0x5e4>
40007df0:	e3a03000 	mov	r3, #0
40007df4:	e58d3004 	str	r3, [sp, #4]
40007df8:	eafffece 	b	40007938 <d_type+0xb4>
40007dfc:	e3530064 	cmp	r3, #100	; 0x64
40007e00:	0a000031 	beq	40007ecc <d_type+0x648>
40007e04:	8a000032 	bhi	40007ed4 <d_type+0x650>
40007e08:	e3530063 	cmp	r3, #99	; 0x63
40007e0c:	1afffeb3 	bne	400078e0 <d_type+0x5c>
40007e10:	e3a0200e 	mov	r2, #14
40007e14:	e59f11d8 	ldr	r1, [pc, #472]	; 40007ff4 <d_type+0x770>
40007e18:	ea00001f 	b	40007e9c <d_type+0x618>
40007e1c:	e3530070 	cmp	r3, #112	; 0x70
40007e20:	0a000016 	beq	40007e80 <d_type+0x5fc>
40007e24:	8a000007 	bhi	40007e48 <d_type+0x5c4>
40007e28:	e3530069 	cmp	r3, #105	; 0x69
40007e2c:	0a00002b 	beq	40007ee0 <d_type+0x65c>
40007e30:	e353006e 	cmp	r3, #110	; 0x6e
40007e34:	0a00006b 	beq	40007fe8 <d_type+0x764>
40007e38:	e3530068 	cmp	r3, #104	; 0x68
40007e3c:	1afffea7 	bne	400078e0 <d_type+0x5c>
40007e40:	e59f11b0 	ldr	r1, [pc, #432]	; 40007ff8 <d_type+0x774>
40007e44:	ea000023 	b	40007ed8 <d_type+0x654>
40007e48:	e3530074 	cmp	r3, #116	; 0x74
40007e4c:	0affffd9 	beq	40007db8 <d_type+0x534>
40007e50:	e3530076 	cmp	r3, #118	; 0x76
40007e54:	0a000047 	beq	40007f78 <d_type+0x6f4>
40007e58:	e3530073 	cmp	r3, #115	; 0x73
40007e5c:	1afffe9f 	bne	400078e0 <d_type+0x5c>
40007e60:	e59f1194 	ldr	r1, [pc, #404]	; 40007ffc <d_type+0x778>
40007e64:	ea00001b 	b	40007ed8 <d_type+0x654>
40007e68:	e2832001 	add	r2, r3, #1
40007e6c:	e584200c 	str	r2, [r4, #12]
40007e70:	e5d33000 	ldrb	r3, [r3]
40007e74:	e3530045 	cmp	r3, #69	; 0x45
40007e78:	1affffdc 	bne	40007df0 <d_type+0x56c>
40007e7c:	eafffead 	b	40007938 <d_type+0xb4>
40007e80:	ebfffe7f 	bl	40007884 <d_type>
40007e84:	e1a03005 	mov	r3, r5
40007e88:	e1a02000 	mov	r2, r0
40007e8c:	e3a0104a 	mov	r1, #74	; 0x4a
40007e90:	eaffff1f 	b	40007b14 <d_type+0x290>
40007e94:	e3a02004 	mov	r2, #4
40007e98:	e59f1160 	ldr	r1, [pc, #352]	; 40008000 <d_type+0x77c>
40007e9c:	ebfff21d 	bl	40004718 <d_make_name>
40007ea0:	e58d0004 	str	r0, [sp, #4]
40007ea4:	eaffff0e 	b	40007ae4 <d_type+0x260>
40007ea8:	e59f1154 	ldr	r1, [pc, #340]	; 40008004 <d_type+0x780>
40007eac:	ebfff22a 	bl	4000475c <d_make_builtin_type>
40007eb0:	e58d0004 	str	r0, [sp, #4]
40007eb4:	e5902004 	ldr	r2, [r0, #4]
40007eb8:	e5943030 	ldr	r3, [r4, #48]	; 0x30
40007ebc:	e5922004 	ldr	r2, [r2, #4]
40007ec0:	e0833002 	add	r3, r3, r2
40007ec4:	e5843030 	str	r3, [r4, #48]	; 0x30
40007ec8:	eaffff05 	b	40007ae4 <d_type+0x260>
40007ecc:	e59f1134 	ldr	r1, [pc, #308]	; 40008008 <d_type+0x784>
40007ed0:	eafffff5 	b	40007eac <d_type+0x628>
40007ed4:	e59f1130 	ldr	r1, [pc, #304]	; 4000800c <d_type+0x788>
40007ed8:	e1a00004 	mov	r0, r4
40007edc:	eafffff2 	b	40007eac <d_type+0x628>
40007ee0:	e59f1128 	ldr	r1, [pc, #296]	; 40008010 <d_type+0x78c>
40007ee4:	eafffff0 	b	40007eac <d_type+0x628>
40007ee8:	ebfff19b 	bl	4000455c <d_make_empty>
40007eec:	e3a0302c 	mov	r3, #44	; 0x2c
40007ef0:	e58d0004 	str	r0, [sp, #4]
40007ef4:	e5c03000 	strb	r3, [r0]
40007ef8:	e594300c 	ldr	r3, [r4, #12]
40007efc:	e5d33000 	ldrb	r3, [r3]
40007f00:	e2433030 	sub	r3, r3, #48	; 0x30
40007f04:	e20330ff 	and	r3, r3, #255	; 0xff
40007f08:	e3530009 	cmp	r3, #9
40007f0c:	93a03001 	movls	r3, #1
40007f10:	83a03000 	movhi	r3, #0
40007f14:	e1c030b8 	strh	r3, [r0, #8]
40007f18:	9284000c 	addls	r0, r4, #12
40007f1c:	9bfff364 	blls	40004cb4 <d_number.isra.0>
40007f20:	e1a00004 	mov	r0, r4
40007f24:	e59d5004 	ldr	r5, [sp, #4]
40007f28:	ebfffe55 	bl	40007884 <d_type>
40007f2c:	e59d3004 	ldr	r3, [sp, #4]
40007f30:	e5850004 	str	r0, [r5, #4]
40007f34:	e5933004 	ldr	r3, [r3, #4]
40007f38:	e3530000 	cmp	r3, #0
40007f3c:	0afffe67 	beq	400078e0 <d_type+0x5c>
40007f40:	e284000c 	add	r0, r4, #12
40007f44:	ebfff35a 	bl	40004cb4 <d_number.isra.0>
40007f48:	e594200c 	ldr	r2, [r4, #12]
40007f4c:	e5d23000 	ldrb	r3, [r2]
40007f50:	e3530000 	cmp	r3, #0
40007f54:	12823001 	addne	r3, r2, #1
40007f58:	1584300c 	strne	r3, [r4, #12]
40007f5c:	15d23000 	ldrbne	r3, [r2]
40007f60:	e2432073 	sub	r2, r3, #115	; 0x73
40007f64:	e2723000 	rsbs	r3, r2, #0
40007f68:	e0a33002 	adc	r3, r3, r2
40007f6c:	e59d2004 	ldr	r2, [sp, #4]
40007f70:	e1c230ba 	strh	r3, [r2, #10]
40007f74:	eafffeda 	b	40007ae4 <d_type+0x260>
40007f78:	e5dc3002 	ldrb	r3, [ip, #2]
40007f7c:	e353005f 	cmp	r3, #95	; 0x5f
40007f80:	1a000016 	bne	40007fe0 <d_type+0x75c>
40007f84:	e28cc003 	add	ip, ip, #3
40007f88:	e580c00c 	str	ip, [r0, #12]
40007f8c:	eb000532 	bl	4000945c <d_expression>
40007f90:	e3500000 	cmp	r0, #0
40007f94:	e1a05000 	mov	r5, r0
40007f98:	0a00000e 	beq	40007fd8 <d_type+0x754>
40007f9c:	e594300c 	ldr	r3, [r4, #12]
40007fa0:	e5d32000 	ldrb	r2, [r3]
40007fa4:	e352005f 	cmp	r2, #95	; 0x5f
40007fa8:	13a05000 	movne	r5, #0
40007fac:	1a000009 	bne	40007fd8 <d_type+0x754>
40007fb0:	e2833001 	add	r3, r3, #1
40007fb4:	e584300c 	str	r3, [r4, #12]
40007fb8:	e1a00004 	mov	r0, r4
40007fbc:	ebfffe30 	bl	40007884 <d_type>
40007fc0:	e1a02005 	mov	r2, r5
40007fc4:	e1a03000 	mov	r3, r0
40007fc8:	e3a0102d 	mov	r1, #45	; 0x2d
40007fcc:	e1a00004 	mov	r0, r4
40007fd0:	ebfff16c 	bl	40004588 <d_make_comp>
40007fd4:	e1a05000 	mov	r5, r0
40007fd8:	e58d5004 	str	r5, [sp, #4]
40007fdc:	eafffe55 	b	40007938 <d_type+0xb4>
40007fe0:	ebfff34d 	bl	40004d1c <d_number_component>
40007fe4:	eaffffe9 	b	40007f90 <d_type+0x70c>
40007fe8:	e59f1024 	ldr	r1, [pc, #36]	; 40008014 <d_type+0x790>
40007fec:	eaffffb9 	b	40007ed8 <d_type+0x654>
40007ff0:	4001892c 	.word	0x4001892c
40007ff4:	400192cf 	.word	0x400192cf
40007ff8:	40018b70 	.word	0x40018b70
40007ffc:	40018b84 	.word	0x40018b84
40008000:	400192ca 	.word	0x400192ca
40008004:	40018b34 	.word	0x40018b34
40008008:	40018b48 	.word	0x40018b48
4000800c:	40018b5c 	.word	0x40018b5c
40008010:	40018b98 	.word	0x40018b98
40008014:	40018bac 	.word	0x40018bac

Disassembly of section .text.d_operator_name:

40008018 <d_operator_name>:
40008018:	e92d41f0 	push	{r4, r5, r6, r7, r8, lr}
4000801c:	e590300c 	ldr	r3, [r0, #12]
40008020:	e5d32000 	ldrb	r2, [r3]
40008024:	e3520000 	cmp	r2, #0
40008028:	12832001 	addne	r2, r3, #1
4000802c:	1580200c 	strne	r2, [r0, #12]
40008030:	15d32000 	ldrbne	r2, [r3]
40008034:	e590300c 	ldr	r3, [r0, #12]
40008038:	e5d31000 	ldrb	r1, [r3]
4000803c:	e3510000 	cmp	r1, #0
40008040:	e1a04000 	mov	r4, r0
40008044:	0a000017 	beq	400080a8 <d_operator_name+0x90>
40008048:	e2831001 	add	r1, r3, #1
4000804c:	e580100c 	str	r1, [r0, #12]
40008050:	e3520076 	cmp	r2, #118	; 0x76
40008054:	e5d31000 	ldrb	r1, [r3]
40008058:	1a000012 	bne	400080a8 <d_operator_name+0x90>
4000805c:	e2416030 	sub	r6, r1, #48	; 0x30
40008060:	e20630ff 	and	r3, r6, #255	; 0xff
40008064:	e3530009 	cmp	r3, #9
40008068:	8a00000e 	bhi	400080a8 <d_operator_name+0x90>
4000806c:	ebfff376 	bl	40004e4c <d_source_name>
40008070:	e1a05000 	mov	r5, r0
40008074:	e1a00004 	mov	r0, r4
40008078:	ebfff137 	bl	4000455c <d_make_empty>
4000807c:	e3550000 	cmp	r5, #0
40008080:	13500000 	cmpne	r0, #0
40008084:	1a000002 	bne	40008094 <d_operator_name+0x7c>
40008088:	e3a00000 	mov	r0, #0
4000808c:	e8bd41f0 	pop	{r4, r5, r6, r7, r8, lr}
40008090:	e12fff1e 	bx	lr
40008094:	e3a03032 	mov	r3, #50	; 0x32
40008098:	e5806004 	str	r6, [r0, #4]
4000809c:	e5c03000 	strb	r3, [r0]
400080a0:	e5805008 	str	r5, [r0, #8]
400080a4:	eafffff8 	b	4000808c <d_operator_name+0x74>
400080a8:	e3520063 	cmp	r2, #99	; 0x63
400080ac:	03510076 	cmpeq	r1, #118	; 0x76
400080b0:	03a00001 	moveq	r0, #1
400080b4:	13a00000 	movne	r0, #0
400080b8:	13a0c043 	movne	ip, #67	; 0x43
400080bc:	159fe0ac 	ldrne	lr, [pc, #172]	; 40008170 <d_operator_name+0x158>
400080c0:	1a000018 	bne	40008128 <d_operator_name+0x110>
400080c4:	e2843034 	add	r3, r4, #52	; 0x34
400080c8:	e8930028 	ldm	r3, {r3, r5}
400080cc:	e2733001 	rsbs	r3, r3, #1
400080d0:	33a03000 	movcc	r3, #0
400080d4:	e1a00004 	mov	r0, r4
400080d8:	e5843038 	str	r3, [r4, #56]	; 0x38
400080dc:	ebfffde8 	bl	40007884 <d_type>
400080e0:	e5943038 	ldr	r3, [r4, #56]	; 0x38
400080e4:	e3530000 	cmp	r3, #0
400080e8:	e1a02000 	mov	r2, r0
400080ec:	13a03000 	movne	r3, #0
400080f0:	13a01034 	movne	r1, #52	; 0x34
400080f4:	03a01033 	moveq	r1, #51	; 0x33
400080f8:	e1a00004 	mov	r0, r4
400080fc:	ebfff121 	bl	40004588 <d_make_comp>
40008100:	e5845038 	str	r5, [r4, #56]	; 0x38
40008104:	eaffffe0 	b	4000808c <d_operator_name+0x74>
40008108:	3a000003 	bcc	4000811c <d_operator_name+0x104>
4000810c:	e2830001 	add	r0, r3, #1
40008110:	e1a0300c 	mov	r3, ip
40008114:	ea000000 	b	4000811c <d_operator_name+0x104>
40008118:	9afffffb 	bls	4000810c <d_operator_name+0xf4>
4000811c:	e1500003 	cmp	r0, r3
40008120:	0affffd8 	beq	40008088 <d_operator_name+0x70>
40008124:	e1a0c003 	mov	ip, r3
40008128:	e04c3000 	sub	r3, ip, r0
4000812c:	e0833fa3 	add	r3, r3, r3, lsr #31
40008130:	e08030c3 	add	r3, r0, r3, asr #1
40008134:	e79e5203 	ldr	r5, [lr, r3, lsl #4]
40008138:	e5d57000 	ldrb	r7, [r5]
4000813c:	e1520007 	cmp	r2, r7
40008140:	e08e6203 	add	r6, lr, r3, lsl #4
40008144:	1affffef 	bne	40008108 <d_operator_name+0xf0>
40008148:	e5d55001 	ldrb	r5, [r5, #1]
4000814c:	e1550001 	cmp	r5, r1
40008150:	1afffff0 	bne	40008118 <d_operator_name+0x100>
40008154:	e1a00004 	mov	r0, r4
40008158:	ebfff0ff 	bl	4000455c <d_make_empty>
4000815c:	e3500000 	cmp	r0, #0
40008160:	13a03031 	movne	r3, #49	; 0x31
40008164:	15806004 	strne	r6, [r0, #4]
40008168:	15c03000 	strbne	r3, [r0]
4000816c:	eaffffc6 	b	4000808c <d_operator_name+0x74>
40008170:	40018bc0 	.word	0x40018bc0

Disassembly of section .text.d_parmlist:

40008174 <d_parmlist>:
40008174:	e92d40f7 	push	{r0, r1, r2, r4, r5, r6, r7, lr}
40008178:	e3a06000 	mov	r6, #0
4000817c:	e1a04000 	mov	r4, r0
40008180:	e3a0702e 	mov	r7, #46	; 0x2e
40008184:	e28d5008 	add	r5, sp, #8
40008188:	e5256004 	str	r6, [r5, #-4]!
4000818c:	e594100c 	ldr	r1, [r4, #12]
40008190:	e5d13000 	ldrb	r3, [r1]
40008194:	e3530045 	cmp	r3, #69	; 0x45
40008198:	13530000 	cmpne	r3, #0
4000819c:	03a02001 	moveq	r2, #1
400081a0:	13a02000 	movne	r2, #0
400081a4:	e353002e 	cmp	r3, #46	; 0x2e
400081a8:	03822001 	orreq	r2, r2, #1
400081ac:	e3520000 	cmp	r2, #0
400081b0:	1a000016 	bne	40008210 <d_parmlist+0x9c>
400081b4:	e353004f 	cmp	r3, #79	; 0x4f
400081b8:	13530052 	cmpne	r3, #82	; 0x52
400081bc:	1a000002 	bne	400081cc <d_parmlist+0x58>
400081c0:	e5d13001 	ldrb	r3, [r1, #1]
400081c4:	e3530045 	cmp	r3, #69	; 0x45
400081c8:	0a000010 	beq	40008210 <d_parmlist+0x9c>
400081cc:	e1a00004 	mov	r0, r4
400081d0:	ebfffdab 	bl	40007884 <d_type>
400081d4:	e2502000 	subs	r2, r0, #0
400081d8:	1a000003 	bne	400081ec <d_parmlist+0x78>
400081dc:	e3a00000 	mov	r0, #0
400081e0:	e28dd00c 	add	sp, sp, #12
400081e4:	e8bd40f0 	pop	{r4, r5, r6, r7, lr}
400081e8:	e12fff1e 	bx	lr
400081ec:	e1a03006 	mov	r3, r6
400081f0:	e1a01007 	mov	r1, r7
400081f4:	e1a00004 	mov	r0, r4
400081f8:	ebfff0e2 	bl	40004588 <d_make_comp>
400081fc:	e3500000 	cmp	r0, #0
40008200:	e5850000 	str	r0, [r5]
40008204:	0afffff4 	beq	400081dc <d_parmlist+0x68>
40008208:	e2805008 	add	r5, r0, #8
4000820c:	eaffffde 	b	4000818c <d_parmlist+0x18>
40008210:	e59d0004 	ldr	r0, [sp, #4]
40008214:	e3500000 	cmp	r0, #0
40008218:	0affffef 	beq	400081dc <d_parmlist+0x68>
4000821c:	e5902008 	ldr	r2, [r0, #8]
40008220:	e3520000 	cmp	r2, #0
40008224:	1affffed 	bne	400081e0 <d_parmlist+0x6c>
40008228:	e5903004 	ldr	r3, [r0, #4]
4000822c:	e5d31000 	ldrb	r1, [r3]
40008230:	e3510027 	cmp	r1, #39	; 0x27
40008234:	1affffe9 	bne	400081e0 <d_parmlist+0x6c>
40008238:	e5931004 	ldr	r1, [r3, #4]
4000823c:	e5d13010 	ldrb	r3, [r1, #16]
40008240:	e3530009 	cmp	r3, #9
40008244:	05943030 	ldreq	r3, [r4, #48]	; 0x30
40008248:	05911004 	ldreq	r1, [r1, #4]
4000824c:	00433001 	subeq	r3, r3, r1
40008250:	05843030 	streq	r3, [r4, #48]	; 0x30
40008254:	05802004 	streq	r2, [r0, #4]
40008258:	eaffffe0 	b	400081e0 <d_parmlist+0x6c>

Disassembly of section .text.d_unqualified_name:

4000825c <d_unqualified_name>:
4000825c:	e92d41f0 	push	{r4, r5, r6, r7, r8, lr}
40008260:	e590300c 	ldr	r3, [r0, #12]
40008264:	e5d32000 	ldrb	r2, [r3]
40008268:	e2421030 	sub	r1, r2, #48	; 0x30
4000826c:	e3510009 	cmp	r1, #9
40008270:	e1a05000 	mov	r5, r0
40008274:	8a000009 	bhi	400082a0 <d_unqualified_name+0x44>
40008278:	ebfff2f3 	bl	40004e4c <d_source_name>
4000827c:	e1a04000 	mov	r4, r0
40008280:	e595300c 	ldr	r3, [r5, #12]
40008284:	e5d33000 	ldrb	r3, [r3]
40008288:	e3530042 	cmp	r3, #66	; 0x42
4000828c:	1a00007c 	bne	40008484 <d_unqualified_name+0x228>
40008290:	e1a01004 	mov	r1, r4
40008294:	e1a00005 	mov	r0, r5
40008298:	e8bd41f0 	pop	{r4, r5, r6, r7, r8, lr}
4000829c:	eafff324 	b	40004f34 <d_abi_tags>
400082a0:	e2421061 	sub	r1, r2, #97	; 0x61
400082a4:	e3510019 	cmp	r1, #25
400082a8:	8a00001a 	bhi	40008318 <d_unqualified_name+0xbc>
400082ac:	ebffff59 	bl	40008018 <d_operator_name>
400082b0:	e2504000 	subs	r4, r0, #0
400082b4:	1a000001 	bne	400082c0 <d_unqualified_name+0x64>
400082b8:	e3a04000 	mov	r4, #0
400082bc:	eaffffef 	b	40008280 <d_unqualified_name+0x24>
400082c0:	e5d43000 	ldrb	r3, [r4]
400082c4:	e3530031 	cmp	r3, #49	; 0x31
400082c8:	1affffec 	bne	40008280 <d_unqualified_name+0x24>
400082cc:	e5942004 	ldr	r2, [r4, #4]
400082d0:	e5953030 	ldr	r3, [r5, #48]	; 0x30
400082d4:	e5921008 	ldr	r1, [r2, #8]
400082d8:	e2833007 	add	r3, r3, #7
400082dc:	e0833001 	add	r3, r3, r1
400082e0:	e5853030 	str	r3, [r5, #48]	; 0x30
400082e4:	e59f129c 	ldr	r1, [pc, #668]	; 40008588 <d_unqualified_name+0x32c>
400082e8:	e5920000 	ldr	r0, [r2]
400082ec:	ebffe4eb 	bl	400016a0 <strcmp>
400082f0:	e3500000 	cmp	r0, #0
400082f4:	1affffe1 	bne	40008280 <d_unqualified_name+0x24>
400082f8:	e1a00005 	mov	r0, r5
400082fc:	ebfff2d2 	bl	40004e4c <d_source_name>
40008300:	e1a02004 	mov	r2, r4
40008304:	e1a03000 	mov	r3, r0
40008308:	e3a01036 	mov	r1, #54	; 0x36
4000830c:	e1a00005 	mov	r0, r5
40008310:	ebfff09c 	bl	40004588 <d_make_comp>
40008314:	eaffffd8 	b	4000827c <d_unqualified_name+0x20>
40008318:	e2421043 	sub	r1, r2, #67	; 0x43
4000831c:	e3510001 	cmp	r1, #1
40008320:	8a00004f 	bhi	40008464 <d_unqualified_name+0x208>
40008324:	e590602c 	ldr	r6, [r0, #44]	; 0x2c
40008328:	e3560000 	cmp	r6, #0
4000832c:	0a000009 	beq	40008358 <d_unqualified_name+0xfc>
40008330:	e5d62000 	ldrb	r2, [r6]
40008334:	e3520000 	cmp	r2, #0
40008338:	1a000004 	bne	40008350 <d_unqualified_name+0xf4>
4000833c:	e5952030 	ldr	r2, [r5, #48]	; 0x30
40008340:	e5961008 	ldr	r1, [r6, #8]
40008344:	e0822001 	add	r2, r2, r1
40008348:	e5852030 	str	r2, [r5, #48]	; 0x30
4000834c:	ea000001 	b	40008358 <d_unqualified_name+0xfc>
40008350:	e3520018 	cmp	r2, #24
40008354:	0afffff8 	beq	4000833c <d_unqualified_name+0xe0>
40008358:	e5d32000 	ldrb	r2, [r3]
4000835c:	e3520043 	cmp	r2, #67	; 0x43
40008360:	0a00000c 	beq	40008398 <d_unqualified_name+0x13c>
40008364:	e3520044 	cmp	r2, #68	; 0x44
40008368:	1affffd2 	bne	400082b8 <d_unqualified_name+0x5c>
4000836c:	e5d32001 	ldrb	r2, [r3, #1]
40008370:	e2422030 	sub	r2, r2, #48	; 0x30
40008374:	e3520005 	cmp	r2, #5
40008378:	979ff102 	ldrls	pc, [pc, r2, lsl #2]
4000837c:	eaffffcd 	b	400082b8 <d_unqualified_name+0x5c>
40008380:	4000845c 	.word	0x4000845c
40008384:	40008418 	.word	0x40008418
40008388:	40008444 	.word	0x40008444
4000838c:	400082b8 	.word	0x400082b8
40008390:	4000844c 	.word	0x4000844c
40008394:	40008454 	.word	0x40008454
40008398:	e5d32001 	ldrb	r2, [r3, #1]
4000839c:	e2422031 	sub	r2, r2, #49	; 0x31
400083a0:	e3520004 	cmp	r2, #4
400083a4:	979ff102 	ldrls	pc, [pc, r2, lsl #2]
400083a8:	eaffffc2 	b	400082b8 <d_unqualified_name+0x5c>
400083ac:	40008410 	.word	0x40008410
400083b0:	400083c0 	.word	0x400083c0
400083b4:	400083f8 	.word	0x400083f8
400083b8:	40008400 	.word	0x40008400
400083bc:	40008408 	.word	0x40008408
400083c0:	e3a07002 	mov	r7, #2
400083c4:	e2833002 	add	r3, r3, #2
400083c8:	e585300c 	str	r3, [r5, #12]
400083cc:	e1a00005 	mov	r0, r5
400083d0:	ebfff061 	bl	4000455c <d_make_empty>
400083d4:	e3560000 	cmp	r6, #0
400083d8:	13500000 	cmpne	r0, #0
400083dc:	e1a04000 	mov	r4, r0
400083e0:	13a03007 	movne	r3, #7
400083e4:	0affffb3 	beq	400082b8 <d_unqualified_name+0x5c>
400083e8:	e5c43000 	strb	r3, [r4]
400083ec:	e5c47004 	strb	r7, [r4, #4]
400083f0:	e5846008 	str	r6, [r4, #8]
400083f4:	eaffffa1 	b	40008280 <d_unqualified_name+0x24>
400083f8:	e3a07003 	mov	r7, #3
400083fc:	eafffff0 	b	400083c4 <d_unqualified_name+0x168>
40008400:	e3a07004 	mov	r7, #4
40008404:	eaffffee 	b	400083c4 <d_unqualified_name+0x168>
40008408:	e3a07005 	mov	r7, #5
4000840c:	eaffffec 	b	400083c4 <d_unqualified_name+0x168>
40008410:	e3a07001 	mov	r7, #1
40008414:	eaffffea 	b	400083c4 <d_unqualified_name+0x168>
40008418:	e3a07002 	mov	r7, #2
4000841c:	e2833002 	add	r3, r3, #2
40008420:	e585300c 	str	r3, [r5, #12]
40008424:	e1a00005 	mov	r0, r5
40008428:	ebfff04b 	bl	4000455c <d_make_empty>
4000842c:	e3560000 	cmp	r6, #0
40008430:	13500000 	cmpne	r0, #0
40008434:	e1a04000 	mov	r4, r0
40008438:	0affff9e 	beq	400082b8 <d_unqualified_name+0x5c>
4000843c:	e3a03008 	mov	r3, #8
40008440:	eaffffe8 	b	400083e8 <d_unqualified_name+0x18c>
40008444:	e3a07003 	mov	r7, #3
40008448:	eafffff3 	b	4000841c <d_unqualified_name+0x1c0>
4000844c:	e3a07004 	mov	r7, #4
40008450:	eafffff1 	b	4000841c <d_unqualified_name+0x1c0>
40008454:	e3a07005 	mov	r7, #5
40008458:	eaffffef 	b	4000841c <d_unqualified_name+0x1c0>
4000845c:	e3a07001 	mov	r7, #1
40008460:	eaffffed 	b	4000841c <d_unqualified_name+0x1c0>
40008464:	e352004c 	cmp	r2, #76	; 0x4c
40008468:	1a00000d 	bne	400084a4 <d_unqualified_name+0x248>
4000846c:	e2833001 	add	r3, r3, #1
40008470:	e580300c 	str	r3, [r0, #12]
40008474:	ebfff274 	bl	40004e4c <d_source_name>
40008478:	e2504000 	subs	r4, r0, #0
4000847c:	1a000003 	bne	40008490 <d_unqualified_name+0x234>
40008480:	e3a04000 	mov	r4, #0
40008484:	e1a00004 	mov	r0, r4
40008488:	e8bd41f0 	pop	{r4, r5, r6, r7, r8, lr}
4000848c:	e12fff1e 	bx	lr
40008490:	e1a00005 	mov	r0, r5
40008494:	ebfff25e 	bl	40004e14 <d_discriminator>
40008498:	e3500000 	cmp	r0, #0
4000849c:	1affff77 	bne	40008280 <d_unqualified_name+0x24>
400084a0:	eafffff6 	b	40008480 <d_unqualified_name+0x224>
400084a4:	e3520055 	cmp	r2, #85	; 0x55
400084a8:	1afffff4 	bne	40008480 <d_unqualified_name+0x224>
400084ac:	e5d32001 	ldrb	r2, [r3, #1]
400084b0:	e352006c 	cmp	r2, #108	; 0x6c
400084b4:	0a000012 	beq	40008504 <d_unqualified_name+0x2a8>
400084b8:	e3520074 	cmp	r2, #116	; 0x74
400084bc:	1affffef 	bne	40008480 <d_unqualified_name+0x224>
400084c0:	e2832001 	add	r2, r3, #1
400084c4:	e580200c 	str	r2, [r0, #12]
400084c8:	e5d32001 	ldrb	r2, [r3, #1]
400084cc:	e3520074 	cmp	r2, #116	; 0x74
400084d0:	1affff78 	bne	400082b8 <d_unqualified_name+0x5c>
400084d4:	e2833002 	add	r3, r3, #2
400084d8:	e580300c 	str	r3, [r0, #12]
400084dc:	ebfff21b 	bl	40004d50 <d_compact_number>
400084e0:	e2506000 	subs	r6, r0, #0
400084e4:	baffff73 	blt	400082b8 <d_unqualified_name+0x5c>
400084e8:	e1a00005 	mov	r0, r5
400084ec:	ebfff01a 	bl	4000455c <d_make_empty>
400084f0:	e2504000 	subs	r4, r0, #0
400084f4:	13a03047 	movne	r3, #71	; 0x47
400084f8:	15846004 	strne	r6, [r4, #4]
400084fc:	15c43000 	strbne	r3, [r4]
40008500:	ea00001a 	b	40008570 <d_unqualified_name+0x314>
40008504:	e2832001 	add	r2, r3, #1
40008508:	e580200c 	str	r2, [r0, #12]
4000850c:	e5d32001 	ldrb	r2, [r3, #1]
40008510:	e352006c 	cmp	r2, #108	; 0x6c
40008514:	1affff67 	bne	400082b8 <d_unqualified_name+0x5c>
40008518:	e2833002 	add	r3, r3, #2
4000851c:	e580300c 	str	r3, [r0, #12]
40008520:	ebffff13 	bl	40008174 <d_parmlist>
40008524:	e2507000 	subs	r7, r0, #0
40008528:	0affff62 	beq	400082b8 <d_unqualified_name+0x5c>
4000852c:	e595300c 	ldr	r3, [r5, #12]
40008530:	e5d32000 	ldrb	r2, [r3]
40008534:	e3520045 	cmp	r2, #69	; 0x45
40008538:	1affff5e 	bne	400082b8 <d_unqualified_name+0x5c>
4000853c:	e2833001 	add	r3, r3, #1
40008540:	e585300c 	str	r3, [r5, #12]
40008544:	e1a00005 	mov	r0, r5
40008548:	ebfff200 	bl	40004d50 <d_compact_number>
4000854c:	e2506000 	subs	r6, r0, #0
40008550:	baffff58 	blt	400082b8 <d_unqualified_name+0x5c>
40008554:	e1a00005 	mov	r0, r5
40008558:	ebffefff 	bl	4000455c <d_make_empty>
4000855c:	e2504000 	subs	r4, r0, #0
40008560:	13a03045 	movne	r3, #69	; 0x45
40008564:	15847004 	strne	r7, [r4, #4]
40008568:	15c43000 	strbne	r3, [r4]
4000856c:	15846008 	strne	r6, [r4, #8]
40008570:	e1a01004 	mov	r1, r4
40008574:	e1a00005 	mov	r0, r5
40008578:	ebfff0ee 	bl	40004938 <d_add_substitution>
4000857c:	e3500000 	cmp	r0, #0
40008580:	1affff3e 	bne	40008280 <d_unqualified_name+0x24>
40008584:	eaffff4b 	b	400082b8 <d_unqualified_name+0x5c>
40008588:	400192de 	.word	0x400192de

Disassembly of section .text.d_bare_function_type:

4000858c <d_bare_function_type>:
4000858c:	e92d4070 	push	{r4, r5, r6, lr}
40008590:	e590300c 	ldr	r3, [r0, #12]
40008594:	e5d32000 	ldrb	r2, [r3]
40008598:	e352004a 	cmp	r2, #74	; 0x4a
4000859c:	02833001 	addeq	r3, r3, #1
400085a0:	e1a04000 	mov	r4, r0
400085a4:	0580300c 	streq	r3, [r0, #12]
400085a8:	0a000002 	beq	400085b8 <d_bare_function_type+0x2c>
400085ac:	e3510000 	cmp	r1, #0
400085b0:	01a05001 	moveq	r5, r1
400085b4:	0a000006 	beq	400085d4 <d_bare_function_type+0x48>
400085b8:	e1a00004 	mov	r0, r4
400085bc:	ebfffcb0 	bl	40007884 <d_type>
400085c0:	e2505000 	subs	r5, r0, #0
400085c4:	1a000002 	bne	400085d4 <d_bare_function_type+0x48>
400085c8:	e3a00000 	mov	r0, #0
400085cc:	e8bd4070 	pop	{r4, r5, r6, lr}
400085d0:	e12fff1e 	bx	lr
400085d4:	e1a00004 	mov	r0, r4
400085d8:	ebfffee5 	bl	40008174 <d_parmlist>
400085dc:	e2503000 	subs	r3, r0, #0
400085e0:	0afffff8 	beq	400085c8 <d_bare_function_type+0x3c>
400085e4:	e1a02005 	mov	r2, r5
400085e8:	e1a00004 	mov	r0, r4
400085ec:	e3a01029 	mov	r1, #41	; 0x29
400085f0:	e8bd4070 	pop	{r4, r5, r6, lr}
400085f4:	eaffefe3 	b	40004588 <d_make_comp>

Disassembly of section .text.d_function_type:

400085f8 <d_function_type>:
400085f8:	e590300c 	ldr	r3, [r0, #12]
400085fc:	e5d32000 	ldrb	r2, [r3]
40008600:	e3520046 	cmp	r2, #70	; 0x46
40008604:	0a000001 	beq	40008610 <d_function_type+0x18>
40008608:	e3a00000 	mov	r0, #0
4000860c:	e12fff1e 	bx	lr
40008610:	e92d4010 	push	{r4, lr}
40008614:	e2832001 	add	r2, r3, #1
40008618:	e580200c 	str	r2, [r0, #12]
4000861c:	e5d32001 	ldrb	r2, [r3, #1]
40008620:	e3520059 	cmp	r2, #89	; 0x59
40008624:	02833002 	addeq	r3, r3, #2
40008628:	0580300c 	streq	r3, [r0, #12]
4000862c:	e3a01001 	mov	r1, #1
40008630:	e1a04000 	mov	r4, r0
40008634:	ebffffd4 	bl	4000858c <d_bare_function_type>
40008638:	e1a01000 	mov	r1, r0
4000863c:	e1a00004 	mov	r0, r4
40008640:	ebfff0a8 	bl	400048e8 <d_ref_qualifier>
40008644:	e594300c 	ldr	r3, [r4, #12]
40008648:	e5d32000 	ldrb	r2, [r3]
4000864c:	e3520045 	cmp	r2, #69	; 0x45
40008650:	02833001 	addeq	r3, r3, #1
40008654:	13a00000 	movne	r0, #0
40008658:	0584300c 	streq	r3, [r4, #12]
4000865c:	e8bd4010 	pop	{r4, lr}
40008660:	e12fff1e 	bx	lr

Disassembly of section .text.d_encoding:

40008664 <d_encoding>:
40008664:	e92d4ff1 	push	{r0, r4, r5, r6, r7, r8, r9, sl, fp, lr}
40008668:	e590300c 	ldr	r3, [r0, #12]
4000866c:	e5d32000 	ldrb	r2, [r3]
40008670:	e3520054 	cmp	r2, #84	; 0x54
40008674:	13520047 	cmpne	r2, #71	; 0x47
40008678:	e1a04000 	mov	r4, r0
4000867c:	1a000104 	bne	40008a94 <d_encoding+0x430>
40008680:	e5902030 	ldr	r2, [r0, #48]	; 0x30
40008684:	e2821014 	add	r1, r2, #20
40008688:	e5801030 	str	r1, [r0, #48]	; 0x30
4000868c:	e5d31000 	ldrb	r1, [r3]
40008690:	e3510054 	cmp	r1, #84	; 0x54
40008694:	1a00014f 	bne	40008bd8 <d_encoding+0x574>
40008698:	e2831001 	add	r1, r3, #1
4000869c:	e580100c 	str	r1, [r0, #12]
400086a0:	e5d31001 	ldrb	r1, [r3, #1]
400086a4:	e3510000 	cmp	r1, #0
400086a8:	1a000001 	bne	400086b4 <d_encoding+0x50>
400086ac:	e3a05000 	mov	r5, #0
400086b0:	ea000108 	b	40008ad8 <d_encoding+0x474>
400086b4:	e2831002 	add	r1, r3, #2
400086b8:	e580100c 	str	r1, [r0, #12]
400086bc:	e5d31001 	ldrb	r1, [r3, #1]
400086c0:	e3510053 	cmp	r1, #83	; 0x53
400086c4:	0a000048 	beq	400087ec <d_encoding+0x188>
400086c8:	8a000014 	bhi	40008720 <d_encoding+0xbc>
400086cc:	e3510048 	cmp	r1, #72	; 0x48
400086d0:	0a000073 	beq	400088a4 <d_encoding+0x240>
400086d4:	8a000008 	bhi	400086fc <d_encoding+0x98>
400086d8:	e3510043 	cmp	r1, #67	; 0x43
400086dc:	0a00005b 	beq	40008850 <d_encoding+0x1ec>
400086e0:	e3510046 	cmp	r1, #70	; 0x46
400086e4:	1afffff0 	bne	400086ac <d_encoding+0x48>
400086e8:	ebfffc65 	bl	40007884 <d_type>
400086ec:	e3a03000 	mov	r3, #0
400086f0:	e1a02000 	mov	r2, r0
400086f4:	e3a0100e 	mov	r1, #14
400086f8:	ea000015 	b	40008754 <d_encoding+0xf0>
400086fc:	e3510049 	cmp	r1, #73	; 0x49
40008700:	0a000034 	beq	400087d8 <d_encoding+0x174>
40008704:	e351004a 	cmp	r1, #74	; 0x4a
40008708:	1affffe7 	bne	400086ac <d_encoding+0x48>
4000870c:	ebfffc5c 	bl	40007884 <d_type>
40008710:	e3a03000 	mov	r3, #0
40008714:	e1a02000 	mov	r2, r0
40008718:	e3a01012 	mov	r1, #18
4000871c:	ea00000c 	b	40008754 <d_encoding+0xf0>
40008720:	e3510057 	cmp	r1, #87	; 0x57
40008724:	0a000063 	beq	400088b8 <d_encoding+0x254>
40008728:	8a00000d 	bhi	40008764 <d_encoding+0x100>
4000872c:	e3510054 	cmp	r1, #84	; 0x54
40008730:	0a000021 	beq	400087bc <d_encoding+0x158>
40008734:	e3510056 	cmp	r1, #86	; 0x56
40008738:	1affffdb 	bne	400086ac <d_encoding+0x48>
4000873c:	e282200f 	add	r2, r2, #15
40008740:	e5802030 	str	r2, [r0, #48]	; 0x30
40008744:	ebfffc4e 	bl	40007884 <d_type>
40008748:	e3a03000 	mov	r3, #0
4000874c:	e1a02000 	mov	r2, r0
40008750:	e3a01009 	mov	r1, #9
40008754:	e1a00004 	mov	r0, r4
40008758:	e28dd004 	add	sp, sp, #4
4000875c:	e8bd4ff0 	pop	{r4, r5, r6, r7, r8, r9, sl, fp, lr}
40008760:	eaffef88 	b	40004588 <d_make_comp>
40008764:	e3510068 	cmp	r1, #104	; 0x68
40008768:	0a000024 	beq	40008800 <d_encoding+0x19c>
4000876c:	e3510076 	cmp	r1, #118	; 0x76
40008770:	0a00002c 	beq	40008828 <d_encoding+0x1c4>
40008774:	e3510063 	cmp	r1, #99	; 0x63
40008778:	1affffcb 	bne	400086ac <d_encoding+0x48>
4000877c:	e3a01000 	mov	r1, #0
40008780:	ebfff203 	bl	40004f94 <d_call_offset>
40008784:	e3500000 	cmp	r0, #0
40008788:	0affffc7 	beq	400086ac <d_encoding+0x48>
4000878c:	e3a01000 	mov	r1, #0
40008790:	e1a00004 	mov	r0, r4
40008794:	ebfff1fe 	bl	40004f94 <d_call_offset>
40008798:	e3500000 	cmp	r0, #0
4000879c:	0affffc2 	beq	400086ac <d_encoding+0x48>
400087a0:	e3a01000 	mov	r1, #0
400087a4:	e1a00004 	mov	r0, r4
400087a8:	ebffffad 	bl	40008664 <d_encoding>
400087ac:	e3a03000 	mov	r3, #0
400087b0:	e1a02000 	mov	r2, r0
400087b4:	e3a01011 	mov	r1, #17
400087b8:	eaffffe5 	b	40008754 <d_encoding+0xf0>
400087bc:	e282200a 	add	r2, r2, #10
400087c0:	e5802030 	str	r2, [r0, #48]	; 0x30
400087c4:	ebfffc2e 	bl	40007884 <d_type>
400087c8:	e3a03000 	mov	r3, #0
400087cc:	e1a02000 	mov	r2, r0
400087d0:	e3a0100a 	mov	r1, #10
400087d4:	eaffffde 	b	40008754 <d_encoding+0xf0>
400087d8:	ebfffc29 	bl	40007884 <d_type>
400087dc:	e3a03000 	mov	r3, #0
400087e0:	e1a02000 	mov	r2, r0
400087e4:	e3a0100c 	mov	r1, #12
400087e8:	eaffffd9 	b	40008754 <d_encoding+0xf0>
400087ec:	ebfffc24 	bl	40007884 <d_type>
400087f0:	e3a03000 	mov	r3, #0
400087f4:	e1a02000 	mov	r2, r0
400087f8:	e3a0100d 	mov	r1, #13
400087fc:	eaffffd4 	b	40008754 <d_encoding+0xf0>
40008800:	ebfff1e3 	bl	40004f94 <d_call_offset>
40008804:	e3500000 	cmp	r0, #0
40008808:	0affffa7 	beq	400086ac <d_encoding+0x48>
4000880c:	e3a01000 	mov	r1, #0
40008810:	e1a00004 	mov	r0, r4
40008814:	ebffff92 	bl	40008664 <d_encoding>
40008818:	e3a03000 	mov	r3, #0
4000881c:	e1a02000 	mov	r2, r0
40008820:	e3a0100f 	mov	r1, #15
40008824:	eaffffca 	b	40008754 <d_encoding+0xf0>
40008828:	ebfff1d9 	bl	40004f94 <d_call_offset>
4000882c:	e3500000 	cmp	r0, #0
40008830:	0affff9d 	beq	400086ac <d_encoding+0x48>
40008834:	e3a01000 	mov	r1, #0
40008838:	e1a00004 	mov	r0, r4
4000883c:	ebffff88 	bl	40008664 <d_encoding>
40008840:	e3a03000 	mov	r3, #0
40008844:	e1a02000 	mov	r2, r0
40008848:	e3a01010 	mov	r1, #16
4000884c:	eaffffc0 	b	40008754 <d_encoding+0xf0>
40008850:	ebfffc0b 	bl	40007884 <d_type>
40008854:	e1a05000 	mov	r5, r0
40008858:	e284000c 	add	r0, r4, #12
4000885c:	ebfff114 	bl	40004cb4 <d_number.isra.0>
40008860:	e3500000 	cmp	r0, #0
40008864:	baffff90 	blt	400086ac <d_encoding+0x48>
40008868:	e594300c 	ldr	r3, [r4, #12]
4000886c:	e5d32000 	ldrb	r2, [r3]
40008870:	e352005f 	cmp	r2, #95	; 0x5f
40008874:	1affff8c 	bne	400086ac <d_encoding+0x48>
40008878:	e2833001 	add	r3, r3, #1
4000887c:	e584300c 	str	r3, [r4, #12]
40008880:	e1a00004 	mov	r0, r4
40008884:	ebfffbfe 	bl	40007884 <d_type>
40008888:	e5943030 	ldr	r3, [r4, #48]	; 0x30
4000888c:	e2833005 	add	r3, r3, #5
40008890:	e5843030 	str	r3, [r4, #48]	; 0x30
40008894:	e1a02000 	mov	r2, r0
40008898:	e1a03005 	mov	r3, r5
4000889c:	e3a0100b 	mov	r1, #11
400088a0:	eaffffab 	b	40008754 <d_encoding+0xf0>
400088a4:	ebfffae9 	bl	40007450 <d_name>
400088a8:	e3a03000 	mov	r3, #0
400088ac:	e1a02000 	mov	r2, r0
400088b0:	e3a01014 	mov	r1, #20
400088b4:	eaffffa6 	b	40008754 <d_encoding+0xf0>
400088b8:	ebfffae4 	bl	40007450 <d_name>
400088bc:	e3a03000 	mov	r3, #0
400088c0:	e1a02000 	mov	r2, r0
400088c4:	e3a01015 	mov	r1, #21
400088c8:	eaffffa1 	b	40008754 <d_encoding+0xf0>
400088cc:	e3520056 	cmp	r2, #86	; 0x56
400088d0:	0a000039 	beq	400089bc <d_encoding+0x358>
400088d4:	e3520072 	cmp	r2, #114	; 0x72
400088d8:	1affff73 	bne	400086ac <d_encoding+0x48>
400088dc:	e284000c 	add	r0, r4, #12
400088e0:	ebfff0f3 	bl	40004cb4 <d_number.isra.0>
400088e4:	e3500001 	cmp	r0, #1
400088e8:	daffff6f 	ble	400086ac <d_encoding+0x48>
400088ec:	e594300c 	ldr	r3, [r4, #12]
400088f0:	e5d32000 	ldrb	r2, [r3]
400088f4:	e3520000 	cmp	r2, #0
400088f8:	0affff6b 	beq	400086ac <d_encoding+0x48>
400088fc:	e2835001 	add	r5, r3, #1
40008900:	e584500c 	str	r5, [r4, #12]
40008904:	e5d33000 	ldrb	r3, [r3]
40008908:	e353005f 	cmp	r3, #95	; 0x5f
4000890c:	1affff66 	bne	400086ac <d_encoding+0x48>
40008910:	e3a07000 	mov	r7, #0
40008914:	e3a08040 	mov	r8, #64	; 0x40
40008918:	e3a0902f 	mov	r9, #47	; 0x2f
4000891c:	e3a0a02e 	mov	sl, #46	; 0x2e
40008920:	e2406001 	sub	r6, r0, #1
40008924:	e5d53000 	ldrb	r3, [r5]
40008928:	e3530000 	cmp	r3, #0
4000892c:	0affff5e 	beq	400086ac <d_encoding+0x48>
40008930:	e3530024 	cmp	r3, #36	; 0x24
40008934:	13a0b000 	movne	fp, #0
40008938:	1a000044 	bne	40008a50 <d_encoding+0x3ec>
4000893c:	e5d55001 	ldrb	r5, [r5, #1]
40008940:	e3550053 	cmp	r5, #83	; 0x53
40008944:	0a00003d 	beq	40008a40 <d_encoding+0x3dc>
40008948:	e355005f 	cmp	r5, #95	; 0x5f
4000894c:	0a00003d 	beq	40008a48 <d_encoding+0x3e4>
40008950:	e3550024 	cmp	r5, #36	; 0x24
40008954:	1affff54 	bne	400086ac <d_encoding+0x48>
40008958:	e1a00004 	mov	r0, r4
4000895c:	ebffeefe 	bl	4000455c <d_make_empty>
40008960:	e2502000 	subs	r2, r0, #0
40008964:	15825004 	strne	r5, [r2, #4]
40008968:	e594500c 	ldr	r5, [r4, #12]
4000896c:	e2855002 	add	r5, r5, #2
40008970:	15c28000 	strbne	r8, [r2]
40008974:	e584500c 	str	r5, [r4, #12]
40008978:	e2466002 	sub	r6, r6, #2
4000897c:	e3520000 	cmp	r2, #0
40008980:	0affff49 	beq	400086ac <d_encoding+0x48>
40008984:	e3570000 	cmp	r7, #0
40008988:	0a000006 	beq	400089a8 <d_encoding+0x344>
4000898c:	e1a03002 	mov	r3, r2
40008990:	e3a0103f 	mov	r1, #63	; 0x3f
40008994:	e1a02007 	mov	r2, r7
40008998:	e1a00004 	mov	r0, r4
4000899c:	ebffeef9 	bl	40004588 <d_make_comp>
400089a0:	e2502000 	subs	r2, r0, #0
400089a4:	0affff40 	beq	400086ac <d_encoding+0x48>
400089a8:	e3560000 	cmp	r6, #0
400089ac:	ca000021 	bgt	40008a38 <d_encoding+0x3d4>
400089b0:	e3a03000 	mov	r3, #0
400089b4:	e3a0103e 	mov	r1, #62	; 0x3e
400089b8:	eaffff65 	b	40008754 <d_encoding+0xf0>
400089bc:	ebfffaa3 	bl	40007450 <d_name>
400089c0:	e3a03000 	mov	r3, #0
400089c4:	e1a02000 	mov	r2, r0
400089c8:	e3a01013 	mov	r1, #19
400089cc:	eaffff60 	b	40008754 <d_encoding+0xf0>
400089d0:	e3a01000 	mov	r1, #0
400089d4:	ebffff22 	bl	40008664 <d_encoding>
400089d8:	e3a03000 	mov	r3, #0
400089dc:	e1a02000 	mov	r2, r0
400089e0:	e3a01017 	mov	r1, #23
400089e4:	eaffff5a 	b	40008754 <d_encoding+0xf0>
400089e8:	e5d32002 	ldrb	r2, [r3, #2]
400089ec:	e3520000 	cmp	r2, #0
400089f0:	e3a01000 	mov	r1, #0
400089f4:	0a000009 	beq	40008a20 <d_encoding+0x3bc>
400089f8:	e2832003 	add	r2, r3, #3
400089fc:	e584200c 	str	r2, [r4, #12]
40008a00:	e5d33002 	ldrb	r3, [r3, #2]
40008a04:	e353006e 	cmp	r3, #110	; 0x6e
40008a08:	1a000004 	bne	40008a20 <d_encoding+0x3bc>
40008a0c:	ebffff14 	bl	40008664 <d_encoding>
40008a10:	e3a03000 	mov	r3, #0
40008a14:	e1a02000 	mov	r2, r0
40008a18:	e3a01049 	mov	r1, #73	; 0x49
40008a1c:	eaffff4c 	b	40008754 <d_encoding+0xf0>
40008a20:	e1a00004 	mov	r0, r4
40008a24:	ebffff0e 	bl	40008664 <d_encoding>
40008a28:	e3a03000 	mov	r3, #0
40008a2c:	e1a02000 	mov	r2, r0
40008a30:	e3a01048 	mov	r1, #72	; 0x48
40008a34:	eaffff46 	b	40008754 <d_encoding+0xf0>
40008a38:	e1a07002 	mov	r7, r2
40008a3c:	eaffffb8 	b	40008924 <d_encoding+0x2c0>
40008a40:	e1a05009 	mov	r5, r9
40008a44:	eaffffc3 	b	40008958 <d_encoding+0x2f4>
40008a48:	e1a0500a 	mov	r5, sl
40008a4c:	eaffffc1 	b	40008958 <d_encoding+0x2f4>
40008a50:	e7d5300b 	ldrb	r3, [r5, fp]
40008a54:	e3530000 	cmp	r3, #0
40008a58:	13530024 	cmpne	r3, #36	; 0x24
40008a5c:	0a000002 	beq	40008a6c <d_encoding+0x408>
40008a60:	e28bb001 	add	fp, fp, #1
40008a64:	e15b0006 	cmp	fp, r6
40008a68:	bafffff8 	blt	40008a50 <d_encoding+0x3ec>
40008a6c:	e1a0200b 	mov	r2, fp
40008a70:	e1a01005 	mov	r1, r5
40008a74:	e1a00004 	mov	r0, r4
40008a78:	ebffef26 	bl	40004718 <d_make_name>
40008a7c:	e594500c 	ldr	r5, [r4, #12]
40008a80:	e085500b 	add	r5, r5, fp
40008a84:	e584500c 	str	r5, [r4, #12]
40008a88:	e046600b 	sub	r6, r6, fp
40008a8c:	e2502000 	subs	r2, r0, #0
40008a90:	eaffffba 	b	40008980 <d_encoding+0x31c>
40008a94:	e1a06001 	mov	r6, r1
40008a98:	ebfffa6c 	bl	40007450 <d_name>
40008a9c:	e3500000 	cmp	r0, #0
40008aa0:	13560000 	cmpne	r6, #0
40008aa4:	e1a05000 	mov	r5, r0
40008aa8:	0a000018 	beq	40008b10 <d_encoding+0x4ac>
40008aac:	e5943008 	ldr	r3, [r4, #8]
40008ab0:	e3130001 	tst	r3, #1
40008ab4:	1a000015 	bne	40008b10 <d_encoding+0x4ac>
40008ab8:	e5d53000 	ldrb	r3, [r5]
40008abc:	e243201c 	sub	r2, r3, #28
40008ac0:	e353004c 	cmp	r3, #76	; 0x4c
40008ac4:	13520004 	cmpne	r2, #4
40008ac8:	9a000006 	bls	40008ae8 <d_encoding+0x484>
40008acc:	e3530002 	cmp	r3, #2
40008ad0:	05953008 	ldreq	r3, [r5, #8]
40008ad4:	0a000006 	beq	40008af4 <d_encoding+0x490>
40008ad8:	e1a00005 	mov	r0, r5
40008adc:	e28dd004 	add	sp, sp, #4
40008ae0:	e8bd4ff0 	pop	{r4, r5, r6, r7, r8, r9, sl, fp, lr}
40008ae4:	e12fff1e 	bx	lr
40008ae8:	e5955004 	ldr	r5, [r5, #4]
40008aec:	eafffff1 	b	40008ab8 <d_encoding+0x454>
40008af0:	e5933004 	ldr	r3, [r3, #4]
40008af4:	e5d32000 	ldrb	r2, [r3]
40008af8:	e242101c 	sub	r1, r2, #28
40008afc:	e352004c 	cmp	r2, #76	; 0x4c
40008b00:	13510004 	cmpne	r1, #4
40008b04:	9afffff9 	bls	40008af0 <d_encoding+0x48c>
40008b08:	e5853008 	str	r3, [r5, #8]
40008b0c:	eafffff1 	b	40008ad8 <d_encoding+0x474>
40008b10:	e594300c 	ldr	r3, [r4, #12]
40008b14:	e5d33000 	ldrb	r3, [r3]
40008b18:	e3530045 	cmp	r3, #69	; 0x45
40008b1c:	13530000 	cmpne	r3, #0
40008b20:	03a03001 	moveq	r3, #1
40008b24:	13a03000 	movne	r3, #0
40008b28:	e3550000 	cmp	r5, #0
40008b2c:	03833001 	orreq	r3, r3, #1
40008b30:	e3530000 	cmp	r3, #0
40008b34:	1affffe7 	bne	40008ad8 <d_encoding+0x474>
40008b38:	e1a01005 	mov	r1, r5
40008b3c:	e5d13000 	ldrb	r3, [r1]
40008b40:	e3530020 	cmp	r3, #32
40008b44:	8a000006 	bhi	40008b64 <d_encoding+0x500>
40008b48:	e353001c 	cmp	r3, #28
40008b4c:	2a000006 	bcs	40008b6c <d_encoding+0x508>
40008b50:	e3530004 	cmp	r3, #4
40008b54:	05911004 	ldreq	r1, [r1, #4]
40008b58:	0a00000c 	beq	40008b90 <d_encoding+0x52c>
40008b5c:	e3a01000 	mov	r1, #0
40008b60:	ea000016 	b	40008bc0 <d_encoding+0x55c>
40008b64:	e353004c 	cmp	r3, #76	; 0x4c
40008b68:	1afffffb 	bne	40008b5c <d_encoding+0x4f8>
40008b6c:	e5911004 	ldr	r1, [r1, #4]
40008b70:	e3510000 	cmp	r1, #0
40008b74:	1afffff0 	bne	40008b3c <d_encoding+0x4d8>
40008b78:	ea000010 	b	40008bc0 <d_encoding+0x55c>
40008b7c:	e3530034 	cmp	r3, #52	; 0x34
40008b80:	1a00000c 	bne	40008bb8 <d_encoding+0x554>
40008b84:	e3a01001 	mov	r1, #1
40008b88:	ea00000b 	b	40008bbc <d_encoding+0x558>
40008b8c:	e5911008 	ldr	r1, [r1, #8]
40008b90:	e3510000 	cmp	r1, #0
40008b94:	0a000008 	beq	40008bbc <d_encoding+0x558>
40008b98:	e5d13000 	ldrb	r3, [r1]
40008b9c:	e3530008 	cmp	r3, #8
40008ba0:	8afffff5 	bhi	40008b7c <d_encoding+0x518>
40008ba4:	e3530007 	cmp	r3, #7
40008ba8:	2afffff5 	bcs	40008b84 <d_encoding+0x520>
40008bac:	e2433001 	sub	r3, r3, #1
40008bb0:	e3530001 	cmp	r3, #1
40008bb4:	9afffff4 	bls	40008b8c <d_encoding+0x528>
40008bb8:	e3a01000 	mov	r1, #0
40008bbc:	e2211001 	eor	r1, r1, #1
40008bc0:	e1a00004 	mov	r0, r4
40008bc4:	ebfffe70 	bl	4000858c <d_bare_function_type>
40008bc8:	e1a02005 	mov	r2, r5
40008bcc:	e1a03000 	mov	r3, r0
40008bd0:	e3a01003 	mov	r1, #3
40008bd4:	eafffede 	b	40008754 <d_encoding+0xf0>
40008bd8:	e3510047 	cmp	r1, #71	; 0x47
40008bdc:	1afffeb2 	bne	400086ac <d_encoding+0x48>
40008be0:	e2832001 	add	r2, r3, #1
40008be4:	e584200c 	str	r2, [r4, #12]
40008be8:	e5d32001 	ldrb	r2, [r3, #1]
40008bec:	e3520000 	cmp	r2, #0
40008bf0:	0afffead 	beq	400086ac <d_encoding+0x48>
40008bf4:	e2832002 	add	r2, r3, #2
40008bf8:	e584200c 	str	r2, [r4, #12]
40008bfc:	e5d32001 	ldrb	r2, [r3, #1]
40008c00:	e3520054 	cmp	r2, #84	; 0x54
40008c04:	0affff77 	beq	400089e8 <d_encoding+0x384>
40008c08:	8affff2f 	bhi	400088cc <d_encoding+0x268>
40008c0c:	e3520041 	cmp	r2, #65	; 0x41
40008c10:	0affff6e 	beq	400089d0 <d_encoding+0x36c>
40008c14:	e3520052 	cmp	r2, #82	; 0x52
40008c18:	1afffea3 	bne	400086ac <d_encoding+0x48>
40008c1c:	ebfffa0b 	bl	40007450 <d_name>
40008c20:	e1a05000 	mov	r5, r0
40008c24:	e1a00004 	mov	r0, r4
40008c28:	ebfff03b 	bl	40004d1c <d_number_component>
40008c2c:	e1a02005 	mov	r2, r5
40008c30:	e1a03000 	mov	r3, r0
40008c34:	e3a01016 	mov	r1, #22
40008c38:	eafffec5 	b	40008754 <d_encoding+0xf0>

Disassembly of section .text.d_expr_primary:

40008c3c <d_expr_primary>:
40008c3c:	e590300c 	ldr	r3, [r0, #12]
40008c40:	e5d32000 	ldrb	r2, [r3]
40008c44:	e352004c 	cmp	r2, #76	; 0x4c
40008c48:	0a000004 	beq	40008c60 <d_expr_primary+0x24>
40008c4c:	e3a00000 	mov	r0, #0
40008c50:	e12fff1e 	bx	lr
40008c54:	e3a00000 	mov	r0, #0
40008c58:	e8bd4070 	pop	{r4, r5, r6, lr}
40008c5c:	e12fff1e 	bx	lr
40008c60:	e92d4070 	push	{r4, r5, r6, lr}
40008c64:	e2832001 	add	r2, r3, #1
40008c68:	e580200c 	str	r2, [r0, #12]
40008c6c:	e5d32001 	ldrb	r2, [r3, #1]
40008c70:	e352005a 	cmp	r2, #90	; 0x5a
40008c74:	1352005f 	cmpne	r2, #95	; 0x5f
40008c78:	e1a04000 	mov	r4, r0
40008c7c:	1a000012 	bne	40008ccc <d_expr_primary+0x90>
40008c80:	e352005f 	cmp	r2, #95	; 0x5f
40008c84:	02833002 	addeq	r3, r3, #2
40008c88:	0580300c 	streq	r3, [r0, #12]
40008c8c:	e590300c 	ldr	r3, [r0, #12]
40008c90:	e5d32000 	ldrb	r2, [r3]
40008c94:	e352005a 	cmp	r2, #90	; 0x5a
40008c98:	13a00000 	movne	r0, #0
40008c9c:	02833001 	addeq	r3, r3, #1
40008ca0:	0584300c 	streq	r3, [r4, #12]
40008ca4:	03a01000 	moveq	r1, #0
40008ca8:	01a00004 	moveq	r0, r4
40008cac:	0bfffe6c 	bleq	40008664 <d_encoding>
40008cb0:	e594300c 	ldr	r3, [r4, #12]
40008cb4:	e5d32000 	ldrb	r2, [r3]
40008cb8:	e3520045 	cmp	r2, #69	; 0x45
40008cbc:	1affffe4 	bne	40008c54 <d_expr_primary+0x18>
40008cc0:	e2833001 	add	r3, r3, #1
40008cc4:	e584300c 	str	r3, [r4, #12]
40008cc8:	eaffffe2 	b	40008c58 <d_expr_primary+0x1c>
40008ccc:	ebfffaec 	bl	40007884 <d_type>
40008cd0:	e2505000 	subs	r5, r0, #0
40008cd4:	0affffde 	beq	40008c54 <d_expr_primary+0x18>
40008cd8:	e5d53000 	ldrb	r3, [r5]
40008cdc:	e3530027 	cmp	r3, #39	; 0x27
40008ce0:	1a000006 	bne	40008d00 <d_expr_primary+0xc4>
40008ce4:	e5952004 	ldr	r2, [r5, #4]
40008ce8:	e5d23010 	ldrb	r3, [r2, #16]
40008cec:	e3530000 	cmp	r3, #0
40008cf0:	15943030 	ldrne	r3, [r4, #48]	; 0x30
40008cf4:	15922004 	ldrne	r2, [r2, #4]
40008cf8:	10433002 	subne	r3, r3, r2
40008cfc:	15843030 	strne	r3, [r4, #48]	; 0x30
40008d00:	e594300c 	ldr	r3, [r4, #12]
40008d04:	e5d32000 	ldrb	r2, [r3]
40008d08:	e352006e 	cmp	r2, #110	; 0x6e
40008d0c:	03a0603d 	moveq	r6, #61	; 0x3d
40008d10:	13a0603c 	movne	r6, #60	; 0x3c
40008d14:	02833001 	addeq	r3, r3, #1
40008d18:	0584300c 	streq	r3, [r4, #12]
40008d1c:	e594100c 	ldr	r1, [r4, #12]
40008d20:	e594200c 	ldr	r2, [r4, #12]
40008d24:	e5d23000 	ldrb	r3, [r2]
40008d28:	e3530045 	cmp	r3, #69	; 0x45
40008d2c:	1a000008 	bne	40008d54 <d_expr_primary+0x118>
40008d30:	e0422001 	sub	r2, r2, r1
40008d34:	e1a00004 	mov	r0, r4
40008d38:	ebffee76 	bl	40004718 <d_make_name>
40008d3c:	e1a02005 	mov	r2, r5
40008d40:	e1a03000 	mov	r3, r0
40008d44:	e1a01006 	mov	r1, r6
40008d48:	e1a00004 	mov	r0, r4
40008d4c:	ebffee0d 	bl	40004588 <d_make_comp>
40008d50:	eaffffd6 	b	40008cb0 <d_expr_primary+0x74>
40008d54:	e3530000 	cmp	r3, #0
40008d58:	0affffbd 	beq	40008c54 <d_expr_primary+0x18>
40008d5c:	e2822001 	add	r2, r2, #1
40008d60:	e584200c 	str	r2, [r4, #12]
40008d64:	eaffffed 	b	40008d20 <d_expr_primary+0xe4>

Disassembly of section .text.d_template_args_1:

40008d68 <d_template_args_1>:
40008d68:	e92d41f3 	push	{r0, r1, r4, r5, r6, r7, r8, lr}
40008d6c:	e590300c 	ldr	r3, [r0, #12]
40008d70:	e5d32000 	ldrb	r2, [r3]
40008d74:	e3520045 	cmp	r2, #69	; 0x45
40008d78:	e1a04000 	mov	r4, r0
40008d7c:	e590702c 	ldr	r7, [r0, #44]	; 0x2c
40008d80:	1a000007 	bne	40008da4 <d_template_args_1+0x3c>
40008d84:	e2833001 	add	r3, r3, #1
40008d88:	e580300c 	str	r3, [r0, #12]
40008d8c:	e3a03000 	mov	r3, #0
40008d90:	e3a0102f 	mov	r1, #47	; 0x2f
40008d94:	e1a02003 	mov	r2, r3
40008d98:	e28dd008 	add	sp, sp, #8
40008d9c:	e8bd41f0 	pop	{r4, r5, r6, r7, r8, lr}
40008da0:	eaffedf8 	b	40004588 <d_make_comp>
40008da4:	e3a06000 	mov	r6, #0
40008da8:	e3a0802f 	mov	r8, #47	; 0x2f
40008dac:	e28d5008 	add	r5, sp, #8
40008db0:	e5256004 	str	r6, [r5, #-4]!
40008db4:	e594200c 	ldr	r2, [r4, #12]
40008db8:	e5d23000 	ldrb	r3, [r2]
40008dbc:	e353004c 	cmp	r3, #76	; 0x4c
40008dc0:	0a00002a 	beq	40008e70 <d_template_args_1+0x108>
40008dc4:	8a000005 	bhi	40008de0 <d_template_args_1+0x78>
40008dc8:	e2433049 	sub	r3, r3, #73	; 0x49
40008dcc:	e3530001 	cmp	r3, #1
40008dd0:	9a000029 	bls	40008e7c <d_template_args_1+0x114>
40008dd4:	e1a00004 	mov	r0, r4
40008dd8:	ebfffaa9 	bl	40007884 <d_type>
40008ddc:	ea00000f 	b	40008e20 <d_template_args_1+0xb8>
40008de0:	e3530058 	cmp	r3, #88	; 0x58
40008de4:	1afffffa 	bne	40008dd4 <d_template_args_1+0x6c>
40008de8:	e2822001 	add	r2, r2, #1
40008dec:	e584200c 	str	r2, [r4, #12]
40008df0:	e1a00004 	mov	r0, r4
40008df4:	eb000198 	bl	4000945c <d_expression>
40008df8:	e594300c 	ldr	r3, [r4, #12]
40008dfc:	e5d32000 	ldrb	r2, [r3]
40008e00:	e3520045 	cmp	r2, #69	; 0x45
40008e04:	0a000003 	beq	40008e18 <d_template_args_1+0xb0>
40008e08:	e3a00000 	mov	r0, #0
40008e0c:	e28dd008 	add	sp, sp, #8
40008e10:	e8bd41f0 	pop	{r4, r5, r6, r7, r8, lr}
40008e14:	e12fff1e 	bx	lr
40008e18:	e2833001 	add	r3, r3, #1
40008e1c:	e584300c 	str	r3, [r4, #12]
40008e20:	e3500000 	cmp	r0, #0
40008e24:	0afffff7 	beq	40008e08 <d_template_args_1+0xa0>
40008e28:	e1a02000 	mov	r2, r0
40008e2c:	e1a03006 	mov	r3, r6
40008e30:	e1a01008 	mov	r1, r8
40008e34:	e1a00004 	mov	r0, r4
40008e38:	ebffedd2 	bl	40004588 <d_make_comp>
40008e3c:	e3500000 	cmp	r0, #0
40008e40:	e5850000 	str	r0, [r5]
40008e44:	0affffef 	beq	40008e08 <d_template_args_1+0xa0>
40008e48:	e594300c 	ldr	r3, [r4, #12]
40008e4c:	e5d32000 	ldrb	r2, [r3]
40008e50:	e3520045 	cmp	r2, #69	; 0x45
40008e54:	e2805008 	add	r5, r0, #8
40008e58:	1affffd5 	bne	40008db4 <d_template_args_1+0x4c>
40008e5c:	e2833001 	add	r3, r3, #1
40008e60:	e584300c 	str	r3, [r4, #12]
40008e64:	e584702c 	str	r7, [r4, #44]	; 0x2c
40008e68:	e59d0004 	ldr	r0, [sp, #4]
40008e6c:	eaffffe6 	b	40008e0c <d_template_args_1+0xa4>
40008e70:	e1a00004 	mov	r0, r4
40008e74:	ebffff70 	bl	40008c3c <d_expr_primary>
40008e78:	eaffffe8 	b	40008e20 <d_template_args_1+0xb8>
40008e7c:	e1a00004 	mov	r0, r4
40008e80:	eb000000 	bl	40008e88 <d_template_args>
40008e84:	eaffffe5 	b	40008e20 <d_template_args_1+0xb8>

Disassembly of section .text.d_template_args:

40008e88 <d_template_args>:
40008e88:	e590300c 	ldr	r3, [r0, #12]
40008e8c:	e5d32000 	ldrb	r2, [r3]
40008e90:	e2422049 	sub	r2, r2, #73	; 0x49
40008e94:	e3520001 	cmp	r2, #1
40008e98:	92833001 	addls	r3, r3, #1
40008e9c:	9580300c 	strls	r3, [r0, #12]
40008ea0:	9affffb0 	bls	40008d68 <d_template_args_1>
40008ea4:	e3a00000 	mov	r0, #0
40008ea8:	e12fff1e 	bx	lr

Disassembly of section .text.d_expression_1:

40008eac <d_expression_1>:
40008eac:	e590300c 	ldr	r3, [r0, #12]
40008eb0:	e5d32000 	ldrb	r2, [r3]
40008eb4:	e352004c 	cmp	r2, #76	; 0x4c
40008eb8:	0affff5f 	beq	40008c3c <d_expr_primary>
40008ebc:	e3520054 	cmp	r2, #84	; 0x54
40008ec0:	0affefba 	beq	40004db0 <d_template_param>
40008ec4:	e3520073 	cmp	r2, #115	; 0x73
40008ec8:	e92d41f0 	push	{r4, r5, r6, r7, r8, lr}
40008ecc:	e1a04000 	mov	r4, r0
40008ed0:	1a000024 	bne	40008f68 <d_expression_1+0xbc>
40008ed4:	e5d31001 	ldrb	r1, [r3, #1]
40008ed8:	e3510072 	cmp	r1, #114	; 0x72
40008edc:	1a000018 	bne	40008f44 <d_expression_1+0x98>
40008ee0:	e2833002 	add	r3, r3, #2
40008ee4:	e580300c 	str	r3, [r0, #12]
40008ee8:	ebfffa65 	bl	40007884 <d_type>
40008eec:	e1a05000 	mov	r5, r0
40008ef0:	e1a00004 	mov	r0, r4
40008ef4:	ebfffcd8 	bl	4000825c <d_unqualified_name>
40008ef8:	e594300c 	ldr	r3, [r4, #12]
40008efc:	e5d33000 	ldrb	r3, [r3]
40008f00:	e3530049 	cmp	r3, #73	; 0x49
40008f04:	e1a06000 	mov	r6, r0
40008f08:	11a03000 	movne	r3, r0
40008f0c:	1a000007 	bne	40008f30 <d_expression_1+0x84>
40008f10:	e1a00004 	mov	r0, r4
40008f14:	ebffffdb 	bl	40008e88 <d_template_args>
40008f18:	e1a02006 	mov	r2, r6
40008f1c:	e1a03000 	mov	r3, r0
40008f20:	e3a01004 	mov	r1, #4
40008f24:	e1a00004 	mov	r0, r4
40008f28:	ebffed96 	bl	40004588 <d_make_comp>
40008f2c:	e1a03000 	mov	r3, r0
40008f30:	e1a02005 	mov	r2, r5
40008f34:	e3a01001 	mov	r1, #1
40008f38:	e1a00004 	mov	r0, r4
40008f3c:	e8bd41f0 	pop	{r4, r5, r6, r7, r8, lr}
40008f40:	eaffed90 	b	40004588 <d_make_comp>
40008f44:	e3510070 	cmp	r1, #112	; 0x70
40008f48:	1a000023 	bne	40008fdc <d_expression_1+0x130>
40008f4c:	e2833002 	add	r3, r3, #2
40008f50:	e580300c 	str	r3, [r0, #12]
40008f54:	ebffffd4 	bl	40008eac <d_expression_1>
40008f58:	e3a03000 	mov	r3, #0
40008f5c:	e1a02000 	mov	r2, r0
40008f60:	e3a0104a 	mov	r1, #74	; 0x4a
40008f64:	eafffff3 	b	40008f38 <d_expression_1+0x8c>
40008f68:	e3520066 	cmp	r2, #102	; 0x66
40008f6c:	1a00001a 	bne	40008fdc <d_expression_1+0x130>
40008f70:	e5d31001 	ldrb	r1, [r3, #1]
40008f74:	e3510070 	cmp	r1, #112	; 0x70
40008f78:	1a000017 	bne	40008fdc <d_expression_1+0x130>
40008f7c:	e2832002 	add	r2, r3, #2
40008f80:	e580200c 	str	r2, [r0, #12]
40008f84:	e5d32002 	ldrb	r2, [r3, #2]
40008f88:	e3520054 	cmp	r2, #84	; 0x54
40008f8c:	02833003 	addeq	r3, r3, #3
40008f90:	0580300c 	streq	r3, [r0, #12]
40008f94:	03a06000 	moveq	r6, #0
40008f98:	0a000006 	beq	40008fb8 <d_expression_1+0x10c>
40008f9c:	ebffef6b 	bl	40004d50 <d_compact_number>
40008fa0:	e3c03102 	bic	r3, r0, #-2147483648	; 0x80000000
40008fa4:	e3730106 	cmn	r3, #-2147483647	; 0x80000001
40008fa8:	12806001 	addne	r6, r0, #1
40008fac:	1a000001 	bne	40008fb8 <d_expression_1+0x10c>
40008fb0:	e3a05000 	mov	r5, #0
40008fb4:	ea000005 	b	40008fd0 <d_expression_1+0x124>
40008fb8:	e1a00004 	mov	r0, r4
40008fbc:	ebffed66 	bl	4000455c <d_make_empty>
40008fc0:	e2505000 	subs	r5, r0, #0
40008fc4:	13a03006 	movne	r3, #6
40008fc8:	15856004 	strne	r6, [r5, #4]
40008fcc:	15c53000 	strbne	r3, [r5]
40008fd0:	e1a00005 	mov	r0, r5
40008fd4:	e8bd41f0 	pop	{r4, r5, r6, r7, r8, lr}
40008fd8:	e12fff1e 	bx	lr
40008fdc:	e2421030 	sub	r1, r2, #48	; 0x30
40008fe0:	e3510009 	cmp	r1, #9
40008fe4:	9a000006 	bls	40009004 <d_expression_1+0x158>
40008fe8:	e352006f 	cmp	r2, #111	; 0x6f
40008fec:	1a000012 	bne	4000903c <d_expression_1+0x190>
40008ff0:	e5d31001 	ldrb	r1, [r3, #1]
40008ff4:	e351006e 	cmp	r1, #110	; 0x6e
40008ff8:	1a00000f 	bne	4000903c <d_expression_1+0x190>
40008ffc:	e2833002 	add	r3, r3, #2
40009000:	e584300c 	str	r3, [r4, #12]
40009004:	e1a00004 	mov	r0, r4
40009008:	ebfffc93 	bl	4000825c <d_unqualified_name>
4000900c:	e2505000 	subs	r5, r0, #0
40009010:	0affffe6 	beq	40008fb0 <d_expression_1+0x104>
40009014:	e594300c 	ldr	r3, [r4, #12]
40009018:	e5d33000 	ldrb	r3, [r3]
4000901c:	e3530049 	cmp	r3, #73	; 0x49
40009020:	1affffea 	bne	40008fd0 <d_expression_1+0x124>
40009024:	e1a00004 	mov	r0, r4
40009028:	ebffff96 	bl	40008e88 <d_template_args>
4000902c:	e1a02005 	mov	r2, r5
40009030:	e1a03000 	mov	r3, r0
40009034:	e3a01004 	mov	r1, #4
40009038:	eaffffbe 	b	40008f38 <d_expression_1+0x8c>
4000903c:	e3520074 	cmp	r2, #116	; 0x74
40009040:	13520069 	cmpne	r2, #105	; 0x69
40009044:	1a000015 	bne	400090a0 <d_expression_1+0x1f4>
40009048:	e5d33001 	ldrb	r3, [r3, #1]
4000904c:	e353006c 	cmp	r3, #108	; 0x6c
40009050:	1a000012 	bne	400090a0 <d_expression_1+0x1f4>
40009054:	e3520074 	cmp	r2, #116	; 0x74
40009058:	13a05000 	movne	r5, #0
4000905c:	1a000002 	bne	4000906c <d_expression_1+0x1c0>
40009060:	e1a00004 	mov	r0, r4
40009064:	ebfffa06 	bl	40007884 <d_type>
40009068:	e1a05000 	mov	r5, r0
4000906c:	e594300c 	ldr	r3, [r4, #12]
40009070:	e5d32001 	ldrb	r2, [r3, #1]
40009074:	e3520000 	cmp	r2, #0
40009078:	0affffcc 	beq	40008fb0 <d_expression_1+0x104>
4000907c:	e2833002 	add	r3, r3, #2
40009080:	e584300c 	str	r3, [r4, #12]
40009084:	e3a01045 	mov	r1, #69	; 0x45
40009088:	e1a00004 	mov	r0, r4
4000908c:	eb0000fb 	bl	40009480 <d_exprlist>
40009090:	e1a02005 	mov	r2, r5
40009094:	e1a03000 	mov	r3, r0
40009098:	e3a01030 	mov	r1, #48	; 0x30
4000909c:	eaffffa5 	b	40008f38 <d_expression_1+0x8c>
400090a0:	e1a00004 	mov	r0, r4
400090a4:	ebfffbdb 	bl	40008018 <d_operator_name>
400090a8:	e2506000 	subs	r6, r0, #0
400090ac:	0affffbf 	beq	40008fb0 <d_expression_1+0x104>
400090b0:	e5d63000 	ldrb	r3, [r6]
400090b4:	e3530031 	cmp	r3, #49	; 0x31
400090b8:	1a000011 	bne	40009104 <d_expression_1+0x258>
400090bc:	e5963004 	ldr	r3, [r6, #4]
400090c0:	e5935000 	ldr	r5, [r3]
400090c4:	e5933008 	ldr	r3, [r3, #8]
400090c8:	e2432002 	sub	r2, r3, #2
400090cc:	e5943030 	ldr	r3, [r4, #48]	; 0x30
400090d0:	e0833002 	add	r3, r3, r2
400090d4:	e5843030 	str	r3, [r4, #48]	; 0x30
400090d8:	e59f1364 	ldr	r1, [pc, #868]	; 40009444 <d_expression_1+0x598>
400090dc:	e1a00005 	mov	r0, r5
400090e0:	ebffe16e 	bl	400016a0 <strcmp>
400090e4:	e3500000 	cmp	r0, #0
400090e8:	1a000013 	bne	4000913c <d_expression_1+0x290>
400090ec:	e1a00004 	mov	r0, r4
400090f0:	ebfff9e3 	bl	40007884 <d_type>
400090f4:	e1a03000 	mov	r3, r0
400090f8:	e1a02006 	mov	r2, r6
400090fc:	e3a01036 	mov	r1, #54	; 0x36
40009100:	eaffff8c 	b	40008f38 <d_expression_1+0x8c>
40009104:	e3530032 	cmp	r3, #50	; 0x32
40009108:	0a000014 	beq	40009160 <d_expression_1+0x2b4>
4000910c:	e3530033 	cmp	r3, #51	; 0x33
40009110:	1affffa6 	bne	40008fb0 <d_expression_1+0x104>
40009114:	e594300c 	ldr	r3, [r4, #12]
40009118:	e5d32000 	ldrb	r2, [r3]
4000911c:	e352005f 	cmp	r2, #95	; 0x5f
40009120:	1a00001c 	bne	40009198 <d_expression_1+0x2ec>
40009124:	e2833001 	add	r3, r3, #1
40009128:	e584300c 	str	r3, [r4, #12]
4000912c:	e3a01045 	mov	r1, #69	; 0x45
40009130:	e1a00004 	mov	r0, r4
40009134:	eb0000d1 	bl	40009480 <d_exprlist>
40009138:	eaffffed 	b	400090f4 <d_expression_1+0x248>
4000913c:	e5963004 	ldr	r3, [r6, #4]
40009140:	e593700c 	ldr	r7, [r3, #12]
40009144:	e3570003 	cmp	r7, #3
40009148:	979ff107 	ldrls	pc, [pc, r7, lsl #2]
4000914c:	eaffff97 	b	40008fb0 <d_expression_1+0x104>
40009150:	40009180 	.word	0x40009180
40009154:	40009190 	.word	0x40009190
40009158:	40009218 	.word	0x40009218
4000915c:	40009314 	.word	0x40009314
40009160:	e5963004 	ldr	r3, [r6, #4]
40009164:	e3530003 	cmp	r3, #3
40009168:	979ff103 	ldrls	pc, [pc, r3, lsl #2]
4000916c:	eaffff8f 	b	40008fb0 <d_expression_1+0x104>
40009170:	40009180 	.word	0x40009180
40009174:	40009198 	.word	0x40009198
40009178:	40008fb0 	.word	0x40008fb0
4000917c:	40008fb0 	.word	0x40008fb0
40009180:	e3a03000 	mov	r3, #0
40009184:	e1a02006 	mov	r2, r6
40009188:	e3a01035 	mov	r1, #53	; 0x35
4000918c:	eaffff69 	b	40008f38 <d_expression_1+0x8c>
40009190:	e3550000 	cmp	r5, #0
40009194:	1a000003 	bne	400091a8 <d_expression_1+0x2fc>
40009198:	e3a07000 	mov	r7, #0
4000919c:	e1a00004 	mov	r0, r4
400091a0:	ebffff41 	bl	40008eac <d_expression_1>
400091a4:	ea000013 	b	400091f8 <d_expression_1+0x34c>
400091a8:	e5d53000 	ldrb	r3, [r5]
400091ac:	e353006d 	cmp	r3, #109	; 0x6d
400091b0:	13530070 	cmpne	r3, #112	; 0x70
400091b4:	1a0000a0 	bne	4000943c <d_expression_1+0x590>
400091b8:	e5d52001 	ldrb	r2, [r5, #1]
400091bc:	e1520003 	cmp	r2, r3
400091c0:	1a00009d 	bne	4000943c <d_expression_1+0x590>
400091c4:	e594300c 	ldr	r3, [r4, #12]
400091c8:	e5d32000 	ldrb	r2, [r3]
400091cc:	e352005f 	cmp	r2, #95	; 0x5f
400091d0:	02833001 	addeq	r3, r3, #1
400091d4:	0584300c 	streq	r3, [r4, #12]
400091d8:	0a000097 	beq	4000943c <d_expression_1+0x590>
400091dc:	e59f1264 	ldr	r1, [pc, #612]	; 40009448 <d_expression_1+0x59c>
400091e0:	e1a00005 	mov	r0, r5
400091e4:	ebffe12d 	bl	400016a0 <strcmp>
400091e8:	e3500000 	cmp	r0, #0
400091ec:	1affffea 	bne	4000919c <d_expression_1+0x2f0>
400091f0:	e1a00004 	mov	r0, r4
400091f4:	ebfffedb 	bl	40008d68 <d_template_args_1>
400091f8:	e3570000 	cmp	r7, #0
400091fc:	0affffbc 	beq	400090f4 <d_expression_1+0x248>
40009200:	e1a03000 	mov	r3, r0
40009204:	e1a02000 	mov	r2, r0
40009208:	e3a01038 	mov	r1, #56	; 0x38
4000920c:	e1a00004 	mov	r0, r4
40009210:	ebffecdc 	bl	40004588 <d_make_comp>
40009214:	eaffffb6 	b	400090f4 <d_expression_1+0x248>
40009218:	e3550000 	cmp	r5, #0
4000921c:	0affff63 	beq	40008fb0 <d_expression_1+0x104>
40009220:	e5960004 	ldr	r0, [r6, #4]
40009224:	ebffef80 	bl	4000502c <op_is_new_cast.isra.2>
40009228:	e3500000 	cmp	r0, #0
4000922c:	0a000014 	beq	40009284 <d_expression_1+0x3d8>
40009230:	e1a00004 	mov	r0, r4
40009234:	ebfff992 	bl	40007884 <d_type>
40009238:	e1a07000 	mov	r7, r0
4000923c:	e59f1208 	ldr	r1, [pc, #520]	; 4000944c <d_expression_1+0x5a0>
40009240:	e1a00005 	mov	r0, r5
40009244:	ebffe115 	bl	400016a0 <strcmp>
40009248:	e3500000 	cmp	r0, #0
4000924c:	1a000014 	bne	400092a4 <d_expression_1+0x3f8>
40009250:	e3a01045 	mov	r1, #69	; 0x45
40009254:	e1a00004 	mov	r0, r4
40009258:	eb000088 	bl	40009480 <d_exprlist>
4000925c:	e1a05000 	mov	r5, r0
40009260:	e1a03005 	mov	r3, r5
40009264:	e1a02007 	mov	r2, r7
40009268:	e3a01038 	mov	r1, #56	; 0x38
4000926c:	e1a00004 	mov	r0, r4
40009270:	ebffecc4 	bl	40004588 <d_make_comp>
40009274:	e1a02006 	mov	r2, r6
40009278:	e1a03000 	mov	r3, r0
4000927c:	e3a01037 	mov	r1, #55	; 0x37
40009280:	eaffff2c 	b	40008f38 <d_expression_1+0x8c>
40009284:	e5d53000 	ldrb	r3, [r5]
40009288:	e3530066 	cmp	r3, #102	; 0x66
4000928c:	e1a00004 	mov	r0, r4
40009290:	1a000001 	bne	4000929c <d_expression_1+0x3f0>
40009294:	ebfffb5f 	bl	40008018 <d_operator_name>
40009298:	eaffffe6 	b	40009238 <d_expression_1+0x38c>
4000929c:	ebffff02 	bl	40008eac <d_expression_1>
400092a0:	eaffffe4 	b	40009238 <d_expression_1+0x38c>
400092a4:	e59f11a4 	ldr	r1, [pc, #420]	; 40009450 <d_expression_1+0x5a4>
400092a8:	e1a00005 	mov	r0, r5
400092ac:	ebffe0fb 	bl	400016a0 <strcmp>
400092b0:	e3500000 	cmp	r0, #0
400092b4:	0a000004 	beq	400092cc <d_expression_1+0x420>
400092b8:	e59f1194 	ldr	r1, [pc, #404]	; 40009454 <d_expression_1+0x5a8>
400092bc:	e1a00005 	mov	r0, r5
400092c0:	ebffe0f6 	bl	400016a0 <strcmp>
400092c4:	e3500000 	cmp	r0, #0
400092c8:	1a00000e 	bne	40009308 <d_expression_1+0x45c>
400092cc:	e1a00004 	mov	r0, r4
400092d0:	ebfffbe1 	bl	4000825c <d_unqualified_name>
400092d4:	e594300c 	ldr	r3, [r4, #12]
400092d8:	e5d33000 	ldrb	r3, [r3]
400092dc:	e3530049 	cmp	r3, #73	; 0x49
400092e0:	e1a05000 	mov	r5, r0
400092e4:	1affffdd 	bne	40009260 <d_expression_1+0x3b4>
400092e8:	e1a00004 	mov	r0, r4
400092ec:	ebfffee5 	bl	40008e88 <d_template_args>
400092f0:	e1a02005 	mov	r2, r5
400092f4:	e1a03000 	mov	r3, r0
400092f8:	e3a01004 	mov	r1, #4
400092fc:	e1a00004 	mov	r0, r4
40009300:	ebffeca0 	bl	40004588 <d_make_comp>
40009304:	eaffffd4 	b	4000925c <d_expression_1+0x3b0>
40009308:	e1a00004 	mov	r0, r4
4000930c:	ebfffee6 	bl	40008eac <d_expression_1>
40009310:	eaffffd1 	b	4000925c <d_expression_1+0x3b0>
40009314:	e3550000 	cmp	r5, #0
40009318:	0affff24 	beq	40008fb0 <d_expression_1+0x104>
4000931c:	e59f1134 	ldr	r1, [pc, #308]	; 40009458 <d_expression_1+0x5ac>
40009320:	e1a00005 	mov	r0, r5
40009324:	ebffe0dd 	bl	400016a0 <strcmp>
40009328:	e3500000 	cmp	r0, #0
4000932c:	1a000008 	bne	40009354 <d_expression_1+0x4a8>
40009330:	e1a00004 	mov	r0, r4
40009334:	ebfffedc 	bl	40008eac <d_expression_1>
40009338:	e1a07000 	mov	r7, r0
4000933c:	e1a00004 	mov	r0, r4
40009340:	ebfffed9 	bl	40008eac <d_expression_1>
40009344:	e1a08000 	mov	r8, r0
40009348:	e1a00004 	mov	r0, r4
4000934c:	ebfffed6 	bl	40008eac <d_expression_1>
40009350:	ea000025 	b	400093ec <d_expression_1+0x540>
40009354:	e5d53000 	ldrb	r3, [r5]
40009358:	e3530066 	cmp	r3, #102	; 0x66
4000935c:	1a000002 	bne	4000936c <d_expression_1+0x4c0>
40009360:	e1a00004 	mov	r0, r4
40009364:	ebfffb2b 	bl	40008018 <d_operator_name>
40009368:	eafffff2 	b	40009338 <d_expression_1+0x48c>
4000936c:	e353006e 	cmp	r3, #110	; 0x6e
40009370:	1affff0e 	bne	40008fb0 <d_expression_1+0x104>
40009374:	e5d50001 	ldrb	r0, [r5, #1]
40009378:	e3500077 	cmp	r0, #119	; 0x77
4000937c:	13500061 	cmpne	r0, #97	; 0x61
40009380:	13a05001 	movne	r5, #1
40009384:	03a05000 	moveq	r5, #0
40009388:	1affff08 	bne	40008fb0 <d_expression_1+0x104>
4000938c:	e3a0105f 	mov	r1, #95	; 0x5f
40009390:	e1a00004 	mov	r0, r4
40009394:	eb000039 	bl	40009480 <d_exprlist>
40009398:	e1a07000 	mov	r7, r0
4000939c:	e1a00004 	mov	r0, r4
400093a0:	ebfff937 	bl	40007884 <d_type>
400093a4:	e594300c 	ldr	r3, [r4, #12]
400093a8:	e5d32000 	ldrb	r2, [r3]
400093ac:	e3520045 	cmp	r2, #69	; 0x45
400093b0:	02833001 	addeq	r3, r3, #1
400093b4:	e1a08000 	mov	r8, r0
400093b8:	0584300c 	streq	r3, [r4, #12]
400093bc:	01a00005 	moveq	r0, r5
400093c0:	0a000009 	beq	400093ec <d_expression_1+0x540>
400093c4:	e3520070 	cmp	r2, #112	; 0x70
400093c8:	1a000015 	bne	40009424 <d_expression_1+0x578>
400093cc:	e5d32001 	ldrb	r2, [r3, #1]
400093d0:	e3520069 	cmp	r2, #105	; 0x69
400093d4:	1afffef5 	bne	40008fb0 <d_expression_1+0x104>
400093d8:	e2833002 	add	r3, r3, #2
400093dc:	e584300c 	str	r3, [r4, #12]
400093e0:	e3a01045 	mov	r1, #69	; 0x45
400093e4:	e1a00004 	mov	r0, r4
400093e8:	eb000024 	bl	40009480 <d_exprlist>
400093ec:	e1a03000 	mov	r3, r0
400093f0:	e1a02008 	mov	r2, r8
400093f4:	e3a0103b 	mov	r1, #59	; 0x3b
400093f8:	e1a00004 	mov	r0, r4
400093fc:	ebffec61 	bl	40004588 <d_make_comp>
40009400:	e1a02007 	mov	r2, r7
40009404:	e1a03000 	mov	r3, r0
40009408:	e3a0103a 	mov	r1, #58	; 0x3a
4000940c:	e1a00004 	mov	r0, r4
40009410:	ebffec5c 	bl	40004588 <d_make_comp>
40009414:	e1a02006 	mov	r2, r6
40009418:	e1a03000 	mov	r3, r0
4000941c:	e3a01039 	mov	r1, #57	; 0x39
40009420:	eafffec4 	b	40008f38 <d_expression_1+0x8c>
40009424:	e3520069 	cmp	r2, #105	; 0x69
40009428:	1afffee0 	bne	40008fb0 <d_expression_1+0x104>
4000942c:	e5d33001 	ldrb	r3, [r3, #1]
40009430:	e353006c 	cmp	r3, #108	; 0x6c
40009434:	0affffc3 	beq	40009348 <d_expression_1+0x49c>
40009438:	eafffedc 	b	40008fb0 <d_expression_1+0x104>
4000943c:	e3a07000 	mov	r7, #0
40009440:	eaffff65 	b	400091dc <d_expression_1+0x330>
40009444:	400191a6 	.word	0x400191a6
40009448:	400191a0 	.word	0x400191a0
4000944c:	400191ac 	.word	0x400191ac
40009450:	40019003 	.word	0x40019003
40009454:	40019006 	.word	0x40019006
40009458:	400191b2 	.word	0x400191b2

Disassembly of section .text.d_expression:

4000945c <d_expression>:
4000945c:	e3a03001 	mov	r3, #1
40009460:	e92d4070 	push	{r4, r5, r6, lr}
40009464:	e1a04000 	mov	r4, r0
40009468:	e5905034 	ldr	r5, [r0, #52]	; 0x34
4000946c:	e5803034 	str	r3, [r0, #52]	; 0x34
40009470:	ebfffe8d 	bl	40008eac <d_expression_1>
40009474:	e5845034 	str	r5, [r4, #52]	; 0x34
40009478:	e8bd4070 	pop	{r4, r5, r6, lr}
4000947c:	e12fff1e 	bx	lr

Disassembly of section .text.d_exprlist:

40009480 <d_exprlist>:
40009480:	e3a03000 	mov	r3, #0
40009484:	e92d41f3 	push	{r0, r1, r4, r5, r6, r7, r8, lr}
40009488:	e590200c 	ldr	r2, [r0, #12]
4000948c:	e5d2c000 	ldrb	ip, [r2]
40009490:	e15c0001 	cmp	ip, r1
40009494:	e1a04000 	mov	r4, r0
40009498:	e58d3004 	str	r3, [sp, #4]
4000949c:	1a000006 	bne	400094bc <d_exprlist+0x3c>
400094a0:	e2822001 	add	r2, r2, #1
400094a4:	e580200c 	str	r2, [r0, #12]
400094a8:	e3a0102e 	mov	r1, #46	; 0x2e
400094ac:	e1a02003 	mov	r2, r3
400094b0:	e28dd008 	add	sp, sp, #8
400094b4:	e8bd41f0 	pop	{r4, r5, r6, r7, r8, lr}
400094b8:	eaffec32 	b	40004588 <d_make_comp>
400094bc:	e1a07001 	mov	r7, r1
400094c0:	e1a05003 	mov	r5, r3
400094c4:	e3a0802e 	mov	r8, #46	; 0x2e
400094c8:	e28d6004 	add	r6, sp, #4
400094cc:	e1a00004 	mov	r0, r4
400094d0:	ebffffe1 	bl	4000945c <d_expression>
400094d4:	e2502000 	subs	r2, r0, #0
400094d8:	1a000003 	bne	400094ec <d_exprlist+0x6c>
400094dc:	e3a00000 	mov	r0, #0
400094e0:	e28dd008 	add	sp, sp, #8
400094e4:	e8bd41f0 	pop	{r4, r5, r6, r7, r8, lr}
400094e8:	e12fff1e 	bx	lr
400094ec:	e1a03005 	mov	r3, r5
400094f0:	e1a01008 	mov	r1, r8
400094f4:	e1a00004 	mov	r0, r4
400094f8:	ebffec22 	bl	40004588 <d_make_comp>
400094fc:	e3500000 	cmp	r0, #0
40009500:	e5860000 	str	r0, [r6]
40009504:	0afffff4 	beq	400094dc <d_exprlist+0x5c>
40009508:	e594200c 	ldr	r2, [r4, #12]
4000950c:	e5d23000 	ldrb	r3, [r2]
40009510:	e1530007 	cmp	r3, r7
40009514:	e2806008 	add	r6, r0, #8
40009518:	1affffeb 	bne	400094cc <d_exprlist+0x4c>
4000951c:	e2822001 	add	r2, r2, #1
40009520:	e584200c 	str	r2, [r4, #12]
40009524:	e59d0004 	ldr	r0, [sp, #4]
40009528:	eaffffec 	b	400094e0 <d_exprlist+0x60>

Disassembly of section .text.d_demangle_callback.constprop.15:

4000952c <d_demangle_callback.constprop.15>:
4000952c:	e92d49f0 	push	{r4, r5, r6, r7, r8, fp, lr}
40009530:	e28db018 	add	fp, sp, #24
40009534:	e24ddf63 	sub	sp, sp, #396	; 0x18c
40009538:	e5d08000 	ldrb	r8, [r0]
4000953c:	e358005f 	cmp	r8, #95	; 0x5f
40009540:	e1a04000 	mov	r4, r0
40009544:	e1a07001 	mov	r7, r1
40009548:	e1a06002 	mov	r6, r2
4000954c:	1a000003 	bne	40009560 <d_demangle_callback.constprop.15+0x34>
40009550:	e5d03001 	ldrb	r3, [r0, #1]
40009554:	e353005a 	cmp	r3, #90	; 0x5a
40009558:	03a05001 	moveq	r5, #1
4000955c:	0a00001b 	beq	400095d0 <d_demangle_callback.constprop.15+0xa4>
40009560:	e3a02008 	mov	r2, #8
40009564:	e59f137c 	ldr	r1, [pc, #892]	; 400098e8 <d_demangle_callback.constprop.15+0x3bc>
40009568:	e1a00004 	mov	r0, r4
4000956c:	eb000e50 	bl	4000ceb4 <strncmp>
40009570:	e2505000 	subs	r5, r0, #0
40009574:	1a000074 	bne	4000974c <d_demangle_callback.constprop.15+0x220>
40009578:	e5d43008 	ldrb	r3, [r4, #8]
4000957c:	e353005f 	cmp	r3, #95	; 0x5f
40009580:	1353002e 	cmpne	r3, #46	; 0x2e
40009584:	03a01001 	moveq	r1, #1
40009588:	13a01000 	movne	r1, #0
4000958c:	e3530024 	cmp	r3, #36	; 0x24
40009590:	03811001 	orreq	r1, r1, #1
40009594:	e3510000 	cmp	r1, #0
40009598:	0a00006b 	beq	4000974c <d_demangle_callback.constprop.15+0x220>
4000959c:	e5d43009 	ldrb	r3, [r4, #9]
400095a0:	e3530049 	cmp	r3, #73	; 0x49
400095a4:	13530044 	cmpne	r3, #68	; 0x44
400095a8:	13a00000 	movne	r0, #0
400095ac:	03a00001 	moveq	r0, #1
400095b0:	11a05000 	movne	r5, r0
400095b4:	1a000005 	bne	400095d0 <d_demangle_callback.constprop.15+0xa4>
400095b8:	e5d4200a 	ldrb	r2, [r4, #10]
400095bc:	e352005f 	cmp	r2, #95	; 0x5f
400095c0:	1a000002 	bne	400095d0 <d_demangle_callback.constprop.15+0xa4>
400095c4:	e3530049 	cmp	r3, #73	; 0x49
400095c8:	03a05002 	moveq	r5, #2
400095cc:	13a05003 	movne	r5, #3
400095d0:	e1a00004 	mov	r0, r4
400095d4:	eb000e1e 	bl	4000ce54 <strlen>
400095d8:	e3a0100c 	mov	r1, #12
400095dc:	e0843000 	add	r3, r4, r0
400095e0:	e50b319c 	str	r3, [fp, #-412]	; 0xfffffe64
400095e4:	e3a03011 	mov	r3, #17
400095e8:	e1a02080 	lsl	r2, r0, #1
400095ec:	e50b2188 	str	r2, [fp, #-392]	; 0xfffffe78
400095f0:	e0020291 	mul	r2, r1, r2
400095f4:	e2822008 	add	r2, r2, #8
400095f8:	e04dd002 	sub	sp, sp, r2
400095fc:	e1a0200d 	mov	r2, sp
40009600:	e50b3198 	str	r3, [fp, #-408]	; 0xfffffe68
40009604:	e3a03000 	mov	r3, #0
40009608:	e50b017c 	str	r0, [fp, #-380]	; 0xfffffe84
4000960c:	e1a00100 	lsl	r0, r0, #2
40009610:	e280000a 	add	r0, r0, #10
40009614:	e3c00007 	bic	r0, r0, #7
40009618:	e04dd000 	sub	sp, sp, r0
4000961c:	e3550001 	cmp	r5, #1
40009620:	e50b41a0 	str	r4, [fp, #-416]	; 0xfffffe60
40009624:	e50b4194 	str	r4, [fp, #-404]	; 0xfffffe6c
40009628:	e50b318c 	str	r3, [fp, #-396]	; 0xfffffe74
4000962c:	e50b3180 	str	r3, [fp, #-384]	; 0xfffffe80
40009630:	e50b3178 	str	r3, [fp, #-376]	; 0xfffffe88
40009634:	e50b3174 	str	r3, [fp, #-372]	; 0xfffffe8c
40009638:	e50b3170 	str	r3, [fp, #-368]	; 0xfffffe90
4000963c:	e50b316c 	str	r3, [fp, #-364]	; 0xfffffe94
40009640:	e50b3168 	str	r3, [fp, #-360]	; 0xfffffe98
40009644:	e50b2190 	str	r2, [fp, #-400]	; 0xfffffe70
40009648:	e50bd184 	str	sp, [fp, #-388]	; 0xfffffe7c
4000964c:	0a000040 	beq	40009754 <d_demangle_callback.constprop.15+0x228>
40009650:	2a000081 	bcs	4000985c <d_demangle_callback.constprop.15+0x330>
40009654:	e24b0e1a 	sub	r0, fp, #416	; 0x1a0
40009658:	ebfff889 	bl	40007884 <d_type>
4000965c:	e1a05000 	mov	r5, r0
40009660:	e51b3194 	ldr	r3, [fp, #-404]	; 0xfffffe6c
40009664:	e5d30000 	ldrb	r0, [r3]
40009668:	e2700001 	rsbs	r0, r0, #1
4000966c:	33a00000 	movcc	r0, #0
40009670:	e3550000 	cmp	r5, #0
40009674:	03a00000 	moveq	r0, #0
40009678:	e3500000 	cmp	r0, #0
4000967c:	e3a04000 	mov	r4, #0
40009680:	0a00002e 	beq	40009740 <d_demangle_callback.constprop.15+0x214>
40009684:	e24b3f59 	sub	r3, fp, #356	; 0x164
40009688:	e2831f4d 	add	r1, r3, #308	; 0x134
4000968c:	e2830d05 	add	r0, r3, #320	; 0x140
40009690:	e1a02005 	mov	r2, r5
40009694:	e50b4064 	str	r4, [fp, #-100]	; 0xffffff9c
40009698:	e54b4060 	strb	r4, [fp, #-96]	; 0xffffffa0
4000969c:	e50b4054 	str	r4, [fp, #-84]	; 0xffffffac
400096a0:	e50b4050 	str	r4, [fp, #-80]	; 0xffffffb0
400096a4:	e50b4044 	str	r4, [fp, #-68]	; 0xffffffbc
400096a8:	e50b4040 	str	r4, [fp, #-64]	; 0xffffffc0
400096ac:	e50b404c 	str	r4, [fp, #-76]	; 0xffffffb4
400096b0:	e50b4048 	str	r4, [fp, #-72]	; 0xffffffb8
400096b4:	e50b403c 	str	r4, [fp, #-60]	; 0xffffffc4
400096b8:	e50b4038 	str	r4, [fp, #-56]	; 0xffffffc8
400096bc:	e50b4034 	str	r4, [fp, #-52]	; 0xffffffcc
400096c0:	e50b4030 	str	r4, [fp, #-48]	; 0xffffffd0
400096c4:	e50b402c 	str	r4, [fp, #-44]	; 0xffffffd4
400096c8:	e50b4028 	str	r4, [fp, #-40]	; 0xffffffd8
400096cc:	e50b4024 	str	r4, [fp, #-36]	; 0xffffffdc
400096d0:	e50b705c 	str	r7, [fp, #-92]	; 0xffffffa4
400096d4:	e50b6058 	str	r6, [fp, #-88]	; 0xffffffa8
400096d8:	ebffeca4 	bl	40004970 <d_count_templates_scopes>
400096dc:	e51b2030 	ldr	r2, [fp, #-48]	; 0xffffffd0
400096e0:	e51b3024 	ldr	r3, [fp, #-36]	; 0xffffffdc
400096e4:	e0030392 	mul	r3, r2, r3
400096e8:	e1a02182 	lsl	r2, r2, #3
400096ec:	e2822008 	add	r2, r2, #8
400096f0:	e50b4020 	str	r4, [fp, #-32]	; 0xffffffe0
400096f4:	e1a0400d 	mov	r4, sp
400096f8:	e04dd002 	sub	sp, sp, r2
400096fc:	e1a0200d 	mov	r2, sp
40009700:	e50b3024 	str	r3, [fp, #-36]	; 0xffffffdc
40009704:	e1a03183 	lsl	r3, r3, #3
40009708:	e2833008 	add	r3, r3, #8
4000970c:	e04dd003 	sub	sp, sp, r3
40009710:	e50b2038 	str	r2, [fp, #-56]	; 0xffffffc8
40009714:	e3a01011 	mov	r1, #17
40009718:	e1a02005 	mov	r2, r5
4000971c:	e24b0f59 	sub	r0, fp, #356	; 0x164
40009720:	e50bd02c 	str	sp, [fp, #-44]	; 0xffffffd4
40009724:	ebffef20 	bl	400053ac <d_print_comp>
40009728:	e24b0f59 	sub	r0, fp, #356	; 0x164
4000972c:	e1a0d004 	mov	sp, r4
40009730:	ebffecfa 	bl	40004b20 <d_print_flush>
40009734:	e51b004c 	ldr	r0, [fp, #-76]	; 0xffffffb4
40009738:	e2700001 	rsbs	r0, r0, #1
4000973c:	33a00000 	movcc	r0, #0
40009740:	e24bd018 	sub	sp, fp, #24
40009744:	e8bd49f0 	pop	{r4, r5, r6, r7, r8, fp, lr}
40009748:	e12fff1e 	bx	lr
4000974c:	e3a05000 	mov	r5, #0
40009750:	eaffff9e 	b	400095d0 <d_demangle_callback.constprop.15+0xa4>
40009754:	e358005f 	cmp	r8, #95	; 0x5f
40009758:	0a000001 	beq	40009764 <d_demangle_callback.constprop.15+0x238>
4000975c:	e3a05000 	mov	r5, #0
40009760:	eaffffbe 	b	40009660 <d_demangle_callback.constprop.15+0x134>
40009764:	e2843001 	add	r3, r4, #1
40009768:	e50b3194 	str	r3, [fp, #-404]	; 0xfffffe6c
4000976c:	e5d43001 	ldrb	r3, [r4, #1]
40009770:	e353005a 	cmp	r3, #90	; 0x5a
40009774:	1afffff8 	bne	4000975c <d_demangle_callback.constprop.15+0x230>
40009778:	e2844002 	add	r4, r4, #2
4000977c:	e1a01005 	mov	r1, r5
40009780:	e24b0e1a 	sub	r0, fp, #416	; 0x1a0
40009784:	e50b4194 	str	r4, [fp, #-404]	; 0xfffffe6c
40009788:	ebfffbb5 	bl	40008664 <d_encoding>
4000978c:	e51b3198 	ldr	r3, [fp, #-408]	; 0xfffffe68
40009790:	e3130001 	tst	r3, #1
40009794:	e1a05000 	mov	r5, r0
40009798:	13a0404d 	movne	r4, #77	; 0x4d
4000979c:	0affffaf 	beq	40009660 <d_demangle_callback.constprop.15+0x134>
400097a0:	e51b1194 	ldr	r1, [fp, #-404]	; 0xfffffe6c
400097a4:	e5d13000 	ldrb	r3, [r1]
400097a8:	e353002e 	cmp	r3, #46	; 0x2e
400097ac:	1affffab 	bne	40009660 <d_demangle_callback.constprop.15+0x134>
400097b0:	e5d13001 	ldrb	r3, [r1, #1]
400097b4:	e2432061 	sub	r2, r3, #97	; 0x61
400097b8:	e353005f 	cmp	r3, #95	; 0x5f
400097bc:	13520019 	cmpne	r2, #25
400097c0:	9a000004 	bls	400097d8 <d_demangle_callback.constprop.15+0x2ac>
400097c4:	e2433030 	sub	r3, r3, #48	; 0x30
400097c8:	e3530009 	cmp	r3, #9
400097cc:	8affffa3 	bhi	40009660 <d_demangle_callback.constprop.15+0x134>
400097d0:	e1a02001 	mov	r2, r1
400097d4:	ea000006 	b	400097f4 <d_demangle_callback.constprop.15+0x2c8>
400097d8:	e2813002 	add	r3, r1, #2
400097dc:	e1a02003 	mov	r2, r3
400097e0:	e4d30001 	ldrb	r0, [r3], #1
400097e4:	e240c061 	sub	ip, r0, #97	; 0x61
400097e8:	e350005f 	cmp	r0, #95	; 0x5f
400097ec:	135c0019 	cmpne	ip, #25
400097f0:	9afffff9 	bls	400097dc <d_demangle_callback.constprop.15+0x2b0>
400097f4:	e5d23000 	ldrb	r3, [r2]
400097f8:	e353002e 	cmp	r3, #46	; 0x2e
400097fc:	0a00000a 	beq	4000982c <d_demangle_callback.constprop.15+0x300>
40009800:	e50b2194 	str	r2, [fp, #-404]	; 0xfffffe6c
40009804:	e24b0e1a 	sub	r0, fp, #416	; 0x1a0
40009808:	e0422001 	sub	r2, r2, r1
4000980c:	ebffebc1 	bl	40004718 <d_make_name>
40009810:	e1a02005 	mov	r2, r5
40009814:	e1a03000 	mov	r3, r0
40009818:	e1a01004 	mov	r1, r4
4000981c:	e24b0e1a 	sub	r0, fp, #416	; 0x1a0
40009820:	ebffeb58 	bl	40004588 <d_make_comp>
40009824:	e1a05000 	mov	r5, r0
40009828:	eaffffdc 	b	400097a0 <d_demangle_callback.constprop.15+0x274>
4000982c:	e5d23001 	ldrb	r3, [r2, #1]
40009830:	e2433030 	sub	r3, r3, #48	; 0x30
40009834:	e3530009 	cmp	r3, #9
40009838:	8afffff0 	bhi	40009800 <d_demangle_callback.constprop.15+0x2d4>
4000983c:	e2820002 	add	r0, r2, #2
40009840:	e1a02000 	mov	r2, r0
40009844:	e5d23000 	ldrb	r3, [r2]
40009848:	e2433030 	sub	r3, r3, #48	; 0x30
4000984c:	e3530009 	cmp	r3, #9
40009850:	e2800001 	add	r0, r0, #1
40009854:	9afffff9 	bls	40009840 <d_demangle_callback.constprop.15+0x314>
40009858:	eaffffe5 	b	400097f4 <d_demangle_callback.constprop.15+0x2c8>
4000985c:	e5d4200b 	ldrb	r2, [r4, #11]
40009860:	e3550002 	cmp	r5, #2
40009864:	e284800b 	add	r8, r4, #11
40009868:	03a05043 	moveq	r5, #67	; 0x43
4000986c:	13a05044 	movne	r5, #68	; 0x44
40009870:	e352005f 	cmp	r2, #95	; 0x5f
40009874:	e50b8194 	str	r8, [fp, #-404]	; 0xfffffe6c
40009878:	1a000002 	bne	40009888 <d_demangle_callback.constprop.15+0x35c>
4000987c:	e5d4200c 	ldrb	r2, [r4, #12]
40009880:	e352005a 	cmp	r2, #90	; 0x5a
40009884:	0a000011 	beq	400098d0 <d_demangle_callback.constprop.15+0x3a4>
40009888:	e1a00008 	mov	r0, r8
4000988c:	eb000d70 	bl	4000ce54 <strlen>
40009890:	e1a01008 	mov	r1, r8
40009894:	e1a02000 	mov	r2, r0
40009898:	e24b0e1a 	sub	r0, fp, #416	; 0x1a0
4000989c:	ebffeb9d 	bl	40004718 <d_make_name>
400098a0:	e1a02000 	mov	r2, r0
400098a4:	e1a01005 	mov	r1, r5
400098a8:	e3a03000 	mov	r3, #0
400098ac:	e24b0e1a 	sub	r0, fp, #416	; 0x1a0
400098b0:	ebffeb34 	bl	40004588 <d_make_comp>
400098b4:	e51b4194 	ldr	r4, [fp, #-404]	; 0xfffffe6c
400098b8:	e1a05000 	mov	r5, r0
400098bc:	e1a00004 	mov	r0, r4
400098c0:	eb000d63 	bl	4000ce54 <strlen>
400098c4:	e0840000 	add	r0, r4, r0
400098c8:	e50b0194 	str	r0, [fp, #-404]	; 0xfffffe6c
400098cc:	eaffff63 	b	40009660 <d_demangle_callback.constprop.15+0x134>
400098d0:	e284400d 	add	r4, r4, #13
400098d4:	e1a01003 	mov	r1, r3
400098d8:	e24b0e1a 	sub	r0, fp, #416	; 0x1a0
400098dc:	e50b4194 	str	r4, [fp, #-404]	; 0xfffffe6c
400098e0:	ebfffb5f 	bl	40008664 <d_encoding>
400098e4:	eaffffed 	b	400098a0 <d_demangle_callback.constprop.15+0x374>
400098e8:	400192ab 	.word	0x400192ab

Disassembly of section .text.__cxa_demangle:

400098ec <__cxa_demangle>:
400098ec:	e3500000 	cmp	r0, #0
400098f0:	e92d41ff 	push	{r0, r1, r2, r3, r4, r5, r6, r7, r8, lr}
400098f4:	1a000007 	bne	40009918 <__cxa_demangle+0x2c>
400098f8:	e3530000 	cmp	r3, #0
400098fc:	13e02002 	mvnne	r2, #2
40009900:	15832000 	strne	r2, [r3]
40009904:	e3a05000 	mov	r5, #0
40009908:	e1a00005 	mov	r0, r5
4000990c:	e28dd010 	add	sp, sp, #16
40009910:	e8bd41f0 	pop	{r4, r5, r6, r7, r8, lr}
40009914:	e12fff1e 	bx	lr
40009918:	e291c000 	adds	ip, r1, #0
4000991c:	13a0c001 	movne	ip, #1
40009920:	e3520000 	cmp	r2, #0
40009924:	13a0c000 	movne	ip, #0
40009928:	e35c0000 	cmp	ip, #0
4000992c:	1afffff1 	bne	400098f8 <__cxa_demangle+0xc>
40009930:	e1a06002 	mov	r6, r2
40009934:	e1a07001 	mov	r7, r1
40009938:	e1a0200d 	mov	r2, sp
4000993c:	e59f10d0 	ldr	r1, [pc, #208]	; 40009a14 <__cxa_demangle+0x128>
40009940:	e1a04003 	mov	r4, r3
40009944:	e58dc000 	str	ip, [sp]
40009948:	e58dc004 	str	ip, [sp, #4]
4000994c:	e58dc008 	str	ip, [sp, #8]
40009950:	e58dc00c 	str	ip, [sp, #12]
40009954:	ebfffef4 	bl	4000952c <d_demangle_callback.constprop.15>
40009958:	e3500000 	cmp	r0, #0
4000995c:	1a000006 	bne	4000997c <__cxa_demangle+0x90>
40009960:	e59d0000 	ldr	r0, [sp]
40009964:	eb0006e7 	bl	4000b508 <free>
40009968:	e3540000 	cmp	r4, #0
4000996c:	0affffe4 	beq	40009904 <__cxa_demangle+0x18>
40009970:	e3e03001 	mvn	r3, #1
40009974:	e5843000 	str	r3, [r4]
40009978:	eaffffe1 	b	40009904 <__cxa_demangle+0x18>
4000997c:	e59d300c 	ldr	r3, [sp, #12]
40009980:	e59d5000 	ldr	r5, [sp]
40009984:	e3530000 	cmp	r3, #0
40009988:	059d8008 	ldreq	r8, [sp, #8]
4000998c:	13a08001 	movne	r8, #1
40009990:	e3550000 	cmp	r5, #0
40009994:	1a000006 	bne	400099b4 <__cxa_demangle+0xc8>
40009998:	e3540000 	cmp	r4, #0
4000999c:	0affffd8 	beq	40009904 <__cxa_demangle+0x18>
400099a0:	e3580001 	cmp	r8, #1
400099a4:	03e03000 	mvneq	r3, #0
400099a8:	1afffff0 	bne	40009970 <__cxa_demangle+0x84>
400099ac:	e5843000 	str	r3, [r4]
400099b0:	eaffffd4 	b	40009908 <__cxa_demangle+0x1c>
400099b4:	e3570000 	cmp	r7, #0
400099b8:	1a000003 	bne	400099cc <__cxa_demangle+0xe0>
400099bc:	e3560000 	cmp	r6, #0
400099c0:	0a00000c 	beq	400099f8 <__cxa_demangle+0x10c>
400099c4:	e5868000 	str	r8, [r6]
400099c8:	ea00000a 	b	400099f8 <__cxa_demangle+0x10c>
400099cc:	e1a00005 	mov	r0, r5
400099d0:	eb000d1f 	bl	4000ce54 <strlen>
400099d4:	e5963000 	ldr	r3, [r6]
400099d8:	e1500003 	cmp	r0, r3
400099dc:	2a000009 	bcs	40009a08 <__cxa_demangle+0x11c>
400099e0:	e1a01005 	mov	r1, r5
400099e4:	e1a00007 	mov	r0, r7
400099e8:	eb000cdd 	bl	4000cd64 <strcpy>
400099ec:	e1a00005 	mov	r0, r5
400099f0:	eb0006c4 	bl	4000b508 <free>
400099f4:	e1a05007 	mov	r5, r7
400099f8:	e3540000 	cmp	r4, #0
400099fc:	0affffc1 	beq	40009908 <__cxa_demangle+0x1c>
40009a00:	e3a03000 	mov	r3, #0
40009a04:	eaffffe8 	b	400099ac <__cxa_demangle+0xc0>
40009a08:	e1a00007 	mov	r0, r7
40009a0c:	eb0006bd 	bl	4000b508 <free>
40009a10:	eaffffeb 	b	400099c4 <__cxa_demangle+0xd8>
40009a14:	40005174 	.word	0x40005174

Disassembly of section .text.__gcclibcxx_demangle_callback:

40009a18 <__gcclibcxx_demangle_callback>:
40009a18:	e3510000 	cmp	r1, #0
40009a1c:	13500000 	cmpne	r0, #0
40009a20:	0a000006 	beq	40009a40 <__gcclibcxx_demangle_callback+0x28>
40009a24:	e92d4010 	push	{r4, lr}
40009a28:	ebfffebf 	bl	4000952c <d_demangle_callback.constprop.15>
40009a2c:	e3500000 	cmp	r0, #0
40009a30:	03e00001 	mvneq	r0, #1
40009a34:	13a00000 	movne	r0, #0
40009a38:	e8bd4010 	pop	{r4, lr}
40009a3c:	e12fff1e 	bx	lr
40009a40:	e3e00002 	mvn	r0, #2
40009a44:	e12fff1e 	bx	lr

Disassembly of section .text.__cxa_current_exception_type:

40009a48 <__cxa_current_exception_type>:
40009a48:	e92d4010 	push	{r4, lr}
40009a4c:	ebffe7db 	bl	400039c0 <__cxa_get_globals>
40009a50:	e5900000 	ldr	r0, [r0]
40009a54:	e3500000 	cmp	r0, #0
40009a58:	0a000004 	beq	40009a70 <__cxa_current_exception_type+0x28>
40009a5c:	e5d03027 	ldrb	r3, [r0, #39]	; 0x27
40009a60:	e3530001 	cmp	r3, #1
40009a64:	05900000 	ldreq	r0, [r0]
40009a68:	02400078 	subeq	r0, r0, #120	; 0x78
40009a6c:	e5900000 	ldr	r0, [r0]
40009a70:	e8bd4010 	pop	{r4, lr}
40009a74:	e12fff1e 	bx	lr

Disassembly of section .text._ZNKSt8bad_cast4whatEv:

40009a78 <_ZNKSt8bad_cast4whatEv>:
40009a78:	e59f0000 	ldr	r0, [pc]	; 40009a80 <_ZNKSt8bad_cast4whatEv+0x8>
40009a7c:	e12fff1e 	bx	lr
40009a80:	4001975d 	.word	0x4001975d

Disassembly of section .text._ZNSt8bad_castD2Ev:

40009a84 <_ZNSt8bad_castD1Ev>:
40009a84:	e92d4010 	push	{r4, lr}
40009a88:	e1a04000 	mov	r4, r0
40009a8c:	e59f3010 	ldr	r3, [pc, #16]	; 40009aa4 <_ZNSt8bad_castD1Ev+0x20>
40009a90:	e5803000 	str	r3, [r0]
40009a94:	ebffe965 	bl	40004030 <_ZNSt9exceptionD1Ev>
40009a98:	e1a00004 	mov	r0, r4
40009a9c:	e8bd4010 	pop	{r4, lr}
40009aa0:	e12fff1e 	bx	lr
40009aa4:	4001978c 	.word	0x4001978c

Disassembly of section .text._ZNSt8bad_castD0Ev:

40009aa8 <_ZNSt8bad_castD0Ev>:
40009aa8:	e92d4010 	push	{r4, lr}
40009aac:	e1a04000 	mov	r4, r0
40009ab0:	ebfffff3 	bl	40009a84 <_ZNSt8bad_castD1Ev>
40009ab4:	e1a00004 	mov	r0, r4
40009ab8:	e3a01004 	mov	r1, #4
40009abc:	ebffe7c6 	bl	400039dc <_ZdlPvj>
40009ac0:	e1a00004 	mov	r0, r4
40009ac4:	e8bd4010 	pop	{r4, lr}
40009ac8:	e12fff1e 	bx	lr

Disassembly of section .text.selfrel_offset31:

40009acc <selfrel_offset31>:
40009acc:	e5903000 	ldr	r3, [r0]
40009ad0:	e3130101 	tst	r3, #1073741824	; 0x40000000
40009ad4:	13833102 	orrne	r3, r3, #-2147483648	; 0x80000000
40009ad8:	03c33102 	biceq	r3, r3, #-2147483648	; 0x80000000
40009adc:	e0800003 	add	r0, r0, r3
40009ae0:	e12fff1e 	bx	lr

Disassembly of section .text.search_EIT_table:

40009ae4 <search_EIT_table>:
40009ae4:	e3510000 	cmp	r1, #0
40009ae8:	0a000023 	beq	40009b7c <search_EIT_table+0x98>
40009aec:	e92d47f0 	push	{r4, r5, r6, r7, r8, r9, sl, lr}
40009af0:	e2417001 	sub	r7, r1, #1
40009af4:	e1a06000 	mov	r6, r0
40009af8:	e1a08007 	mov	r8, r7
40009afc:	e3a09000 	mov	r9, #0
40009b00:	e0894008 	add	r4, r9, r8
40009b04:	e0844fa4 	add	r4, r4, r4, lsr #31
40009b08:	e1a040c4 	asr	r4, r4, #1
40009b0c:	e1a05184 	lsl	r5, r4, #3
40009b10:	e0861005 	add	r1, r6, r5
40009b14:	e1a00001 	mov	r0, r1
40009b18:	ebffffeb 	bl	40009acc <selfrel_offset31>
40009b1c:	e1570004 	cmp	r7, r4
40009b20:	e1a0a000 	mov	sl, r0
40009b24:	0a000011 	beq	40009b70 <search_EIT_table+0x8c>
40009b28:	e2855008 	add	r5, r5, #8
40009b2c:	e0860005 	add	r0, r6, r5
40009b30:	ebffffe5 	bl	40009acc <selfrel_offset31>
40009b34:	e15a0002 	cmp	sl, r2
40009b38:	9a000003 	bls	40009b4c <search_EIT_table+0x68>
40009b3c:	e1590004 	cmp	r9, r4
40009b40:	0a000006 	beq	40009b60 <search_EIT_table+0x7c>
40009b44:	e2448001 	sub	r8, r4, #1
40009b48:	eaffffec 	b	40009b00 <search_EIT_table+0x1c>
40009b4c:	e2400001 	sub	r0, r0, #1
40009b50:	e1500002 	cmp	r0, r2
40009b54:	2a000002 	bcs	40009b64 <search_EIT_table+0x80>
40009b58:	e2849001 	add	r9, r4, #1
40009b5c:	eaffffe7 	b	40009b00 <search_EIT_table+0x1c>
40009b60:	e3a01000 	mov	r1, #0
40009b64:	e1a00001 	mov	r0, r1
40009b68:	e8bd47f0 	pop	{r4, r5, r6, r7, r8, r9, sl, lr}
40009b6c:	e12fff1e 	bx	lr
40009b70:	e1500002 	cmp	r0, r2
40009b74:	8afffff0 	bhi	40009b3c <search_EIT_table+0x58>
40009b78:	eafffff9 	b	40009b64 <search_EIT_table+0x80>
40009b7c:	e1a00001 	mov	r0, r1
40009b80:	e12fff1e 	bx	lr

Disassembly of section .text.__gnu_unwind_get_pr_addr:

40009b84 <__gnu_unwind_get_pr_addr>:
40009b84:	e3500001 	cmp	r0, #1
40009b88:	0a000006 	beq	40009ba8 <__gnu_unwind_get_pr_addr+0x24>
40009b8c:	e3500002 	cmp	r0, #2
40009b90:	0a000006 	beq	40009bb0 <__gnu_unwind_get_pr_addr+0x2c>
40009b94:	e59f301c 	ldr	r3, [pc, #28]	; 40009bb8 <__gnu_unwind_get_pr_addr+0x34>
40009b98:	e3500000 	cmp	r0, #0
40009b9c:	01a00003 	moveq	r0, r3
40009ba0:	13a00000 	movne	r0, #0
40009ba4:	e12fff1e 	bx	lr
40009ba8:	e59f000c 	ldr	r0, [pc, #12]	; 40009bbc <__gnu_unwind_get_pr_addr+0x38>
40009bac:	e12fff1e 	bx	lr
40009bb0:	e59f0008 	ldr	r0, [pc, #8]	; 40009bc0 <__gnu_unwind_get_pr_addr+0x3c>
40009bb4:	e12fff1e 	bx	lr
40009bb8:	4000a5cc 	.word	0x4000a5cc
40009bbc:	4000a5d4 	.word	0x4000a5d4
40009bc0:	4000a5dc 	.word	0x4000a5dc

Disassembly of section .text.get_eit_entry:

40009bc4 <get_eit_entry>:
40009bc4:	e59f30e8 	ldr	r3, [pc, #232]	; 40009cb4 <get_eit_entry+0xf0>
40009bc8:	e3530000 	cmp	r3, #0
40009bcc:	e92d4037 	push	{r0, r1, r2, r4, r5, lr}
40009bd0:	e1a04000 	mov	r4, r0
40009bd4:	e2415002 	sub	r5, r1, #2
40009bd8:	0a00000a 	beq	40009c08 <get_eit_entry+0x44>
40009bdc:	e28d1004 	add	r1, sp, #4
40009be0:	e1a00005 	mov	r0, r5
40009be4:	e320f000 	nop	{0}
40009be8:	e3500000 	cmp	r0, #0
40009bec:	1a00000a 	bne	40009c1c <get_eit_entry+0x58>
40009bf0:	e3a03000 	mov	r3, #0
40009bf4:	e3a00009 	mov	r0, #9
40009bf8:	e5843010 	str	r3, [r4, #16]
40009bfc:	e28dd00c 	add	sp, sp, #12
40009c00:	e8bd4030 	pop	{r4, r5, lr}
40009c04:	e12fff1e 	bx	lr
40009c08:	e59f00a8 	ldr	r0, [pc, #168]	; 40009cb8 <get_eit_entry+0xf4>
40009c0c:	e59f30a8 	ldr	r3, [pc, #168]	; 40009cbc <get_eit_entry+0xf8>
40009c10:	e0433000 	sub	r3, r3, r0
40009c14:	e1a031c3 	asr	r3, r3, #3
40009c18:	e58d3004 	str	r3, [sp, #4]
40009c1c:	e1a02005 	mov	r2, r5
40009c20:	e59d1004 	ldr	r1, [sp, #4]
40009c24:	ebffffae 	bl	40009ae4 <search_EIT_table>
40009c28:	e2502000 	subs	r2, r0, #0
40009c2c:	0affffef 	beq	40009bf0 <get_eit_entry+0x2c>
40009c30:	ebffffa5 	bl	40009acc <selfrel_offset31>
40009c34:	e5923004 	ldr	r3, [r2, #4]
40009c38:	e3530001 	cmp	r3, #1
40009c3c:	03a03000 	moveq	r3, #0
40009c40:	e5840048 	str	r0, [r4, #72]	; 0x48
40009c44:	05843010 	streq	r3, [r4, #16]
40009c48:	03a00005 	moveq	r0, #5
40009c4c:	0affffea 	beq	40009bfc <get_eit_entry+0x38>
40009c50:	e3530000 	cmp	r3, #0
40009c54:	e2820004 	add	r0, r2, #4
40009c58:	b584004c 	strlt	r0, [r4, #76]	; 0x4c
40009c5c:	b3a03001 	movlt	r3, #1
40009c60:	ba000002 	blt	40009c70 <get_eit_entry+0xac>
40009c64:	ebffff98 	bl	40009acc <selfrel_offset31>
40009c68:	e3a03000 	mov	r3, #0
40009c6c:	e584004c 	str	r0, [r4, #76]	; 0x4c
40009c70:	e5843050 	str	r3, [r4, #80]	; 0x50
40009c74:	e594004c 	ldr	r0, [r4, #76]	; 0x4c
40009c78:	e5903000 	ldr	r3, [r0]
40009c7c:	e3530000 	cmp	r3, #0
40009c80:	aa000007 	bge	40009ca4 <get_eit_entry+0xe0>
40009c84:	e1a00c23 	lsr	r0, r3, #24
40009c88:	e200000f 	and	r0, r0, #15
40009c8c:	ebffffbc 	bl	40009b84 <__gnu_unwind_get_pr_addr>
40009c90:	e3500000 	cmp	r0, #0
40009c94:	e5840010 	str	r0, [r4, #16]
40009c98:	03a00009 	moveq	r0, #9
40009c9c:	13a00000 	movne	r0, #0
40009ca0:	eaffffd5 	b	40009bfc <get_eit_entry+0x38>
40009ca4:	ebffff88 	bl	40009acc <selfrel_offset31>
40009ca8:	e5840010 	str	r0, [r4, #16]
40009cac:	e3a00000 	mov	r0, #0
40009cb0:	eaffffd1 	b	40009bfc <get_eit_entry+0x38>
40009cb4:	00000000 	.word	0x00000000
40009cb8:	4011a590 	.word	0x4011a590
40009cbc:	4011a7f8 	.word	0x4011a7f8

Disassembly of section .text.restore_non_core_regs:

40009cc0 <restore_non_core_regs>:
40009cc0:	e5903000 	ldr	r3, [r0]
40009cc4:	e3130001 	tst	r3, #1
40009cc8:	e92d4010 	push	{r4, lr}
40009ccc:	e1a04000 	mov	r4, r0
40009cd0:	1a000003 	bne	40009ce4 <restore_non_core_regs+0x24>
40009cd4:	e3130002 	tst	r3, #2
40009cd8:	e2800048 	add	r0, r0, #72	; 0x48
40009cdc:	0a00000e 	beq	40009d1c <restore_non_core_regs+0x5c>
40009ce0:	ebffde0d 	bl	4000151c <__gnu_Unwind_Restore_VFP_D>
40009ce4:	e5943000 	ldr	r3, [r4]
40009ce8:	e3130004 	tst	r3, #4
40009cec:	028400d0 	addeq	r0, r4, #208	; 0xd0
40009cf0:	0bffde0d 	bleq	4000152c <__gnu_Unwind_Restore_VFP_D_16_to_31>
40009cf4:	e5943000 	ldr	r3, [r4]
40009cf8:	e3130008 	tst	r3, #8
40009cfc:	02840e15 	addeq	r0, r4, #336	; 0x150
40009d00:	0bffde0d 	bleq	4000153c <__gnu_Unwind_Restore_WMMXD>
40009d04:	e5943000 	ldr	r3, [r4]
40009d08:	e3130010 	tst	r3, #16
40009d0c:	02840e1d 	addeq	r0, r4, #464	; 0x1d0
40009d10:	0bffde2b 	bleq	400015c4 <__gnu_Unwind_Restore_WMMXC>
40009d14:	e8bd4010 	pop	{r4, lr}
40009d18:	e12fff1e 	bx	lr
40009d1c:	ebffddfa 	bl	4000150c <__gnu_Unwind_Restore_VFP>
40009d20:	eaffffef 	b	40009ce4 <restore_non_core_regs+0x24>

Disassembly of section .text._Unwind_decode_typeinfo_ptr.isra.0:

40009d24 <_Unwind_decode_typeinfo_ptr.isra.0>:
40009d24:	e5903000 	ldr	r3, [r0]
40009d28:	e3530000 	cmp	r3, #0
40009d2c:	10833000 	addne	r3, r3, r0
40009d30:	e1a00003 	mov	r0, r3
40009d34:	e12fff1e 	bx	lr

Disassembly of section .text.__gnu_unwind_24bit.isra.1:

40009d38 <__gnu_unwind_24bit.isra.1>:
40009d38:	e3a00009 	mov	r0, #9
40009d3c:	e12fff1e 	bx	lr

Disassembly of section .text._Unwind_DebugHook:

40009d40 <_Unwind_DebugHook>:
40009d40:	e12fff1e 	bx	lr

Disassembly of section .text.unwind_phase2:

40009d44 <unwind_phase2>:
40009d44:	e92d41f0 	push	{r4, r5, r6, r7, r8, lr}
40009d48:	e1a05000 	mov	r5, r0
40009d4c:	e1a04001 	mov	r4, r1
40009d50:	e3a07001 	mov	r7, #1
40009d54:	e5941040 	ldr	r1, [r4, #64]	; 0x40
40009d58:	e1a00005 	mov	r0, r5
40009d5c:	ebffff98 	bl	40009bc4 <get_eit_entry>
40009d60:	e2506000 	subs	r6, r0, #0
40009d64:	0a000000 	beq	40009d6c <unwind_phase2+0x28>
40009d68:	eb000411 	bl	4000adb4 <abort>
40009d6c:	e5943040 	ldr	r3, [r4, #64]	; 0x40
40009d70:	e1a02004 	mov	r2, r4
40009d74:	e5853014 	str	r3, [r5, #20]
40009d78:	e1a01005 	mov	r1, r5
40009d7c:	e5953010 	ldr	r3, [r5, #16]
40009d80:	e1a00007 	mov	r0, r7
40009d84:	e1a0e00f 	mov	lr, pc
40009d88:	e12fff13 	bx	r3
40009d8c:	e3500008 	cmp	r0, #8
40009d90:	0affffef 	beq	40009d54 <unwind_phase2+0x10>
40009d94:	e3500007 	cmp	r0, #7
40009d98:	1afffff2 	bne	40009d68 <unwind_phase2+0x24>
40009d9c:	e1a00006 	mov	r0, r6
40009da0:	e5941040 	ldr	r1, [r4, #64]	; 0x40
40009da4:	ebffffe5 	bl	40009d40 <_Unwind_DebugHook>
40009da8:	e2840004 	add	r0, r4, #4
40009dac:	ebffddcf 	bl	400014f0 <__restore_core_regs>

Disassembly of section .text.unwind_phase2_forced:

40009db0 <unwind_phase2_forced>:
40009db0:	e92d4ff0 	push	{r4, r5, r6, r7, r8, r9, sl, fp, lr}
40009db4:	e3a05000 	mov	r5, #0
40009db8:	e1a0b005 	mov	fp, r5
40009dbc:	e281e004 	add	lr, r1, #4
40009dc0:	e24ddff3 	sub	sp, sp, #972	; 0x3cc
40009dc4:	e590800c 	ldr	r8, [r0, #12]
40009dc8:	e5909018 	ldr	r9, [r0, #24]
40009dcc:	e1a04000 	mov	r4, r0
40009dd0:	e1a06002 	mov	r6, r2
40009dd4:	e8be000f 	ldm	lr!, {r0, r1, r2, r3}
40009dd8:	e28dc00c 	add	ip, sp, #12
40009ddc:	e8ac000f 	stmia	ip!, {r0, r1, r2, r3}
40009de0:	e8be000f 	ldm	lr!, {r0, r1, r2, r3}
40009de4:	e8ac000f 	stmia	ip!, {r0, r1, r2, r3}
40009de8:	e8be000f 	ldm	lr!, {r0, r1, r2, r3}
40009dec:	e8ac000f 	stmia	ip!, {r0, r1, r2, r3}
40009df0:	e89e000f 	ldm	lr, {r0, r1, r2, r3}
40009df4:	e88c000f 	stm	ip, {r0, r1, r2, r3}
40009df8:	e58d5008 	str	r5, [sp, #8]
40009dfc:	e28da008 	add	sl, sp, #8
40009e00:	e59d1048 	ldr	r1, [sp, #72]	; 0x48
40009e04:	e1a00004 	mov	r0, r4
40009e08:	ebffff6d 	bl	40009bc4 <get_eit_entry>
40009e0c:	e3560000 	cmp	r6, #0
40009e10:	13a0600a 	movne	r6, #10
40009e14:	03a06009 	moveq	r6, #9
40009e18:	e2507000 	subs	r7, r0, #0
40009e1c:	13866010 	orrne	r6, r6, #16
40009e20:	159d3040 	ldrne	r3, [sp, #64]	; 0x40
40009e24:	1a00000d 	bne	40009e60 <unwind_phase2_forced+0xb0>
40009e28:	e59d3048 	ldr	r3, [sp, #72]	; 0x48
40009e2c:	e3a02e1e 	mov	r2, #480	; 0x1e0
40009e30:	e5843014 	str	r3, [r4, #20]
40009e34:	e1a0100a 	mov	r1, sl
40009e38:	e28d0f7a 	add	r0, sp, #488	; 0x1e8
40009e3c:	eb00081c 	bl	4000beb4 <memcpy>
40009e40:	e5943010 	ldr	r3, [r4, #16]
40009e44:	e28d2f7a 	add	r2, sp, #488	; 0x1e8
40009e48:	e1a01004 	mov	r1, r4
40009e4c:	e1a00006 	mov	r0, r6
40009e50:	e1a0e00f 	mov	lr, pc
40009e54:	e12fff13 	bx	r3
40009e58:	e1a05000 	mov	r5, r0
40009e5c:	e59d3220 	ldr	r3, [sp, #544]	; 0x220
40009e60:	e58d304c 	str	r3, [sp, #76]	; 0x4c
40009e64:	e58d9004 	str	r9, [sp, #4]
40009e68:	e58da000 	str	sl, [sp]
40009e6c:	e1a03004 	mov	r3, r4
40009e70:	e1a02004 	mov	r2, r4
40009e74:	e1a01006 	mov	r1, r6
40009e78:	e3a00001 	mov	r0, #1
40009e7c:	e1a0e00f 	mov	lr, pc
40009e80:	e12fff18 	bx	r8
40009e84:	e3500000 	cmp	r0, #0
40009e88:	1a00000f 	bne	40009ecc <unwind_phase2_forced+0x11c>
40009e8c:	e3570000 	cmp	r7, #0
40009e90:	1a00000e 	bne	40009ed0 <unwind_phase2_forced+0x120>
40009e94:	e3a02e1e 	mov	r2, #480	; 0x1e0
40009e98:	e28d1f7a 	add	r1, sp, #488	; 0x1e8
40009e9c:	e1a0000a 	mov	r0, sl
40009ea0:	eb000803 	bl	4000beb4 <memcpy>
40009ea4:	e3550008 	cmp	r5, #8
40009ea8:	e1a0600b 	mov	r6, fp
40009eac:	0affffd3 	beq	40009e00 <unwind_phase2_forced+0x50>
40009eb0:	e3550007 	cmp	r5, #7
40009eb4:	1a000004 	bne	40009ecc <unwind_phase2_forced+0x11c>
40009eb8:	e1a00007 	mov	r0, r7
40009ebc:	e59d1048 	ldr	r1, [sp, #72]	; 0x48
40009ec0:	ebffff9e 	bl	40009d40 <_Unwind_DebugHook>
40009ec4:	e28d000c 	add	r0, sp, #12
40009ec8:	ebffdd88 	bl	400014f0 <__restore_core_regs>
40009ecc:	e3a07009 	mov	r7, #9
40009ed0:	e1a00007 	mov	r0, r7
40009ed4:	e28ddff3 	add	sp, sp, #972	; 0x3cc
40009ed8:	e8bd4ff0 	pop	{r4, r5, r6, r7, r8, r9, sl, fp, lr}
40009edc:	e12fff1e 	bx	lr

Disassembly of section .text._Unwind_GetCFA:

40009ee0 <_Unwind_GetCFA>:
40009ee0:	e5900044 	ldr	r0, [r0, #68]	; 0x44
40009ee4:	e12fff1e 	bx	lr

Disassembly of section .text.__gnu_Unwind_RaiseException:

40009ee8 <__gnu_Unwind_RaiseException>:
40009ee8:	e92d40f0 	push	{r4, r5, r6, r7, lr}
40009eec:	e591303c 	ldr	r3, [r1, #60]	; 0x3c
40009ef0:	e5813040 	str	r3, [r1, #64]	; 0x40
40009ef4:	e281e004 	add	lr, r1, #4
40009ef8:	e24ddf79 	sub	sp, sp, #484	; 0x1e4
40009efc:	e1a04000 	mov	r4, r0
40009f00:	e1a05001 	mov	r5, r1
40009f04:	e8be000f 	ldm	lr!, {r0, r1, r2, r3}
40009f08:	e28dc004 	add	ip, sp, #4
40009f0c:	e8ac000f 	stmia	ip!, {r0, r1, r2, r3}
40009f10:	e8be000f 	ldm	lr!, {r0, r1, r2, r3}
40009f14:	e8ac000f 	stmia	ip!, {r0, r1, r2, r3}
40009f18:	e8be000f 	ldm	lr!, {r0, r1, r2, r3}
40009f1c:	e8ac000f 	stmia	ip!, {r0, r1, r2, r3}
40009f20:	e89e000f 	ldm	lr, {r0, r1, r2, r3}
40009f24:	e88c000f 	stm	ip, {r0, r1, r2, r3}
40009f28:	e3e03000 	mvn	r3, #0
40009f2c:	e28d6e1e 	add	r6, sp, #480	; 0x1e0
40009f30:	e52631e0 	str	r3, [r6, #-480]!	; 0xfffffe20
40009f34:	e59d1040 	ldr	r1, [sp, #64]	; 0x40
40009f38:	e1a00004 	mov	r0, r4
40009f3c:	ebffff20 	bl	40009bc4 <get_eit_entry>
40009f40:	e3500000 	cmp	r0, #0
40009f44:	1a00000d 	bne	40009f80 <__gnu_Unwind_RaiseException+0x98>
40009f48:	e5943010 	ldr	r3, [r4, #16]
40009f4c:	e1a02006 	mov	r2, r6
40009f50:	e1a01004 	mov	r1, r4
40009f54:	e1a0e00f 	mov	lr, pc
40009f58:	e12fff13 	bx	r3
40009f5c:	e3500008 	cmp	r0, #8
40009f60:	e1a07000 	mov	r7, r0
40009f64:	0afffff2 	beq	40009f34 <__gnu_Unwind_RaiseException+0x4c>
40009f68:	e1a00006 	mov	r0, r6
40009f6c:	ebffff53 	bl	40009cc0 <restore_non_core_regs>
40009f70:	e3570006 	cmp	r7, #6
40009f74:	01a01005 	moveq	r1, r5
40009f78:	01a00004 	moveq	r0, r4
40009f7c:	0bffff70 	bleq	40009d44 <unwind_phase2>
40009f80:	e3a00009 	mov	r0, #9
40009f84:	e28ddf79 	add	sp, sp, #484	; 0x1e4
40009f88:	e8bd40f0 	pop	{r4, r5, r6, r7, lr}
40009f8c:	e12fff1e 	bx	lr

Disassembly of section .text.__gnu_Unwind_ForcedUnwind:

40009f90 <__gnu_Unwind_ForcedUnwind>:
40009f90:	e5802018 	str	r2, [r0, #24]
40009f94:	e593203c 	ldr	r2, [r3, #60]	; 0x3c
40009f98:	e580100c 	str	r1, [r0, #12]
40009f9c:	e5832040 	str	r2, [r3, #64]	; 0x40
40009fa0:	e1a01003 	mov	r1, r3
40009fa4:	e3a02000 	mov	r2, #0
40009fa8:	eaffff80 	b	40009db0 <unwind_phase2_forced>

Disassembly of section .text.__gnu_Unwind_Resume:

40009fac <__gnu_Unwind_Resume>:
40009fac:	e92d4070 	push	{r4, r5, r6, lr}
40009fb0:	e590600c 	ldr	r6, [r0, #12]
40009fb4:	e5903014 	ldr	r3, [r0, #20]
40009fb8:	e3560000 	cmp	r6, #0
40009fbc:	e5813040 	str	r3, [r1, #64]	; 0x40
40009fc0:	0a000002 	beq	40009fd0 <__gnu_Unwind_Resume+0x24>
40009fc4:	e3a02001 	mov	r2, #1
40009fc8:	ebffff78 	bl	40009db0 <unwind_phase2_forced>
40009fcc:	eb000378 	bl	4000adb4 <abort>
40009fd0:	e5903010 	ldr	r3, [r0, #16]
40009fd4:	e1a02001 	mov	r2, r1
40009fd8:	e1a04000 	mov	r4, r0
40009fdc:	e1a05001 	mov	r5, r1
40009fe0:	e1a01000 	mov	r1, r0
40009fe4:	e3a00002 	mov	r0, #2
40009fe8:	e1a0e00f 	mov	lr, pc
40009fec:	e12fff13 	bx	r3
40009ff0:	e3500007 	cmp	r0, #7
40009ff4:	0a000004 	beq	4000a00c <__gnu_Unwind_Resume+0x60>
40009ff8:	e3500008 	cmp	r0, #8
40009ffc:	1afffff2 	bne	40009fcc <__gnu_Unwind_Resume+0x20>
4000a000:	e1a01005 	mov	r1, r5
4000a004:	e1a00004 	mov	r0, r4
4000a008:	ebffff4d 	bl	40009d44 <unwind_phase2>
4000a00c:	e1a00006 	mov	r0, r6
4000a010:	e5951040 	ldr	r1, [r5, #64]	; 0x40
4000a014:	ebffff49 	bl	40009d40 <_Unwind_DebugHook>
4000a018:	e2850004 	add	r0, r5, #4
4000a01c:	ebffdd33 	bl	400014f0 <__restore_core_regs>

Disassembly of section .text.__gnu_Unwind_Resume_or_Rethrow:

4000a020 <__gnu_Unwind_Resume_or_Rethrow>:
4000a020:	e590200c 	ldr	r2, [r0, #12]
4000a024:	e3520000 	cmp	r2, #0
4000a028:	0affffae 	beq	40009ee8 <__gnu_Unwind_RaiseException>
4000a02c:	e591203c 	ldr	r2, [r1, #60]	; 0x3c
4000a030:	e5812040 	str	r2, [r1, #64]	; 0x40
4000a034:	e3a02000 	mov	r2, #0
4000a038:	eaffff5c 	b	40009db0 <unwind_phase2_forced>

Disassembly of section .text._Unwind_Complete:

4000a03c <_Unwind_Complete>:
4000a03c:	e12fff1e 	bx	lr

Disassembly of section .text._Unwind_DeleteException:

4000a040 <_Unwind_DeleteException>:
4000a040:	e5903008 	ldr	r3, [r0, #8]
4000a044:	e3530000 	cmp	r3, #0
4000a048:	e1a01000 	mov	r1, r0
4000a04c:	012fff1e 	bxeq	lr
4000a050:	e3a00001 	mov	r0, #1
4000a054:	e12fff13 	bx	r3

Disassembly of section .text._Unwind_VRS_Get:

4000a058 <_Unwind_VRS_Get>:
4000a058:	e3510004 	cmp	r1, #4
4000a05c:	979ff101 	ldrls	pc, [pc, r1, lsl #2]
4000a060:	ea000011 	b	4000a0ac <_Unwind_VRS_Get+0x54>
4000a064:	4000a078 	.word	0x4000a078
4000a068:	4000a0a4 	.word	0x4000a0a4
4000a06c:	4000a0ac 	.word	0x4000a0ac
4000a070:	4000a0a4 	.word	0x4000a0a4
4000a074:	4000a0a4 	.word	0x4000a0a4
4000a078:	e352000f 	cmp	r2, #15
4000a07c:	93530000 	cmpls	r3, #0
4000a080:	13a03001 	movne	r3, #1
4000a084:	03a03000 	moveq	r3, #0
4000a088:	1a000007 	bne	4000a0ac <_Unwind_VRS_Get+0x54>
4000a08c:	e0800102 	add	r0, r0, r2, lsl #2
4000a090:	e5901004 	ldr	r1, [r0, #4]
4000a094:	e59d2000 	ldr	r2, [sp]
4000a098:	e1a00003 	mov	r0, r3
4000a09c:	e5821000 	str	r1, [r2]
4000a0a0:	e12fff1e 	bx	lr
4000a0a4:	e3a00001 	mov	r0, #1
4000a0a8:	e12fff1e 	bx	lr
4000a0ac:	e3a00002 	mov	r0, #2
4000a0b0:	e12fff1e 	bx	lr

Disassembly of section .text._Unwind_VRS_Set:

4000a0b4 <_Unwind_VRS_Set>:
4000a0b4:	e3510004 	cmp	r1, #4
4000a0b8:	979ff101 	ldrls	pc, [pc, r1, lsl #2]
4000a0bc:	ea000011 	b	4000a108 <_Unwind_VRS_Set+0x54>
4000a0c0:	4000a0d4 	.word	0x4000a0d4
4000a0c4:	4000a100 	.word	0x4000a100
4000a0c8:	4000a108 	.word	0x4000a108
4000a0cc:	4000a100 	.word	0x4000a100
4000a0d0:	4000a100 	.word	0x4000a100
4000a0d4:	e352000f 	cmp	r2, #15
4000a0d8:	93530000 	cmpls	r3, #0
4000a0dc:	13a03001 	movne	r3, #1
4000a0e0:	03a03000 	moveq	r3, #0
4000a0e4:	1a000007 	bne	4000a108 <_Unwind_VRS_Set+0x54>
4000a0e8:	e59d1000 	ldr	r1, [sp]
4000a0ec:	e5911000 	ldr	r1, [r1]
4000a0f0:	e0800102 	add	r0, r0, r2, lsl #2
4000a0f4:	e5801004 	str	r1, [r0, #4]
4000a0f8:	e1a00003 	mov	r0, r3
4000a0fc:	e12fff1e 	bx	lr
4000a100:	e3a00001 	mov	r0, #1
4000a104:	e12fff1e 	bx	lr
4000a108:	e3a00002 	mov	r0, #2
4000a10c:	e12fff1e 	bx	lr

Disassembly of section .text._Unwind_SetGR:

4000a110 <_Unwind_SetGR>:
4000a110:	e92d401f 	push	{r0, r1, r2, r3, r4, lr}
4000a114:	e28d3010 	add	r3, sp, #16
4000a118:	e5232004 	str	r2, [r3, #-4]!
4000a11c:	e58d3000 	str	r3, [sp]
4000a120:	e3a03000 	mov	r3, #0
4000a124:	e1a02001 	mov	r2, r1
4000a128:	e1a01003 	mov	r1, r3
4000a12c:	ebffffe0 	bl	4000a0b4 <_Unwind_VRS_Set>
4000a130:	e28dd014 	add	sp, sp, #20
4000a134:	e49de004 	pop	{lr}		; (ldr lr, [sp], #4)
4000a138:	e12fff1e 	bx	lr

Disassembly of section .text.__gnu_Unwind_Backtrace:

4000a13c <__gnu_Unwind_Backtrace>:
4000a13c:	e92d40f0 	push	{r4, r5, r6, r7, lr}
4000a140:	e592303c 	ldr	r3, [r2, #60]	; 0x3c
4000a144:	e5823040 	str	r3, [r2, #64]	; 0x40
4000a148:	e282c004 	add	ip, r2, #4
4000a14c:	e24ddf8f 	sub	sp, sp, #572	; 0x23c
4000a150:	e1a05000 	mov	r5, r0
4000a154:	e1a06001 	mov	r6, r1
4000a158:	e8bc000f 	ldm	ip!, {r0, r1, r2, r3}
4000a15c:	e28de05c 	add	lr, sp, #92	; 0x5c
4000a160:	e8ae000f 	stmia	lr!, {r0, r1, r2, r3}
4000a164:	e8bc000f 	ldm	ip!, {r0, r1, r2, r3}
4000a168:	e8ae000f 	stmia	lr!, {r0, r1, r2, r3}
4000a16c:	e8bc000f 	ldm	ip!, {r0, r1, r2, r3}
4000a170:	e8ae000f 	stmia	lr!, {r0, r1, r2, r3}
4000a174:	e89c000f 	ldm	ip, {r0, r1, r2, r3}
4000a178:	e88e000f 	stm	lr, {r0, r1, r2, r3}
4000a17c:	e3e03000 	mvn	r3, #0
4000a180:	e3a0700c 	mov	r7, #12
4000a184:	e58d3058 	str	r3, [sp, #88]	; 0x58
4000a188:	e59d1098 	ldr	r1, [sp, #152]	; 0x98
4000a18c:	e1a0000d 	mov	r0, sp
4000a190:	ebfffe8b 	bl	40009bc4 <get_eit_entry>
4000a194:	e3500000 	cmp	r0, #0
4000a198:	0a000006 	beq	4000a1b8 <__gnu_Unwind_Backtrace+0x7c>
4000a19c:	e3a04009 	mov	r4, #9
4000a1a0:	e28d0058 	add	r0, sp, #88	; 0x58
4000a1a4:	ebfffec5 	bl	40009cc0 <restore_non_core_regs>
4000a1a8:	e1a00004 	mov	r0, r4
4000a1ac:	e28ddf8f 	add	sp, sp, #572	; 0x23c
4000a1b0:	e8bd40f0 	pop	{r4, r5, r6, r7, lr}
4000a1b4:	e12fff1e 	bx	lr
4000a1b8:	e1a0200d 	mov	r2, sp
4000a1bc:	e1a01007 	mov	r1, r7
4000a1c0:	e28d0058 	add	r0, sp, #88	; 0x58
4000a1c4:	ebffffd1 	bl	4000a110 <_Unwind_SetGR>
4000a1c8:	e1a01006 	mov	r1, r6
4000a1cc:	e28d0058 	add	r0, sp, #88	; 0x58
4000a1d0:	e1a0e00f 	mov	lr, pc
4000a1d4:	e12fff15 	bx	r5
4000a1d8:	e3500000 	cmp	r0, #0
4000a1dc:	1affffee 	bne	4000a19c <__gnu_Unwind_Backtrace+0x60>
4000a1e0:	e59d3010 	ldr	r3, [sp, #16]
4000a1e4:	e28d2058 	add	r2, sp, #88	; 0x58
4000a1e8:	e1a0100d 	mov	r1, sp
4000a1ec:	e3a00008 	mov	r0, #8
4000a1f0:	e1a0e00f 	mov	lr, pc
4000a1f4:	e12fff13 	bx	r3
4000a1f8:	e2403005 	sub	r3, r0, #5
4000a1fc:	e31300fb 	tst	r3, #251	; 0xfb
4000a200:	e1a04000 	mov	r4, r0
4000a204:	1affffdf 	bne	4000a188 <__gnu_Unwind_Backtrace+0x4c>
4000a208:	eaffffe4 	b	4000a1a0 <__gnu_Unwind_Backtrace+0x64>

Disassembly of section .text.__gnu_unwind_pr_common:

4000a20c <__gnu_unwind_pr_common>:
4000a20c:	e92d4ff0 	push	{r4, r5, r6, r7, r8, r9, sl, fp, lr}
4000a210:	e1a07002 	mov	r7, r2
4000a214:	e591204c 	ldr	r2, [r1, #76]	; 0x4c
4000a218:	e2826004 	add	r6, r2, #4
4000a21c:	e5922000 	ldr	r2, [r2]
4000a220:	e24dd01c 	sub	sp, sp, #28
4000a224:	e253b000 	subs	fp, r3, #0
4000a228:	e1a05001 	mov	r5, r1
4000a22c:	e2009003 	and	r9, r0, #3
4000a230:	e58d200c 	str	r2, [sp, #12]
4000a234:	e58d6010 	str	r6, [sp, #16]
4000a238:	1a000021 	bne	4000a2c4 <__gnu_unwind_pr_common+0xb8>
4000a23c:	e3a03003 	mov	r3, #3
4000a240:	e1a02402 	lsl	r2, r2, #8
4000a244:	e58d200c 	str	r2, [sp, #12]
4000a248:	e5cdb015 	strb	fp, [sp, #21]
4000a24c:	e5cd3014 	strb	r3, [sp, #20]
4000a250:	e5958050 	ldr	r8, [r5, #80]	; 0x50
4000a254:	e3590002 	cmp	r9, #2
4000a258:	05956038 	ldreq	r6, [r5, #56]	; 0x38
4000a25c:	e2188001 	ands	r8, r8, #1
4000a260:	1a0000d2 	bne	4000a5b0 <__gnu_unwind_pr_common+0x3a4>
4000a264:	e1a001a0 	lsr	r0, r0, #3
4000a268:	e2200001 	eor	r0, r0, #1
4000a26c:	e2003001 	and	r3, r0, #1
4000a270:	e58d3004 	str	r3, [sp, #4]
4000a274:	e596a000 	ldr	sl, [r6]
4000a278:	e35a0000 	cmp	sl, #0
4000a27c:	1a00001b 	bne	4000a2f0 <__gnu_unwind_pr_common+0xe4>
4000a280:	e35b0002 	cmp	fp, #2
4000a284:	da0000cb 	ble	4000a5b8 <__gnu_unwind_pr_common+0x3ac>
4000a288:	ebfffeaa 	bl	40009d38 <__gnu_unwind_24bit.isra.1>
4000a28c:	e3500000 	cmp	r0, #0
4000a290:	1a000035 	bne	4000a36c <__gnu_unwind_pr_common+0x160>
4000a294:	e3580000 	cmp	r8, #0
4000a298:	03a00008 	moveq	r0, #8
4000a29c:	0a00007e 	beq	4000a49c <__gnu_unwind_pr_common+0x290>
4000a2a0:	e3a0100f 	mov	r1, #15
4000a2a4:	e1a00007 	mov	r0, r7
4000a2a8:	ebffe1e6 	bl	40002a48 <_Unwind_GetGR>
4000a2ac:	e3a0100e 	mov	r1, #14
4000a2b0:	e1a02000 	mov	r2, r0
4000a2b4:	e1a00007 	mov	r0, r7
4000a2b8:	ebffff94 	bl	4000a110 <_Unwind_SetGR>
4000a2bc:	e59f2304 	ldr	r2, [pc, #772]	; 4000a5c8 <__gnu_unwind_pr_common+0x3bc>
4000a2c0:	ea00003a 	b	4000a3b0 <__gnu_unwind_pr_common+0x1a4>
4000a2c4:	e35b0002 	cmp	fp, #2
4000a2c8:	caffffe0 	bgt	4000a250 <__gnu_unwind_pr_common+0x44>
4000a2cc:	e1a03822 	lsr	r3, r2, #16
4000a2d0:	e1a02802 	lsl	r2, r2, #16
4000a2d4:	e58d200c 	str	r2, [sp, #12]
4000a2d8:	e3a02002 	mov	r2, #2
4000a2dc:	e5cd3015 	strb	r3, [sp, #21]
4000a2e0:	e20330ff 	and	r3, r3, #255	; 0xff
4000a2e4:	e5cd2014 	strb	r2, [sp, #20]
4000a2e8:	e0866213 	add	r6, r6, r3, lsl r2
4000a2ec:	eaffffd7 	b	4000a250 <__gnu_unwind_pr_common+0x44>
4000a2f0:	e35b0002 	cmp	fp, #2
4000a2f4:	05964004 	ldreq	r4, [r6, #4]
4000a2f8:	11d640b2 	ldrhne	r4, [r6, #2]
4000a2fc:	e5950048 	ldr	r0, [r5, #72]	; 0x48
4000a300:	e3c43001 	bic	r3, r4, #1
4000a304:	e0833000 	add	r3, r3, r0
4000a308:	e3a0100f 	mov	r1, #15
4000a30c:	e1a00007 	mov	r0, r7
4000a310:	11d6a0b0 	ldrhne	sl, [r6]
4000a314:	02866008 	addeq	r6, r6, #8
4000a318:	12866004 	addne	r6, r6, #4
4000a31c:	e58d3000 	str	r3, [sp]
4000a320:	ebffe1c8 	bl	40002a48 <_Unwind_GetGR>
4000a324:	e59d3000 	ldr	r3, [sp]
4000a328:	e1530000 	cmp	r3, r0
4000a32c:	83a00000 	movhi	r0, #0
4000a330:	8a000004 	bhi	4000a348 <__gnu_unwind_pr_common+0x13c>
4000a334:	e3ca2001 	bic	r2, sl, #1
4000a338:	e0823003 	add	r3, r2, r3
4000a33c:	e1500003 	cmp	r0, r3
4000a340:	23a00000 	movcs	r0, #0
4000a344:	33a00001 	movcc	r0, #1
4000a348:	e1a04084 	lsl	r4, r4, #1
4000a34c:	e2044002 	and	r4, r4, #2
4000a350:	e20aa001 	and	sl, sl, #1
4000a354:	e184400a 	orr	r4, r4, sl
4000a358:	e3540001 	cmp	r4, #1
4000a35c:	0a000017 	beq	4000a3c0 <__gnu_unwind_pr_common+0x1b4>
4000a360:	3a000003 	bcc	4000a374 <__gnu_unwind_pr_common+0x168>
4000a364:	e3540002 	cmp	r4, #2
4000a368:	0a000050 	beq	4000a4b0 <__gnu_unwind_pr_common+0x2a4>
4000a36c:	e3a00009 	mov	r0, #9
4000a370:	ea000049 	b	4000a49c <__gnu_unwind_pr_common+0x290>
4000a374:	e3590000 	cmp	r9, #0
4000a378:	03a00000 	moveq	r0, #0
4000a37c:	12000001 	andne	r0, r0, #1
4000a380:	e3500000 	cmp	r0, #0
4000a384:	e2864004 	add	r4, r6, #4
4000a388:	0a00000a 	beq	4000a3b8 <__gnu_unwind_pr_common+0x1ac>
4000a38c:	e1a00006 	mov	r0, r6
4000a390:	ebfffdcd 	bl	40009acc <selfrel_offset31>
4000a394:	e5854038 	str	r4, [r5, #56]	; 0x38
4000a398:	e1a06000 	mov	r6, r0
4000a39c:	e1a00005 	mov	r0, r5
4000a3a0:	ebffe555 	bl	400038fc <__cxa_begin_cleanup>
4000a3a4:	e3500000 	cmp	r0, #0
4000a3a8:	0affffef 	beq	4000a36c <__gnu_unwind_pr_common+0x160>
4000a3ac:	e1a02006 	mov	r2, r6
4000a3b0:	e3a0100f 	mov	r1, #15
4000a3b4:	ea000035 	b	4000a490 <__gnu_unwind_pr_common+0x284>
4000a3b8:	e1a06004 	mov	r6, r4
4000a3bc:	eaffffac 	b	4000a274 <__gnu_unwind_pr_common+0x68>
4000a3c0:	e3590000 	cmp	r9, #0
4000a3c4:	1a000020 	bne	4000a44c <__gnu_unwind_pr_common+0x240>
4000a3c8:	e3500000 	cmp	r0, #0
4000a3cc:	0a000035 	beq	4000a4a8 <__gnu_unwind_pr_common+0x29c>
4000a3d0:	e5963004 	ldr	r3, [r6, #4]
4000a3d4:	e5962000 	ldr	r2, [r6]
4000a3d8:	e3730002 	cmn	r3, #2
4000a3dc:	e1a02fa2 	lsr	r2, r2, #31
4000a3e0:	0affffe1 	beq	4000a36c <__gnu_unwind_pr_common+0x160>
4000a3e4:	e2851058 	add	r1, r5, #88	; 0x58
4000a3e8:	e3730001 	cmn	r3, #1
4000a3ec:	e58d1008 	str	r1, [sp, #8]
4000a3f0:	0a000007 	beq	4000a414 <__gnu_unwind_pr_common+0x208>
4000a3f4:	e2860004 	add	r0, r6, #4
4000a3f8:	ebfffe49 	bl	40009d24 <_Unwind_decode_typeinfo_ptr.isra.0>
4000a3fc:	e28d3008 	add	r3, sp, #8
4000a400:	e1a01000 	mov	r1, r0
4000a404:	e1a00005 	mov	r0, r5
4000a408:	ebffe4e8 	bl	400037b0 <__cxa_type_match>
4000a40c:	e2504000 	subs	r4, r0, #0
4000a410:	0a000024 	beq	4000a4a8 <__gnu_unwind_pr_common+0x29c>
4000a414:	e3a0100d 	mov	r1, #13
4000a418:	e1a00007 	mov	r0, r7
4000a41c:	ebffe189 	bl	40002a48 <_Unwind_GetGR>
4000a420:	e3540002 	cmp	r4, #2
4000a424:	01a03005 	moveq	r3, r5
4000a428:	e59d2008 	ldr	r2, [sp, #8]
4000a42c:	e5850020 	str	r0, [r5, #32]
4000a430:	15852024 	strne	r2, [r5, #36]	; 0x24
4000a434:	05a3202c 	streq	r2, [r3, #44]!	; 0x2c
4000a438:	1a000000 	bne	4000a440 <__gnu_unwind_pr_common+0x234>
4000a43c:	e5853024 	str	r3, [r5, #36]	; 0x24
4000a440:	e5856028 	str	r6, [r5, #40]	; 0x28
4000a444:	e3a00006 	mov	r0, #6
4000a448:	ea000013 	b	4000a49c <__gnu_unwind_pr_common+0x290>
4000a44c:	e3a0100d 	mov	r1, #13
4000a450:	e1a00007 	mov	r0, r7
4000a454:	e5954020 	ldr	r4, [r5, #32]
4000a458:	ebffe17a 	bl	40002a48 <_Unwind_GetGR>
4000a45c:	e1540000 	cmp	r4, r0
4000a460:	1a000010 	bne	4000a4a8 <__gnu_unwind_pr_common+0x29c>
4000a464:	e5953028 	ldr	r3, [r5, #40]	; 0x28
4000a468:	e1560003 	cmp	r6, r3
4000a46c:	1a00000d 	bne	4000a4a8 <__gnu_unwind_pr_common+0x29c>
4000a470:	e1a00006 	mov	r0, r6
4000a474:	ebfffd94 	bl	40009acc <selfrel_offset31>
4000a478:	e3a0100f 	mov	r1, #15
4000a47c:	e1a02000 	mov	r2, r0
4000a480:	e1a00007 	mov	r0, r7
4000a484:	ebffff21 	bl	4000a110 <_Unwind_SetGR>
4000a488:	e1a02005 	mov	r2, r5
4000a48c:	e3a01000 	mov	r1, #0
4000a490:	e1a00007 	mov	r0, r7
4000a494:	ebffff1d 	bl	4000a110 <_Unwind_SetGR>
4000a498:	e3a00007 	mov	r0, #7
4000a49c:	e28dd01c 	add	sp, sp, #28
4000a4a0:	e8bd4ff0 	pop	{r4, r5, r6, r7, r8, r9, sl, fp, lr}
4000a4a4:	e12fff1e 	bx	lr
4000a4a8:	e2866008 	add	r6, r6, #8
4000a4ac:	eaffff70 	b	4000a274 <__gnu_unwind_pr_common+0x68>
4000a4b0:	e5964000 	ldr	r4, [r6]
4000a4b4:	e3590000 	cmp	r9, #0
4000a4b8:	e3c44102 	bic	r4, r4, #-2147483648	; 0x80000000
4000a4bc:	1a000024 	bne	4000a554 <__gnu_unwind_pr_common+0x348>
4000a4c0:	e3500000 	cmp	r0, #0
4000a4c4:	0a000004 	beq	4000a4dc <__gnu_unwind_pr_common+0x2d0>
4000a4c8:	e59d3004 	ldr	r3, [sp, #4]
4000a4cc:	e3540000 	cmp	r4, #0
4000a4d0:	03833001 	orreq	r3, r3, #1
4000a4d4:	e3530000 	cmp	r3, #0
4000a4d8:	1a000019 	bne	4000a544 <__gnu_unwind_pr_common+0x338>
4000a4dc:	e5963000 	ldr	r3, [r6]
4000a4e0:	e3530000 	cmp	r3, #0
4000a4e4:	b2866004 	addlt	r6, r6, #4
4000a4e8:	e2844001 	add	r4, r4, #1
4000a4ec:	e0866104 	add	r6, r6, r4, lsl #2
4000a4f0:	eaffff5f 	b	4000a274 <__gnu_unwind_pr_common+0x68>
4000a4f4:	e59d3000 	ldr	r3, [sp]
4000a4f8:	e28aa001 	add	sl, sl, #1
4000a4fc:	e086010a 	add	r0, r6, sl, lsl #2
4000a500:	e58d3008 	str	r3, [sp, #8]
4000a504:	ebfffe06 	bl	40009d24 <_Unwind_decode_typeinfo_ptr.isra.0>
4000a508:	e28d3008 	add	r3, sp, #8
4000a50c:	e1a01000 	mov	r1, r0
4000a510:	e3a02000 	mov	r2, #0
4000a514:	e1a00005 	mov	r0, r5
4000a518:	ebffe4a4 	bl	400037b0 <__cxa_type_match>
4000a51c:	e3500000 	cmp	r0, #0
4000a520:	1affffed 	bne	4000a4dc <__gnu_unwind_pr_common+0x2d0>
4000a524:	e15a0004 	cmp	sl, r4
4000a528:	1afffff1 	bne	4000a4f4 <__gnu_unwind_pr_common+0x2e8>
4000a52c:	e3a0100d 	mov	r1, #13
4000a530:	e1a00007 	mov	r0, r7
4000a534:	ebffe143 	bl	40002a48 <_Unwind_GetGR>
4000a538:	e59d3008 	ldr	r3, [sp, #8]
4000a53c:	e5850020 	str	r0, [r5, #32]
4000a540:	eaffffbd 	b	4000a43c <__gnu_unwind_pr_common+0x230>
4000a544:	e2853058 	add	r3, r5, #88	; 0x58
4000a548:	e1a0a009 	mov	sl, r9
4000a54c:	e58d3000 	str	r3, [sp]
4000a550:	eafffff3 	b	4000a524 <__gnu_unwind_pr_common+0x318>
4000a554:	e3a0100d 	mov	r1, #13
4000a558:	e1a00007 	mov	r0, r7
4000a55c:	e595a020 	ldr	sl, [r5, #32]
4000a560:	ebffe138 	bl	40002a48 <_Unwind_GetGR>
4000a564:	e15a0000 	cmp	sl, r0
4000a568:	1affffdb 	bne	4000a4dc <__gnu_unwind_pr_common+0x2d0>
4000a56c:	e5953028 	ldr	r3, [r5, #40]	; 0x28
4000a570:	e1560003 	cmp	r6, r3
4000a574:	1affffd8 	bne	4000a4dc <__gnu_unwind_pr_common+0x2d0>
4000a578:	e3a03004 	mov	r3, #4
4000a57c:	e3a08000 	mov	r8, #0
4000a580:	e5853030 	str	r3, [r5, #48]	; 0x30
4000a584:	e0863003 	add	r3, r6, r3
4000a588:	e5854028 	str	r4, [r5, #40]	; 0x28
4000a58c:	e585802c 	str	r8, [r5, #44]	; 0x2c
4000a590:	e5853034 	str	r3, [r5, #52]	; 0x34
4000a594:	e5963000 	ldr	r3, [r6]
4000a598:	e1530008 	cmp	r3, r8
4000a59c:	b2840001 	addlt	r0, r4, #1
4000a5a0:	b0860100 	addlt	r0, r6, r0, lsl #2
4000a5a4:	baffffb2 	blt	4000a474 <__gnu_unwind_pr_common+0x268>
4000a5a8:	e3a08001 	mov	r8, #1
4000a5ac:	eaffffca 	b	4000a4dc <__gnu_unwind_pr_common+0x2d0>
4000a5b0:	e3a08000 	mov	r8, #0
4000a5b4:	eaffff31 	b	4000a280 <__gnu_unwind_pr_common+0x74>
4000a5b8:	e28d100c 	add	r1, sp, #12
4000a5bc:	e1a00007 	mov	r0, r7
4000a5c0:	eb0000fd 	bl	4000a9bc <__gnu_unwind_execute>
4000a5c4:	eaffff30 	b	4000a28c <__gnu_unwind_pr_common+0x80>
4000a5c8:	40003e20 	.word	0x40003e20

Disassembly of section .text.__aeabi_unwind_cpp_pr0:

4000a5cc <__aeabi_unwind_cpp_pr0>:
4000a5cc:	e3a03000 	mov	r3, #0
4000a5d0:	eaffff0d 	b	4000a20c <__gnu_unwind_pr_common>

Disassembly of section .text.__aeabi_unwind_cpp_pr1:

4000a5d4 <__aeabi_unwind_cpp_pr1>:
4000a5d4:	e3a03001 	mov	r3, #1
4000a5d8:	eaffff0b 	b	4000a20c <__gnu_unwind_pr_common>

Disassembly of section .text.__aeabi_unwind_cpp_pr2:

4000a5dc <__aeabi_unwind_cpp_pr2>:
4000a5dc:	e3a03002 	mov	r3, #2
4000a5e0:	eaffff09 	b	4000a20c <__gnu_unwind_pr_common>

Disassembly of section .text._Unwind_VRS_Pop:

4000a5e4 <_Unwind_VRS_Pop>:
4000a5e4:	e92d41f0 	push	{r4, r5, r6, r7, r8, lr}
4000a5e8:	e1a05000 	mov	r5, r0
4000a5ec:	e24ddf42 	sub	sp, sp, #264	; 0x108
4000a5f0:	e1a04002 	mov	r4, r2
4000a5f4:	e3510004 	cmp	r1, #4
4000a5f8:	979ff101 	ldrls	pc, [pc, r1, lsl #2]
4000a5fc:	ea000027 	b	4000a6a0 <_Unwind_VRS_Pop+0xbc>
4000a600:	4000a614 	.word	0x4000a614
4000a604:	4000a664 	.word	0x4000a664
4000a608:	4000a6a0 	.word	0x4000a6a0
4000a60c:	4000a7fc 	.word	0x4000a7fc
4000a610:	4000a870 	.word	0x4000a870
4000a614:	e3530000 	cmp	r3, #0
4000a618:	1a000020 	bne	4000a6a0 <_Unwind_VRS_Pop+0xbc>
4000a61c:	e3a03001 	mov	r3, #1
4000a620:	e1a01802 	lsl	r1, r2, #16
4000a624:	e5902038 	ldr	r2, [r0, #56]	; 0x38
4000a628:	e1a00003 	mov	r0, r3
4000a62c:	e1a01821 	lsr	r1, r1, #16
4000a630:	e243c001 	sub	ip, r3, #1
4000a634:	e011cc10 	ands	ip, r1, r0, lsl ip
4000a638:	1592c000 	ldrne	ip, [r2]
4000a63c:	1785c103 	strne	ip, [r5, r3, lsl #2]
4000a640:	e2833001 	add	r3, r3, #1
4000a644:	12822004 	addne	r2, r2, #4
4000a648:	e3530011 	cmp	r3, #17
4000a64c:	1afffff7 	bne	4000a630 <_Unwind_VRS_Pop+0x4c>
4000a650:	e2140a02 	ands	r0, r4, #8192	; 0x2000
4000a654:	05852038 	streq	r2, [r5, #56]	; 0x38
4000a658:	0a000011 	beq	4000a6a4 <_Unwind_VRS_Pop+0xc0>
4000a65c:	e3a00000 	mov	r0, #0
4000a660:	ea00000f 	b	4000a6a4 <_Unwind_VRS_Pop+0xc0>
4000a664:	e20320fb 	and	r2, r3, #251	; 0xfb
4000a668:	e3520001 	cmp	r2, #1
4000a66c:	1a00000b 	bne	4000a6a0 <_Unwind_VRS_Pop+0xbc>
4000a670:	e1a07824 	lsr	r7, r4, #16
4000a674:	e1a04804 	lsl	r4, r4, #16
4000a678:	e1a04824 	lsr	r4, r4, #16
4000a67c:	e3530001 	cmp	r3, #1
4000a680:	e0876004 	add	r6, r7, r4
4000a684:	1a000092 	bne	4000a8d4 <_Unwind_VRS_Pop+0x2f0>
4000a688:	e3560010 	cmp	r6, #16
4000a68c:	8a000003 	bhi	4000a6a0 <_Unwind_VRS_Pop+0xbc>
4000a690:	e357000f 	cmp	r7, #15
4000a694:	91a08003 	movls	r8, r3
4000a698:	93a06000 	movls	r6, #0
4000a69c:	9a000005 	bls	4000a6b8 <_Unwind_VRS_Pop+0xd4>
4000a6a0:	e3a00002 	mov	r0, #2
4000a6a4:	e28ddf42 	add	sp, sp, #264	; 0x108
4000a6a8:	e8bd41f0 	pop	{r4, r5, r6, r7, r8, lr}
4000a6ac:	e12fff1e 	bx	lr
4000a6b0:	e1a06004 	mov	r6, r4
4000a6b4:	e3a08000 	mov	r8, #0
4000a6b8:	e3530005 	cmp	r3, #5
4000a6bc:	13560000 	cmpne	r6, #0
4000a6c0:	1afffff6 	bne	4000a6a0 <_Unwind_VRS_Pop+0xbc>
4000a6c4:	e357000f 	cmp	r7, #15
4000a6c8:	8a00000a 	bhi	4000a6f8 <_Unwind_VRS_Pop+0x114>
4000a6cc:	e5952000 	ldr	r2, [r5]
4000a6d0:	e3120001 	tst	r2, #1
4000a6d4:	0a000007 	beq	4000a6f8 <_Unwind_VRS_Pop+0x114>
4000a6d8:	e1a00005 	mov	r0, r5
4000a6dc:	e3c21001 	bic	r1, r2, #1
4000a6e0:	e3530005 	cmp	r3, #5
4000a6e4:	e4801048 	str	r1, [r0], #72	; 0x48
4000a6e8:	1a000031 	bne	4000a7b4 <_Unwind_VRS_Pop+0x1d0>
4000a6ec:	e3811002 	orr	r1, r1, #2
4000a6f0:	e5851000 	str	r1, [r5]
4000a6f4:	ebffdb8a 	bl	40001524 <__gnu_Unwind_Save_VFP_D>
4000a6f8:	e3560000 	cmp	r6, #0
4000a6fc:	0a00007e 	beq	4000a8fc <_Unwind_VRS_Pop+0x318>
4000a700:	e5953000 	ldr	r3, [r5]
4000a704:	e3130004 	tst	r3, #4
4000a708:	11a00005 	movne	r0, r5
4000a70c:	13c33004 	bicne	r3, r3, #4
4000a710:	148030d0 	strne	r3, [r0], #208	; 0xd0
4000a714:	1bffdb86 	blne	40001534 <__gnu_Unwind_Save_VFP_D_16_to_31>
4000a718:	e3580000 	cmp	r8, #0
4000a71c:	1a00007b 	bne	4000a910 <_Unwind_VRS_Pop+0x32c>
4000a720:	e357000f 	cmp	r7, #15
4000a724:	8a000003 	bhi	4000a738 <_Unwind_VRS_Pop+0x154>
4000a728:	e28d0080 	add	r0, sp, #128	; 0x80
4000a72c:	ebffdb7c 	bl	40001524 <__gnu_Unwind_Save_VFP_D>
4000a730:	e3560000 	cmp	r6, #0
4000a734:	0a000002 	beq	4000a744 <_Unwind_VRS_Pop+0x160>
4000a738:	e1a0000d 	mov	r0, sp
4000a73c:	ebffdb7c 	bl	40001534 <__gnu_Unwind_Save_VFP_D_16_to_31>
4000a740:	e2674010 	rsb	r4, r7, #16
4000a744:	e3540000 	cmp	r4, #0
4000a748:	e5953038 	ldr	r3, [r5, #56]	; 0x38
4000a74c:	da000005 	ble	4000a768 <_Unwind_VRS_Pop+0x184>
4000a750:	e28d2f42 	add	r2, sp, #264	; 0x108
4000a754:	e0822187 	add	r2, r2, r7, lsl #3
4000a758:	e242208c 	sub	r2, r2, #140	; 0x8c
4000a75c:	e0834184 	add	r4, r3, r4, lsl #3
4000a760:	e1530004 	cmp	r3, r4
4000a764:	1a000016 	bne	4000a7c4 <_Unwind_VRS_Pop+0x1e0>
4000a768:	e3560000 	cmp	r6, #0
4000a76c:	0a000008 	beq	4000a794 <_Unwind_VRS_Pop+0x1b0>
4000a770:	e3570010 	cmp	r7, #16
4000a774:	21a02007 	movcs	r2, r7
4000a778:	33a02010 	movcc	r2, #16
4000a77c:	e28d1f42 	add	r1, sp, #264	; 0x108
4000a780:	e0812182 	add	r2, r1, r2, lsl #3
4000a784:	e2422f63 	sub	r2, r2, #396	; 0x18c
4000a788:	e0831186 	add	r1, r3, r6, lsl #3
4000a78c:	e1530001 	cmp	r3, r1
4000a790:	1a00000e 	bne	4000a7d0 <_Unwind_VRS_Pop+0x1ec>
4000a794:	e3580000 	cmp	r8, #0
4000a798:	12833004 	addne	r3, r3, #4
4000a79c:	e3580000 	cmp	r8, #0
4000a7a0:	e5853038 	str	r3, [r5, #56]	; 0x38
4000a7a4:	0a00000c 	beq	4000a7dc <_Unwind_VRS_Pop+0x1f8>
4000a7a8:	e28d0080 	add	r0, sp, #128	; 0x80
4000a7ac:	ebffdb56 	bl	4000150c <__gnu_Unwind_Restore_VFP>
4000a7b0:	eaffffa9 	b	4000a65c <_Unwind_VRS_Pop+0x78>
4000a7b4:	e3c22003 	bic	r2, r2, #3
4000a7b8:	e5852000 	str	r2, [r5]
4000a7bc:	ebffdb54 	bl	40001514 <__gnu_Unwind_Save_VFP>
4000a7c0:	eaffffcc 	b	4000a6f8 <_Unwind_VRS_Pop+0x114>
4000a7c4:	e4931004 	ldr	r1, [r3], #4
4000a7c8:	e5a21004 	str	r1, [r2, #4]!
4000a7cc:	eaffffe3 	b	4000a760 <_Unwind_VRS_Pop+0x17c>
4000a7d0:	e4930004 	ldr	r0, [r3], #4
4000a7d4:	e5a20004 	str	r0, [r2, #4]!
4000a7d8:	eaffffeb 	b	4000a78c <_Unwind_VRS_Pop+0x1a8>
4000a7dc:	e357000f 	cmp	r7, #15
4000a7e0:	928d0080 	addls	r0, sp, #128	; 0x80
4000a7e4:	9bffdb4c 	blls	4000151c <__gnu_Unwind_Restore_VFP_D>
4000a7e8:	e3560000 	cmp	r6, #0
4000a7ec:	0affff9a 	beq	4000a65c <_Unwind_VRS_Pop+0x78>
4000a7f0:	e1a0000d 	mov	r0, sp
4000a7f4:	ebffdb4c 	bl	4000152c <__gnu_Unwind_Restore_VFP_D_16_to_31>
4000a7f8:	eaffff97 	b	4000a65c <_Unwind_VRS_Pop+0x78>
4000a7fc:	e3530003 	cmp	r3, #3
4000a800:	1affffa6 	bne	4000a6a0 <_Unwind_VRS_Pop+0xbc>
4000a804:	e1a04802 	lsl	r4, r2, #16
4000a808:	e1a06822 	lsr	r6, r2, #16
4000a80c:	e1a04824 	lsr	r4, r4, #16
4000a810:	e0863004 	add	r3, r6, r4
4000a814:	e3530010 	cmp	r3, #16
4000a818:	8affffa0 	bhi	4000a6a0 <_Unwind_VRS_Pop+0xbc>
4000a81c:	e5903000 	ldr	r3, [r0]
4000a820:	e3130008 	tst	r3, #8
4000a824:	13c33008 	bicne	r3, r3, #8
4000a828:	14803150 	strne	r3, [r0], #336	; 0x150
4000a82c:	1bffdb53 	blne	40001580 <__gnu_Unwind_Save_WMMXD>
4000a830:	e28d0080 	add	r0, sp, #128	; 0x80
4000a834:	ebffdb51 	bl	40001580 <__gnu_Unwind_Save_WMMXD>
4000a838:	e5953038 	ldr	r3, [r5, #56]	; 0x38
4000a83c:	e28d2080 	add	r2, sp, #128	; 0x80
4000a840:	e0826186 	add	r6, r2, r6, lsl #3
4000a844:	e2466004 	sub	r6, r6, #4
4000a848:	e0834184 	add	r4, r3, r4, lsl #3
4000a84c:	e1530004 	cmp	r3, r4
4000a850:	1a000003 	bne	4000a864 <_Unwind_VRS_Pop+0x280>
4000a854:	e5853038 	str	r3, [r5, #56]	; 0x38
4000a858:	e28d0080 	add	r0, sp, #128	; 0x80
4000a85c:	ebffdb36 	bl	4000153c <__gnu_Unwind_Restore_WMMXD>
4000a860:	eaffff7d 	b	4000a65c <_Unwind_VRS_Pop+0x78>
4000a864:	e4932004 	ldr	r2, [r3], #4
4000a868:	e5a62004 	str	r2, [r6, #4]!
4000a86c:	eafffff6 	b	4000a84c <_Unwind_VRS_Pop+0x268>
4000a870:	e3520010 	cmp	r2, #16
4000a874:	93530000 	cmpls	r3, #0
4000a878:	1affff88 	bne	4000a6a0 <_Unwind_VRS_Pop+0xbc>
4000a87c:	e5903000 	ldr	r3, [r0]
4000a880:	e3130010 	tst	r3, #16
4000a884:	13c33010 	bicne	r3, r3, #16
4000a888:	148031d0 	strne	r3, [r0], #464	; 0x1d0
4000a88c:	1bffdb51 	blne	400015d8 <__gnu_Unwind_Save_WMMXC>
4000a890:	e28d6080 	add	r6, sp, #128	; 0x80
4000a894:	e1a00006 	mov	r0, r6
4000a898:	ebffdb4e 	bl	400015d8 <__gnu_Unwind_Save_WMMXC>
4000a89c:	e3a03000 	mov	r3, #0
4000a8a0:	e3a01001 	mov	r1, #1
4000a8a4:	e5952038 	ldr	r2, [r5, #56]	; 0x38
4000a8a8:	e0140311 	ands	r0, r4, r1, lsl r3
4000a8ac:	15920000 	ldrne	r0, [r2]
4000a8b0:	17860103 	strne	r0, [r6, r3, lsl #2]
4000a8b4:	e2833001 	add	r3, r3, #1
4000a8b8:	12822004 	addne	r2, r2, #4
4000a8bc:	e3530004 	cmp	r3, #4
4000a8c0:	1afffff8 	bne	4000a8a8 <_Unwind_VRS_Pop+0x2c4>
4000a8c4:	e5852038 	str	r2, [r5, #56]	; 0x38
4000a8c8:	e1a00006 	mov	r0, r6
4000a8cc:	ebffdb3c 	bl	400015c4 <__gnu_Unwind_Restore_WMMXC>
4000a8d0:	eaffff61 	b	4000a65c <_Unwind_VRS_Pop+0x78>
4000a8d4:	e3560020 	cmp	r6, #32
4000a8d8:	8affff70 	bhi	4000a6a0 <_Unwind_VRS_Pop+0xbc>
4000a8dc:	e357000f 	cmp	r7, #15
4000a8e0:	8affff72 	bhi	4000a6b0 <_Unwind_VRS_Pop+0xcc>
4000a8e4:	e3560010 	cmp	r6, #16
4000a8e8:	93a08000 	movls	r8, #0
4000a8ec:	91a06008 	movls	r6, r8
4000a8f0:	9affff70 	bls	4000a6b8 <_Unwind_VRS_Pop+0xd4>
4000a8f4:	e2466010 	sub	r6, r6, #16
4000a8f8:	eaffff6d 	b	4000a6b4 <_Unwind_VRS_Pop+0xd0>
4000a8fc:	e3580000 	cmp	r8, #0
4000a900:	0a000005 	beq	4000a91c <_Unwind_VRS_Pop+0x338>
4000a904:	e28d0080 	add	r0, sp, #128	; 0x80
4000a908:	ebffdb01 	bl	40001514 <__gnu_Unwind_Save_VFP>
4000a90c:	eaffff8c 	b	4000a744 <_Unwind_VRS_Pop+0x160>
4000a910:	e28d0080 	add	r0, sp, #128	; 0x80
4000a914:	ebffdafe 	bl	40001514 <__gnu_Unwind_Save_VFP>
4000a918:	eaffff88 	b	4000a740 <_Unwind_VRS_Pop+0x15c>
4000a91c:	e357000f 	cmp	r7, #15
4000a920:	8affff87 	bhi	4000a744 <_Unwind_VRS_Pop+0x160>
4000a924:	eaffff7f 	b	4000a728 <_Unwind_VRS_Pop+0x144>

Disassembly of section .text.next_unwind_byte:

4000a928 <next_unwind_byte>:
4000a928:	e5d02008 	ldrb	r2, [r0, #8]
4000a92c:	e3520000 	cmp	r2, #0
4000a930:	e1a03000 	mov	r3, r0
4000a934:	1a000010 	bne	4000a97c <next_unwind_byte+0x54>
4000a938:	e5d02009 	ldrb	r2, [r0, #9]
4000a93c:	e3520000 	cmp	r2, #0
4000a940:	0a00000f 	beq	4000a984 <next_unwind_byte+0x5c>
4000a944:	e2422001 	sub	r2, r2, #1
4000a948:	e5c02009 	strb	r2, [r0, #9]
4000a94c:	e5902004 	ldr	r2, [r0, #4]
4000a950:	e2821004 	add	r1, r2, #4
4000a954:	e5922000 	ldr	r2, [r2]
4000a958:	e5802000 	str	r2, [r0]
4000a95c:	e3a02003 	mov	r2, #3
4000a960:	e5801004 	str	r1, [r0, #4]
4000a964:	e5c32008 	strb	r2, [r3, #8]
4000a968:	e5932000 	ldr	r2, [r3]
4000a96c:	e1a00c22 	lsr	r0, r2, #24
4000a970:	e1a02402 	lsl	r2, r2, #8
4000a974:	e5832000 	str	r2, [r3]
4000a978:	e12fff1e 	bx	lr
4000a97c:	e2422001 	sub	r2, r2, #1
4000a980:	eafffff7 	b	4000a964 <next_unwind_byte+0x3c>
4000a984:	e3a000b0 	mov	r0, #176	; 0xb0
4000a988:	e12fff1e 	bx	lr

Disassembly of section .text._Unwind_GetGR.constprop.0:

4000a98c <_Unwind_GetGR.constprop.0>:
4000a98c:	e92d401f 	push	{r0, r1, r2, r3, r4, lr}
4000a990:	e28d300c 	add	r3, sp, #12
4000a994:	e58d3000 	str	r3, [sp]
4000a998:	e3a03000 	mov	r3, #0
4000a99c:	e3a0200c 	mov	r2, #12
4000a9a0:	e1a01003 	mov	r1, r3
4000a9a4:	ebfffdab 	bl	4000a058 <_Unwind_VRS_Get>
4000a9a8:	e59d000c 	ldr	r0, [sp, #12]
4000a9ac:	e28dd014 	add	sp, sp, #20
4000a9b0:	e49de004 	pop	{lr}		; (ldr lr, [sp], #4)
4000a9b4:	e12fff1e 	bx	lr

Disassembly of section .text.unwind_UCB_from_context:

4000a9b8 <unwind_UCB_from_context>:
4000a9b8:	eafffff3 	b	4000a98c <_Unwind_GetGR.constprop.0>

Disassembly of section .text.__gnu_unwind_execute:

4000a9bc <__gnu_unwind_execute>:
4000a9bc:	e92d4ff0 	push	{r4, r5, r6, r7, r8, r9, sl, fp, lr}
4000a9c0:	e1a05000 	mov	r5, r0
4000a9c4:	e1a07001 	mov	r7, r1
4000a9c8:	e3a06000 	mov	r6, #0
4000a9cc:	e3a09eff 	mov	r9, #4080	; 0xff0
4000a9d0:	e24dd014 	sub	sp, sp, #20
4000a9d4:	e59fa348 	ldr	sl, [pc, #840]	; 4000ad24 <__gnu_unwind_execute+0x368>
4000a9d8:	e28d800c 	add	r8, sp, #12
4000a9dc:	e1a00007 	mov	r0, r7
4000a9e0:	ebffffd0 	bl	4000a928 <next_unwind_byte>
4000a9e4:	e35000b0 	cmp	r0, #176	; 0xb0
4000a9e8:	e1a04000 	mov	r4, r0
4000a9ec:	1a000010 	bne	4000aa34 <__gnu_unwind_execute+0x78>
4000a9f0:	e3560000 	cmp	r6, #0
4000a9f4:	1a00000c 	bne	4000aa2c <__gnu_unwind_execute+0x70>
4000a9f8:	e28d400c 	add	r4, sp, #12
4000a9fc:	e1a03006 	mov	r3, r6
4000aa00:	e3a0200e 	mov	r2, #14
4000aa04:	e1a01006 	mov	r1, r6
4000aa08:	e58d4000 	str	r4, [sp]
4000aa0c:	e1a00005 	mov	r0, r5
4000aa10:	ebfffd90 	bl	4000a058 <_Unwind_VRS_Get>
4000aa14:	e58d4000 	str	r4, [sp]
4000aa18:	e1a03006 	mov	r3, r6
4000aa1c:	e3a0200f 	mov	r2, #15
4000aa20:	e1a01006 	mov	r1, r6
4000aa24:	e1a00005 	mov	r0, r5
4000aa28:	ebfffda1 	bl	4000a0b4 <_Unwind_VRS_Set>
4000aa2c:	e3a00000 	mov	r0, #0
4000aa30:	ea000020 	b	4000aab8 <__gnu_unwind_execute+0xfc>
4000aa34:	e3100080 	tst	r0, #128	; 0x80
4000aa38:	1a000014 	bne	4000aa90 <__gnu_unwind_execute+0xd4>
4000aa3c:	e3a03000 	mov	r3, #0
4000aa40:	e1a0b100 	lsl	fp, r0, #2
4000aa44:	e1a01003 	mov	r1, r3
4000aa48:	e58d8000 	str	r8, [sp]
4000aa4c:	e3a0200d 	mov	r2, #13
4000aa50:	e1a00005 	mov	r0, r5
4000aa54:	ebfffd7f 	bl	4000a058 <_Unwind_VRS_Get>
4000aa58:	e20bb0ff 	and	fp, fp, #255	; 0xff
4000aa5c:	e59d300c 	ldr	r3, [sp, #12]
4000aa60:	e28bb004 	add	fp, fp, #4
4000aa64:	e3140040 	tst	r4, #64	; 0x40
4000aa68:	1043b00b 	subne	fp, r3, fp
4000aa6c:	0083b00b 	addeq	fp, r3, fp
4000aa70:	e58db00c 	str	fp, [sp, #12]
4000aa74:	e3a03000 	mov	r3, #0
4000aa78:	e58d8000 	str	r8, [sp]
4000aa7c:	e3a0200d 	mov	r2, #13
4000aa80:	e1a01003 	mov	r1, r3
4000aa84:	e1a00005 	mov	r0, r5
4000aa88:	ebfffd89 	bl	4000a0b4 <_Unwind_VRS_Set>
4000aa8c:	eaffffd2 	b	4000a9dc <__gnu_unwind_execute+0x20>
4000aa90:	e20030f0 	and	r3, r0, #240	; 0xf0
4000aa94:	e3530080 	cmp	r3, #128	; 0x80
4000aa98:	1a000014 	bne	4000aaf0 <__gnu_unwind_execute+0x134>
4000aa9c:	e1a04400 	lsl	r4, r0, #8
4000aaa0:	e1a00007 	mov	r0, r7
4000aaa4:	ebffff9f 	bl	4000a928 <next_unwind_byte>
4000aaa8:	e1804004 	orr	r4, r0, r4
4000aaac:	e3540902 	cmp	r4, #32768	; 0x8000
4000aab0:	1a000003 	bne	4000aac4 <__gnu_unwind_execute+0x108>
4000aab4:	e3a00009 	mov	r0, #9
4000aab8:	e28dd014 	add	sp, sp, #20
4000aabc:	e8bd4ff0 	pop	{r4, r5, r6, r7, r8, r9, sl, fp, lr}
4000aac0:	e12fff1e 	bx	lr
4000aac4:	e3a03000 	mov	r3, #0
4000aac8:	e1a04204 	lsl	r4, r4, #4
4000aacc:	e004200a 	and	r2, r4, sl
4000aad0:	e1a01003 	mov	r1, r3
4000aad4:	e1a00005 	mov	r0, r5
4000aad8:	ebfffec1 	bl	4000a5e4 <_Unwind_VRS_Pop>
4000aadc:	e3500000 	cmp	r0, #0
4000aae0:	1afffff3 	bne	4000aab4 <__gnu_unwind_execute+0xf8>
4000aae4:	e3140902 	tst	r4, #32768	; 0x8000
4000aae8:	13a06001 	movne	r6, #1
4000aaec:	eaffffba 	b	4000a9dc <__gnu_unwind_execute+0x20>
4000aaf0:	e3530090 	cmp	r3, #144	; 0x90
4000aaf4:	1a000009 	bne	4000ab20 <__gnu_unwind_execute+0x164>
4000aaf8:	e200300d 	and	r3, r0, #13
4000aafc:	e353000d 	cmp	r3, #13
4000ab00:	0affffeb 	beq	4000aab4 <__gnu_unwind_execute+0xf8>
4000ab04:	e3a03000 	mov	r3, #0
4000ab08:	e200200f 	and	r2, r0, #15
4000ab0c:	e58d8000 	str	r8, [sp]
4000ab10:	e1a01003 	mov	r1, r3
4000ab14:	e1a00005 	mov	r0, r5
4000ab18:	ebfffd4e 	bl	4000a058 <_Unwind_VRS_Get>
4000ab1c:	eaffffd4 	b	4000aa74 <__gnu_unwind_execute+0xb8>
4000ab20:	e35300a0 	cmp	r3, #160	; 0xa0
4000ab24:	1a000008 	bne	4000ab4c <__gnu_unwind_execute+0x190>
4000ab28:	e1e02000 	mvn	r2, r0
4000ab2c:	e3a03000 	mov	r3, #0
4000ab30:	e2022007 	and	r2, r2, #7
4000ab34:	e1a02259 	asr	r2, r9, r2
4000ab38:	e2022eff 	and	r2, r2, #4080	; 0xff0
4000ab3c:	e3100008 	tst	r0, #8
4000ab40:	13822901 	orrne	r2, r2, #16384	; 0x4000
4000ab44:	e1a01003 	mov	r1, r3
4000ab48:	ea00004c 	b	4000ac80 <__gnu_unwind_execute+0x2c4>
4000ab4c:	e35300b0 	cmp	r3, #176	; 0xb0
4000ab50:	1a000034 	bne	4000ac28 <__gnu_unwind_execute+0x26c>
4000ab54:	e35000b1 	cmp	r0, #177	; 0xb1
4000ab58:	1a000006 	bne	4000ab78 <__gnu_unwind_execute+0x1bc>
4000ab5c:	e1a00007 	mov	r0, r7
4000ab60:	ebffff70 	bl	4000a928 <next_unwind_byte>
4000ab64:	e2502000 	subs	r2, r0, #0
4000ab68:	0affffd1 	beq	4000aab4 <__gnu_unwind_execute+0xf8>
4000ab6c:	e21230f0 	ands	r3, r2, #240	; 0xf0
4000ab70:	0afffff3 	beq	4000ab44 <__gnu_unwind_execute+0x188>
4000ab74:	eaffffce 	b	4000aab4 <__gnu_unwind_execute+0xf8>
4000ab78:	e35000b2 	cmp	r0, #178	; 0xb2
4000ab7c:	1a000016 	bne	4000abdc <__gnu_unwind_execute+0x220>
4000ab80:	e3a03000 	mov	r3, #0
4000ab84:	e3a0200d 	mov	r2, #13
4000ab88:	e1a01003 	mov	r1, r3
4000ab8c:	e58d8000 	str	r8, [sp]
4000ab90:	e1a00005 	mov	r0, r5
4000ab94:	ebfffd2f 	bl	4000a058 <_Unwind_VRS_Get>
4000ab98:	e1a00007 	mov	r0, r7
4000ab9c:	ebffff61 	bl	4000a928 <next_unwind_byte>
4000aba0:	e3a04002 	mov	r4, #2
4000aba4:	e2103080 	ands	r3, r0, #128	; 0x80
4000aba8:	e59d200c 	ldr	r2, [sp, #12]
4000abac:	e200007f 	and	r0, r0, #127	; 0x7f
4000abb0:	02822f81 	addeq	r2, r2, #516	; 0x204
4000abb4:	00822410 	addeq	r2, r2, r0, lsl r4
4000abb8:	058d200c 	streq	r2, [sp, #12]
4000abbc:	058d8000 	streq	r8, [sp]
4000abc0:	0affffad 	beq	4000aa7c <__gnu_unwind_execute+0xc0>
4000abc4:	e0822410 	add	r2, r2, r0, lsl r4
4000abc8:	e1a00007 	mov	r0, r7
4000abcc:	e58d200c 	str	r2, [sp, #12]
4000abd0:	e2844007 	add	r4, r4, #7
4000abd4:	ebffff53 	bl	4000a928 <next_unwind_byte>
4000abd8:	eafffff1 	b	4000aba4 <__gnu_unwind_execute+0x1e8>
4000abdc:	e35000b3 	cmp	r0, #179	; 0xb3
4000abe0:	1a000008 	bne	4000ac08 <__gnu_unwind_execute+0x24c>
4000abe4:	e1a00007 	mov	r0, r7
4000abe8:	ebffff4e 	bl	4000a928 <next_unwind_byte>
4000abec:	e3a03001 	mov	r3, #1
4000abf0:	e1a02600 	lsl	r2, r0, #12
4000abf4:	e200000f 	and	r0, r0, #15
4000abf8:	e202280f 	and	r2, r2, #983040	; 0xf0000
4000abfc:	e2800001 	add	r0, r0, #1
4000ac00:	e1802002 	orr	r2, r0, r2
4000ac04:	ea000033 	b	4000acd8 <__gnu_unwind_execute+0x31c>
4000ac08:	e20030fc 	and	r3, r0, #252	; 0xfc
4000ac0c:	e35300b4 	cmp	r3, #180	; 0xb4
4000ac10:	0affffa7 	beq	4000aab4 <__gnu_unwind_execute+0xf8>
4000ac14:	e3a03001 	mov	r3, #1
4000ac18:	e2002007 	and	r2, r0, #7
4000ac1c:	e2822001 	add	r2, r2, #1
4000ac20:	e3822702 	orr	r2, r2, #524288	; 0x80000
4000ac24:	ea00002b 	b	4000acd8 <__gnu_unwind_execute+0x31c>
4000ac28:	e35300c0 	cmp	r3, #192	; 0xc0
4000ac2c:	1a000035 	bne	4000ad08 <__gnu_unwind_execute+0x34c>
4000ac30:	e35000c6 	cmp	r0, #198	; 0xc6
4000ac34:	1a000008 	bne	4000ac5c <__gnu_unwind_execute+0x2a0>
4000ac38:	e1a00007 	mov	r0, r7
4000ac3c:	ebffff39 	bl	4000a928 <next_unwind_byte>
4000ac40:	e1a02600 	lsl	r2, r0, #12
4000ac44:	e200000f 	and	r0, r0, #15
4000ac48:	e202280f 	and	r2, r2, #983040	; 0xf0000
4000ac4c:	e2800001 	add	r0, r0, #1
4000ac50:	e3a03003 	mov	r3, #3
4000ac54:	e1802002 	orr	r2, r0, r2
4000ac58:	eaffffb9 	b	4000ab44 <__gnu_unwind_execute+0x188>
4000ac5c:	e35000c7 	cmp	r0, #199	; 0xc7
4000ac60:	1a00000b 	bne	4000ac94 <__gnu_unwind_execute+0x2d8>
4000ac64:	e1a00007 	mov	r0, r7
4000ac68:	ebffff2e 	bl	4000a928 <next_unwind_byte>
4000ac6c:	e2502000 	subs	r2, r0, #0
4000ac70:	0affff8f 	beq	4000aab4 <__gnu_unwind_execute+0xf8>
4000ac74:	e21230f0 	ands	r3, r2, #240	; 0xf0
4000ac78:	1affff8d 	bne	4000aab4 <__gnu_unwind_execute+0xf8>
4000ac7c:	e3a01004 	mov	r1, #4
4000ac80:	e1a00005 	mov	r0, r5
4000ac84:	ebfffe56 	bl	4000a5e4 <_Unwind_VRS_Pop>
4000ac88:	e3500000 	cmp	r0, #0
4000ac8c:	1affff88 	bne	4000aab4 <__gnu_unwind_execute+0xf8>
4000ac90:	eaffff51 	b	4000a9dc <__gnu_unwind_execute+0x20>
4000ac94:	e20030f8 	and	r3, r0, #248	; 0xf8
4000ac98:	e35300c0 	cmp	r3, #192	; 0xc0
4000ac9c:	0200200f 	andeq	r2, r0, #15
4000aca0:	02822001 	addeq	r2, r2, #1
4000aca4:	03a03003 	moveq	r3, #3
4000aca8:	0382280a 	orreq	r2, r2, #655360	; 0xa0000
4000acac:	0affffa4 	beq	4000ab44 <__gnu_unwind_execute+0x188>
4000acb0:	e35000c8 	cmp	r0, #200	; 0xc8
4000acb4:	1a000009 	bne	4000ace0 <__gnu_unwind_execute+0x324>
4000acb8:	e1a00007 	mov	r0, r7
4000acbc:	ebffff19 	bl	4000a928 <next_unwind_byte>
4000acc0:	e3a03005 	mov	r3, #5
4000acc4:	e20020f0 	and	r2, r0, #240	; 0xf0
4000acc8:	e200000f 	and	r0, r0, #15
4000accc:	e2822010 	add	r2, r2, #16
4000acd0:	e2800001 	add	r0, r0, #1
4000acd4:	e1802602 	orr	r2, r0, r2, lsl #12
4000acd8:	e3a01001 	mov	r1, #1
4000acdc:	eaffffe7 	b	4000ac80 <__gnu_unwind_execute+0x2c4>
4000ace0:	e35000c9 	cmp	r0, #201	; 0xc9
4000ace4:	1affff72 	bne	4000aab4 <__gnu_unwind_execute+0xf8>
4000ace8:	e1a00007 	mov	r0, r7
4000acec:	ebffff0d 	bl	4000a928 <next_unwind_byte>
4000acf0:	e1a02600 	lsl	r2, r0, #12
4000acf4:	e200000f 	and	r0, r0, #15
4000acf8:	e202280f 	and	r2, r2, #983040	; 0xf0000
4000acfc:	e2800001 	add	r0, r0, #1
4000ad00:	e3a03005 	mov	r3, #5
4000ad04:	eaffffbd 	b	4000ac00 <__gnu_unwind_execute+0x244>
4000ad08:	e20030f8 	and	r3, r0, #248	; 0xf8
4000ad0c:	e35300d0 	cmp	r3, #208	; 0xd0
4000ad10:	1affff67 	bne	4000aab4 <__gnu_unwind_execute+0xf8>
4000ad14:	e2002007 	and	r2, r0, #7
4000ad18:	e2822001 	add	r2, r2, #1
4000ad1c:	e3a03005 	mov	r3, #5
4000ad20:	eaffffbe 	b	4000ac20 <__gnu_unwind_execute+0x264>
4000ad24:	0000ffff 	.word	0x0000ffff

Disassembly of section .text.__gnu_unwind_frame:

4000ad28 <__gnu_unwind_frame>:
4000ad28:	e92d401f 	push	{r0, r1, r2, r3, r4, lr}
4000ad2c:	e590304c 	ldr	r3, [r0, #76]	; 0x4c
4000ad30:	e5932004 	ldr	r2, [r3, #4]
4000ad34:	e1a02402 	lsl	r2, r2, #8
4000ad38:	e58d2004 	str	r2, [sp, #4]
4000ad3c:	e2832008 	add	r2, r3, #8
4000ad40:	e58d2008 	str	r2, [sp, #8]
4000ad44:	e3a02003 	mov	r2, #3
4000ad48:	e1a0c001 	mov	ip, r1
4000ad4c:	e5cd200c 	strb	r2, [sp, #12]
4000ad50:	e5d33007 	ldrb	r3, [r3, #7]
4000ad54:	e28d1004 	add	r1, sp, #4
4000ad58:	e1a0000c 	mov	r0, ip
4000ad5c:	e5cd300d 	strb	r3, [sp, #13]
4000ad60:	ebffff15 	bl	4000a9bc <__gnu_unwind_execute>
4000ad64:	e28dd014 	add	sp, sp, #20
4000ad68:	e49de004 	pop	{lr}		; (ldr lr, [sp], #4)
4000ad6c:	e12fff1e 	bx	lr

Disassembly of section .text._Unwind_GetRegionStart:

4000ad70 <_Unwind_GetRegionStart>:
4000ad70:	e92d4010 	push	{r4, lr}
4000ad74:	ebffff0f 	bl	4000a9b8 <unwind_UCB_from_context>
4000ad78:	e8bd4010 	pop	{r4, lr}
4000ad7c:	e5900048 	ldr	r0, [r0, #72]	; 0x48
4000ad80:	e12fff1e 	bx	lr

Disassembly of section .text._Unwind_GetLanguageSpecificData:

4000ad84 <_Unwind_GetLanguageSpecificData>:
4000ad84:	e92d4010 	push	{r4, lr}
4000ad88:	ebffff0a 	bl	4000a9b8 <unwind_UCB_from_context>
4000ad8c:	e590004c 	ldr	r0, [r0, #76]	; 0x4c
4000ad90:	e5d03007 	ldrb	r3, [r0, #7]
4000ad94:	e0800103 	add	r0, r0, r3, lsl #2
4000ad98:	e2800008 	add	r0, r0, #8
4000ad9c:	e8bd4010 	pop	{r4, lr}
4000ada0:	e12fff1e 	bx	lr

Disassembly of section .text._Unwind_GetTextRelBase:

4000ada4 <_Unwind_GetTextRelBase>:
4000ada4:	e92d4010 	push	{r4, lr}
4000ada8:	eb000001 	bl	4000adb4 <abort>

Disassembly of section .text._Unwind_GetDataRelBase:

4000adac <_Unwind_GetDataRelBase>:
4000adac:	e92d4010 	push	{r4, lr}
4000adb0:	ebfffffb 	bl	4000ada4 <_Unwind_GetTextRelBase>

Disassembly of section .text.abort:

4000adb4 <abort>:
4000adb4:	e92d4010 	push	{r4, lr}
4000adb8:	e3a00006 	mov	r0, #6
4000adbc:	eb000784 	bl	4000cbd4 <raise>
4000adc0:	e3a00001 	mov	r0, #1
4000adc4:	ebffd811 	bl	40000e10 <_exit>

Disassembly of section .text.atexit:

4000adc8 <atexit>:
4000adc8:	e3a03000 	mov	r3, #0
4000adcc:	e92d4010 	push	{r4, lr}
4000add0:	e1a01000 	mov	r1, r0
4000add4:	e1a02003 	mov	r2, r3
4000add8:	e1a00003 	mov	r0, r3
4000addc:	eb0019b8 	bl	400114c4 <__register_exitproc>
4000ade0:	e8bd4010 	pop	{r4, lr}
4000ade4:	e12fff1e 	bx	lr

Disassembly of section .text.exit:

4000ade8 <exit>:
4000ade8:	e92d4010 	push	{r4, lr}
4000adec:	e3a01000 	mov	r1, #0
4000adf0:	e1a04000 	mov	r4, r0
4000adf4:	eb0019f4 	bl	400115cc <__call_exitprocs>
4000adf8:	e59f3018 	ldr	r3, [pc, #24]	; 4000ae18 <exit+0x30>
4000adfc:	e5930000 	ldr	r0, [r3]
4000ae00:	e590303c 	ldr	r3, [r0, #60]	; 0x3c
4000ae04:	e3530000 	cmp	r3, #0
4000ae08:	11a0e00f 	movne	lr, pc
4000ae0c:	112fff13 	bxne	r3
4000ae10:	e1a00004 	mov	r0, r4
4000ae14:	ebffd7fd 	bl	40000e10 <_exit>
4000ae18:	40019798 	.word	0x40019798

Disassembly of section .text.__libc_fini_array:

4000ae1c <__libc_fini_array>:
4000ae1c:	e92d4070 	push	{r4, r5, r6, lr}
4000ae20:	e59f5034 	ldr	r5, [pc, #52]	; 4000ae5c <__libc_fini_array+0x40>
4000ae24:	e59f4034 	ldr	r4, [pc, #52]	; 4000ae60 <__libc_fini_array+0x44>
4000ae28:	e0444005 	sub	r4, r4, r5
4000ae2c:	e1b04144 	asrs	r4, r4, #2
4000ae30:	10855104 	addne	r5, r5, r4, lsl #2
4000ae34:	0a000005 	beq	4000ae50 <__libc_fini_array+0x34>
4000ae38:	e2444001 	sub	r4, r4, #1
4000ae3c:	e5353004 	ldr	r3, [r5, #-4]!
4000ae40:	e1a0e00f 	mov	lr, pc
4000ae44:	e12fff13 	bx	r3
4000ae48:	e3540000 	cmp	r4, #0
4000ae4c:	1afffff9 	bne	4000ae38 <__libc_fini_array+0x1c>
4000ae50:	ebffd7e8 	bl	40000df8 <_fini>
4000ae54:	e8bd4070 	pop	{r4, r5, r6, lr}
4000ae58:	e12fff1e 	bx	lr
4000ae5c:	4011a590 	.word	0x4011a590
4000ae60:	4011a590 	.word	0x4011a590

Disassembly of section .text._fputc_r:

4000ae64 <_fputc_r>:
4000ae64:	e92d4010 	push	{r4, lr}
4000ae68:	e2504000 	subs	r4, r0, #0
4000ae6c:	e24dd008 	sub	sp, sp, #8
4000ae70:	0a000005 	beq	4000ae8c <_fputc_r+0x28>
4000ae74:	e5943038 	ldr	r3, [r4, #56]	; 0x38
4000ae78:	e3530000 	cmp	r3, #0
4000ae7c:	1a000002 	bne	4000ae8c <_fputc_r+0x28>
4000ae80:	e88d0006 	stm	sp, {r1, r2}
4000ae84:	eb0021a4 	bl	4001351c <__sinit>
4000ae88:	e89d0006 	ldm	sp, {r1, r2}
4000ae8c:	e1a00004 	mov	r0, r4
4000ae90:	eb000502 	bl	4000c2a0 <_putc_r>
4000ae94:	e28dd008 	add	sp, sp, #8
4000ae98:	e8bd4010 	pop	{r4, lr}
4000ae9c:	e12fff1e 	bx	lr

Disassembly of section .text.fputc:

4000aea0 <fputc>:
4000aea0:	e59f303c 	ldr	r3, [pc, #60]	; 4000aee4 <fputc+0x44>
4000aea4:	e92d4070 	push	{r4, r5, r6, lr}
4000aea8:	e5934000 	ldr	r4, [r3]
4000aeac:	e3540000 	cmp	r4, #0
4000aeb0:	e1a05000 	mov	r5, r0
4000aeb4:	e1a06001 	mov	r6, r1
4000aeb8:	0a000003 	beq	4000aecc <fputc+0x2c>
4000aebc:	e5943038 	ldr	r3, [r4, #56]	; 0x38
4000aec0:	e3530000 	cmp	r3, #0
4000aec4:	01a00004 	moveq	r0, r4
4000aec8:	0b002193 	bleq	4001351c <__sinit>
4000aecc:	e1a02006 	mov	r2, r6
4000aed0:	e1a01005 	mov	r1, r5
4000aed4:	e1a00004 	mov	r0, r4
4000aed8:	eb0004f0 	bl	4000c2a0 <_putc_r>
4000aedc:	e8bd4070 	pop	{r4, r5, r6, lr}
4000aee0:	e12fff1e 	bx	lr
4000aee4:	40019b60 	.word	0x40019b60

Disassembly of section .text._fputs_r:

4000aee8 <_fputs_r>:
4000aee8:	e92d4030 	push	{r4, r5, lr}
4000aeec:	e1a05000 	mov	r5, r0
4000aef0:	e24dd01c 	sub	sp, sp, #28
4000aef4:	e1a00001 	mov	r0, r1
4000aef8:	e1a04002 	mov	r4, r2
4000aefc:	e58d1004 	str	r1, [sp, #4]
4000af00:	eb0007d3 	bl	4000ce54 <strlen>
4000af04:	e3a02001 	mov	r2, #1
4000af08:	e28d3004 	add	r3, sp, #4
4000af0c:	e3550000 	cmp	r5, #0
4000af10:	e58d0014 	str	r0, [sp, #20]
4000af14:	e58d0008 	str	r0, [sp, #8]
4000af18:	e58d2010 	str	r2, [sp, #16]
4000af1c:	e58d300c 	str	r3, [sp, #12]
4000af20:	0a000002 	beq	4000af30 <_fputs_r+0x48>
4000af24:	e5953038 	ldr	r3, [r5, #56]	; 0x38
4000af28:	e3530000 	cmp	r3, #0
4000af2c:	0a00000d 	beq	4000af68 <_fputs_r+0x80>
4000af30:	e1d430fc 	ldrsh	r3, [r4, #12]
4000af34:	e3130a02 	tst	r3, #8192	; 0x2000
4000af38:	05942064 	ldreq	r2, [r4, #100]	; 0x64
4000af3c:	03833a02 	orreq	r3, r3, #8192	; 0x2000
4000af40:	03c22a02 	biceq	r2, r2, #8192	; 0x2000
4000af44:	05842064 	streq	r2, [r4, #100]	; 0x64
4000af48:	01c430bc 	strheq	r3, [r4, #12]
4000af4c:	e1a01004 	mov	r1, r4
4000af50:	e1a00005 	mov	r0, r5
4000af54:	e28d200c 	add	r2, sp, #12
4000af58:	eb00000b 	bl	4000af8c <__sfvwrite_r>
4000af5c:	e28dd01c 	add	sp, sp, #28
4000af60:	e8bd4030 	pop	{r4, r5, lr}
4000af64:	e12fff1e 	bx	lr
4000af68:	e1a00005 	mov	r0, r5
4000af6c:	eb00216a 	bl	4001351c <__sinit>
4000af70:	eaffffee 	b	4000af30 <_fputs_r+0x48>

Disassembly of section .text.fputs:

4000af74 <fputs>:
4000af74:	e59f300c 	ldr	r3, [pc, #12]	; 4000af88 <fputs+0x14>
4000af78:	e1a02001 	mov	r2, r1
4000af7c:	e1a01000 	mov	r1, r0
4000af80:	e5930000 	ldr	r0, [r3]
4000af84:	eaffffd7 	b	4000aee8 <_fputs_r>
4000af88:	40019b60 	.word	0x40019b60

Disassembly of section .text.__sfvwrite_r:

4000af8c <__sfvwrite_r>:
4000af8c:	e5923008 	ldr	r3, [r2, #8]
4000af90:	e3530000 	cmp	r3, #0
4000af94:	0a0000cb 	beq	4000b2c8 <__sfvwrite_r+0x33c>
4000af98:	e92d4ff0 	push	{r4, r5, r6, r7, r8, r9, sl, fp, lr}
4000af9c:	e1d130fc 	ldrsh	r3, [r1, #12]
4000afa0:	e1a03803 	lsl	r3, r3, #16
4000afa4:	e3130702 	tst	r3, #524288	; 0x80000
4000afa8:	e24dd00c 	sub	sp, sp, #12
4000afac:	e1a04001 	mov	r4, r1
4000afb0:	e1a0b000 	mov	fp, r0
4000afb4:	e1a06002 	mov	r6, r2
4000afb8:	e1a0a823 	lsr	sl, r3, #16
4000afbc:	0a000020 	beq	4000b044 <__sfvwrite_r+0xb8>
4000afc0:	e5912010 	ldr	r2, [r1, #16]
4000afc4:	e3520000 	cmp	r2, #0
4000afc8:	0a00001d 	beq	4000b044 <__sfvwrite_r+0xb8>
4000afcc:	e21a9002 	ands	r9, sl, #2
4000afd0:	e5965000 	ldr	r5, [r6]
4000afd4:	0a000025 	beq	4000b070 <__sfvwrite_r+0xe4>
4000afd8:	e3a08000 	mov	r8, #0
4000afdc:	e1a07008 	mov	r7, r8
4000afe0:	e59f947c 	ldr	r9, [pc, #1148]	; 4000b464 <__sfvwrite_r+0x4d8>
4000afe4:	e3570000 	cmp	r7, #0
4000afe8:	0a00004a 	beq	4000b118 <__sfvwrite_r+0x18c>
4000afec:	e1570009 	cmp	r7, r9
4000aff0:	31a03007 	movcc	r3, r7
4000aff4:	21a03009 	movcs	r3, r9
4000aff8:	e594a024 	ldr	sl, [r4, #36]	; 0x24
4000affc:	e1a02008 	mov	r2, r8
4000b000:	e594101c 	ldr	r1, [r4, #28]
4000b004:	e1a0000b 	mov	r0, fp
4000b008:	e1a0e00f 	mov	lr, pc
4000b00c:	e12fff1a 	bx	sl
4000b010:	e3500000 	cmp	r0, #0
4000b014:	da000089 	ble	4000b240 <__sfvwrite_r+0x2b4>
4000b018:	e5963008 	ldr	r3, [r6, #8]
4000b01c:	e0433000 	sub	r3, r3, r0
4000b020:	e3530000 	cmp	r3, #0
4000b024:	e0888000 	add	r8, r8, r0
4000b028:	e0477000 	sub	r7, r7, r0
4000b02c:	e5863008 	str	r3, [r6, #8]
4000b030:	1affffeb 	bne	4000afe4 <__sfvwrite_r+0x58>
4000b034:	e3a00000 	mov	r0, #0
4000b038:	e28dd00c 	add	sp, sp, #12
4000b03c:	e8bd4ff0 	pop	{r4, r5, r6, r7, r8, r9, sl, fp, lr}
4000b040:	e12fff1e 	bx	lr
4000b044:	e1a01004 	mov	r1, r4
4000b048:	e1a0000b 	mov	r0, fp
4000b04c:	eb0018c3 	bl	40011360 <__swsetup_r>
4000b050:	e3500000 	cmp	r0, #0
4000b054:	1a0000fc 	bne	4000b44c <__sfvwrite_r+0x4c0>
4000b058:	e1d430fc 	ldrsh	r3, [r4, #12]
4000b05c:	e1a03803 	lsl	r3, r3, #16
4000b060:	e1a0a823 	lsr	sl, r3, #16
4000b064:	e21a9002 	ands	r9, sl, #2
4000b068:	e5965000 	ldr	r5, [r6]
4000b06c:	1affffd9 	bne	4000afd8 <__sfvwrite_r+0x4c>
4000b070:	e21aa001 	ands	sl, sl, #1
4000b074:	01a0900a 	moveq	r9, sl
4000b078:	1a000094 	bne	4000b2d0 <__sfvwrite_r+0x344>
4000b07c:	e3590000 	cmp	r9, #0
4000b080:	0a000020 	beq	4000b108 <__sfvwrite_r+0x17c>
4000b084:	e3130402 	tst	r3, #33554432	; 0x2000000
4000b088:	e5947008 	ldr	r7, [r4, #8]
4000b08c:	e1a03823 	lsr	r3, r3, #16
4000b090:	0a000024 	beq	4000b128 <__sfvwrite_r+0x19c>
4000b094:	e1590007 	cmp	r9, r7
4000b098:	e1a08007 	mov	r8, r7
4000b09c:	3a000037 	bcc	4000b180 <__sfvwrite_r+0x1f4>
4000b0a0:	e3130d12 	tst	r3, #1152	; 0x480
4000b0a4:	1a00003a 	bne	4000b194 <__sfvwrite_r+0x208>
4000b0a8:	e1a03009 	mov	r3, r9
4000b0ac:	e5940000 	ldr	r0, [r4]
4000b0b0:	e1a02008 	mov	r2, r8
4000b0b4:	e1a0100a 	mov	r1, sl
4000b0b8:	e58d3004 	str	r3, [sp, #4]
4000b0bc:	eb0003c1 	bl	4000bfc8 <memmove>
4000b0c0:	e5941008 	ldr	r1, [r4, #8]
4000b0c4:	e5942000 	ldr	r2, [r4]
4000b0c8:	e0417007 	sub	r7, r1, r7
4000b0cc:	e0828008 	add	r8, r2, r8
4000b0d0:	e5847008 	str	r7, [r4, #8]
4000b0d4:	e5848000 	str	r8, [r4]
4000b0d8:	e59d3004 	ldr	r3, [sp, #4]
4000b0dc:	e5962008 	ldr	r2, [r6, #8]
4000b0e0:	e0422003 	sub	r2, r2, r3
4000b0e4:	e3520000 	cmp	r2, #0
4000b0e8:	e08aa003 	add	sl, sl, r3
4000b0ec:	e0499003 	sub	r9, r9, r3
4000b0f0:	e5862008 	str	r2, [r6, #8]
4000b0f4:	0affffce 	beq	4000b034 <__sfvwrite_r+0xa8>
4000b0f8:	e1d430fc 	ldrsh	r3, [r4, #12]
4000b0fc:	e3590000 	cmp	r9, #0
4000b100:	e1a03803 	lsl	r3, r3, #16
4000b104:	1affffde 	bne	4000b084 <__sfvwrite_r+0xf8>
4000b108:	e595a000 	ldr	sl, [r5]
4000b10c:	e5959004 	ldr	r9, [r5, #4]
4000b110:	e2855008 	add	r5, r5, #8
4000b114:	eaffffd8 	b	4000b07c <__sfvwrite_r+0xf0>
4000b118:	e5958000 	ldr	r8, [r5]
4000b11c:	e5957004 	ldr	r7, [r5, #4]
4000b120:	e2855008 	add	r5, r5, #8
4000b124:	eaffffae 	b	4000afe4 <__sfvwrite_r+0x58>
4000b128:	e5940000 	ldr	r0, [r4]
4000b12c:	e5943010 	ldr	r3, [r4, #16]
4000b130:	e1500003 	cmp	r0, r3
4000b134:	8a000002 	bhi	4000b144 <__sfvwrite_r+0x1b8>
4000b138:	e5948014 	ldr	r8, [r4, #20]
4000b13c:	e1590008 	cmp	r9, r8
4000b140:	2a000045 	bcs	4000b25c <__sfvwrite_r+0x2d0>
4000b144:	e1570009 	cmp	r7, r9
4000b148:	21a07009 	movcs	r7, r9
4000b14c:	e1a0100a 	mov	r1, sl
4000b150:	e1a02007 	mov	r2, r7
4000b154:	eb00039b 	bl	4000bfc8 <memmove>
4000b158:	e5942008 	ldr	r2, [r4, #8]
4000b15c:	e5943000 	ldr	r3, [r4]
4000b160:	e0422007 	sub	r2, r2, r7
4000b164:	e0833007 	add	r3, r3, r7
4000b168:	e3520000 	cmp	r2, #0
4000b16c:	e5842008 	str	r2, [r4, #8]
4000b170:	e5843000 	str	r3, [r4]
4000b174:	0a00002c 	beq	4000b22c <__sfvwrite_r+0x2a0>
4000b178:	e1a03007 	mov	r3, r7
4000b17c:	eaffffd6 	b	4000b0dc <__sfvwrite_r+0x150>
4000b180:	e1a07009 	mov	r7, r9
4000b184:	e1a03009 	mov	r3, r9
4000b188:	e1a08009 	mov	r8, r9
4000b18c:	e5940000 	ldr	r0, [r4]
4000b190:	eaffffc6 	b	4000b0b0 <__sfvwrite_r+0x124>
4000b194:	e5941010 	ldr	r1, [r4, #16]
4000b198:	e5948000 	ldr	r8, [r4]
4000b19c:	e5942014 	ldr	r2, [r4, #20]
4000b1a0:	e0488001 	sub	r8, r8, r1
4000b1a4:	e0822082 	add	r2, r2, r2, lsl #1
4000b1a8:	e2887001 	add	r7, r8, #1
4000b1ac:	e0822fa2 	add	r2, r2, r2, lsr #31
4000b1b0:	e0877009 	add	r7, r7, r9
4000b1b4:	e1a020c2 	asr	r2, r2, #1
4000b1b8:	e1570002 	cmp	r7, r2
4000b1bc:	91a07002 	movls	r7, r2
4000b1c0:	81a02007 	movhi	r2, r7
4000b1c4:	e3130b01 	tst	r3, #1024	; 0x400
4000b1c8:	0a000032 	beq	4000b298 <__sfvwrite_r+0x30c>
4000b1cc:	e1a01002 	mov	r1, r2
4000b1d0:	e1a0000b 	mov	r0, fp
4000b1d4:	eb0000d3 	bl	4000b528 <_malloc_r>
4000b1d8:	e2503000 	subs	r3, r0, #0
4000b1dc:	0a00009c 	beq	4000b454 <__sfvwrite_r+0x4c8>
4000b1e0:	e1a02008 	mov	r2, r8
4000b1e4:	e5941010 	ldr	r1, [r4, #16]
4000b1e8:	e58d3004 	str	r3, [sp, #4]
4000b1ec:	eb000330 	bl	4000beb4 <memcpy>
4000b1f0:	e1d420bc 	ldrh	r2, [r4, #12]
4000b1f4:	e3c22d12 	bic	r2, r2, #1152	; 0x480
4000b1f8:	e3822080 	orr	r2, r2, #128	; 0x80
4000b1fc:	e1c420bc 	strh	r2, [r4, #12]
4000b200:	e59d3004 	ldr	r3, [sp, #4]
4000b204:	e0830008 	add	r0, r3, r8
4000b208:	e0478008 	sub	r8, r7, r8
4000b20c:	e5843010 	str	r3, [r4, #16]
4000b210:	e5848008 	str	r8, [r4, #8]
4000b214:	e5847014 	str	r7, [r4, #20]
4000b218:	e5840000 	str	r0, [r4]
4000b21c:	e1a07009 	mov	r7, r9
4000b220:	e1a03009 	mov	r3, r9
4000b224:	e1a08009 	mov	r8, r9
4000b228:	eaffffa0 	b	4000b0b0 <__sfvwrite_r+0x124>
4000b22c:	e1a01004 	mov	r1, r4
4000b230:	e1a0000b 	mov	r0, fp
4000b234:	eb001fd7 	bl	40013198 <_fflush_r>
4000b238:	e3500000 	cmp	r0, #0
4000b23c:	0affffcd 	beq	4000b178 <__sfvwrite_r+0x1ec>
4000b240:	e1d430fc 	ldrsh	r3, [r4, #12]
4000b244:	e3e00000 	mvn	r0, #0
4000b248:	e3833040 	orr	r3, r3, #64	; 0x40
4000b24c:	e1c430bc 	strh	r3, [r4, #12]
4000b250:	e28dd00c 	add	sp, sp, #12
4000b254:	e8bd4ff0 	pop	{r4, r5, r6, r7, r8, r9, sl, fp, lr}
4000b258:	e12fff1e 	bx	lr
4000b25c:	e3790106 	cmn	r9, #-2147483647	; 0x80000001
4000b260:	31a00009 	movcc	r0, r9
4000b264:	23e00102 	mvncs	r0, #-2147483648	; 0x80000000
4000b268:	e1a01008 	mov	r1, r8
4000b26c:	ebffd9d9 	bl	400019d8 <__divsi3>
4000b270:	e5947024 	ldr	r7, [r4, #36]	; 0x24
4000b274:	e0030098 	mul	r3, r8, r0
4000b278:	e1a0200a 	mov	r2, sl
4000b27c:	e594101c 	ldr	r1, [r4, #28]
4000b280:	e1a0000b 	mov	r0, fp
4000b284:	e1a0e00f 	mov	lr, pc
4000b288:	e12fff17 	bx	r7
4000b28c:	e2503000 	subs	r3, r0, #0
4000b290:	caffff91 	bgt	4000b0dc <__sfvwrite_r+0x150>
4000b294:	eaffffe9 	b	4000b240 <__sfvwrite_r+0x2b4>
4000b298:	e1a0000b 	mov	r0, fp
4000b29c:	eb00044c 	bl	4000c3d4 <_realloc_r>
4000b2a0:	e2503000 	subs	r3, r0, #0
4000b2a4:	1affffd6 	bne	4000b204 <__sfvwrite_r+0x278>
4000b2a8:	e5941010 	ldr	r1, [r4, #16]
4000b2ac:	e1a0000b 	mov	r0, fp
4000b2b0:	eb0020f3 	bl	40013684 <_free_r>
4000b2b4:	e3a0200c 	mov	r2, #12
4000b2b8:	e1d430fc 	ldrsh	r3, [r4, #12]
4000b2bc:	e58b2000 	str	r2, [fp]
4000b2c0:	e3c33080 	bic	r3, r3, #128	; 0x80
4000b2c4:	eaffffde 	b	4000b244 <__sfvwrite_r+0x2b8>
4000b2c8:	e3a00000 	mov	r0, #0
4000b2cc:	e12fff1e 	bx	lr
4000b2d0:	e1a00009 	mov	r0, r9
4000b2d4:	e1a0a009 	mov	sl, r9
4000b2d8:	e1a08009 	mov	r8, r9
4000b2dc:	ea000026 	b	4000b37c <__sfvwrite_r+0x3f0>
4000b2e0:	e3500000 	cmp	r0, #0
4000b2e4:	0a00002d 	beq	4000b3a0 <__sfvwrite_r+0x414>
4000b2e8:	e1590008 	cmp	r9, r8
4000b2ec:	31a01009 	movcc	r1, r9
4000b2f0:	21a01008 	movcs	r1, r8
4000b2f4:	e5942010 	ldr	r2, [r4, #16]
4000b2f8:	e594c014 	ldr	ip, [r4, #20]
4000b2fc:	e5943008 	ldr	r3, [r4, #8]
4000b300:	e5940000 	ldr	r0, [r4]
4000b304:	e08c3003 	add	r3, ip, r3
4000b308:	e1500002 	cmp	r0, r2
4000b30c:	93a02000 	movls	r2, #0
4000b310:	83a02001 	movhi	r2, #1
4000b314:	e1510003 	cmp	r1, r3
4000b318:	d3a02000 	movle	r2, #0
4000b31c:	e3520000 	cmp	r2, #0
4000b320:	e1a07001 	mov	r7, r1
4000b324:	1a000038 	bne	4000b40c <__sfvwrite_r+0x480>
4000b328:	e151000c 	cmp	r1, ip
4000b32c:	ba000024 	blt	4000b3c4 <__sfvwrite_r+0x438>
4000b330:	e5947024 	ldr	r7, [r4, #36]	; 0x24
4000b334:	e1a0300c 	mov	r3, ip
4000b338:	e1a0200a 	mov	r2, sl
4000b33c:	e594101c 	ldr	r1, [r4, #28]
4000b340:	e1a0000b 	mov	r0, fp
4000b344:	e1a0e00f 	mov	lr, pc
4000b348:	e12fff17 	bx	r7
4000b34c:	e2507000 	subs	r7, r0, #0
4000b350:	daffffba 	ble	4000b240 <__sfvwrite_r+0x2b4>
4000b354:	e0599007 	subs	r9, r9, r7
4000b358:	13a00001 	movne	r0, #1
4000b35c:	0a000024 	beq	4000b3f4 <__sfvwrite_r+0x468>
4000b360:	e5963008 	ldr	r3, [r6, #8]
4000b364:	e0433007 	sub	r3, r3, r7
4000b368:	e3530000 	cmp	r3, #0
4000b36c:	e08aa007 	add	sl, sl, r7
4000b370:	e0488007 	sub	r8, r8, r7
4000b374:	e5863008 	str	r3, [r6, #8]
4000b378:	0affff2d 	beq	4000b034 <__sfvwrite_r+0xa8>
4000b37c:	e3580000 	cmp	r8, #0
4000b380:	1affffd6 	bne	4000b2e0 <__sfvwrite_r+0x354>
4000b384:	e2853008 	add	r3, r5, #8
4000b388:	e5138004 	ldr	r8, [r3, #-4]
4000b38c:	e3580000 	cmp	r8, #0
4000b390:	e1a05003 	mov	r5, r3
4000b394:	e513a008 	ldr	sl, [r3, #-8]
4000b398:	e2833008 	add	r3, r3, #8
4000b39c:	0afffff9 	beq	4000b388 <__sfvwrite_r+0x3fc>
4000b3a0:	e1a02008 	mov	r2, r8
4000b3a4:	e3a0100a 	mov	r1, #10
4000b3a8:	e1a0000a 	mov	r0, sl
4000b3ac:	eb000240 	bl	4000bcb4 <memchr>
4000b3b0:	e3500000 	cmp	r0, #0
4000b3b4:	12800001 	addne	r0, r0, #1
4000b3b8:	1040900a 	subne	r9, r0, sl
4000b3bc:	02889001 	addeq	r9, r8, #1
4000b3c0:	eaffffc8 	b	4000b2e8 <__sfvwrite_r+0x35c>
4000b3c4:	e1a02001 	mov	r2, r1
4000b3c8:	e1a0100a 	mov	r1, sl
4000b3cc:	eb0002fd 	bl	4000bfc8 <memmove>
4000b3d0:	e5942008 	ldr	r2, [r4, #8]
4000b3d4:	e5943000 	ldr	r3, [r4]
4000b3d8:	e0422007 	sub	r2, r2, r7
4000b3dc:	e0833007 	add	r3, r3, r7
4000b3e0:	e0599007 	subs	r9, r9, r7
4000b3e4:	e5842008 	str	r2, [r4, #8]
4000b3e8:	e5843000 	str	r3, [r4]
4000b3ec:	13a00001 	movne	r0, #1
4000b3f0:	1affffda 	bne	4000b360 <__sfvwrite_r+0x3d4>
4000b3f4:	e1a01004 	mov	r1, r4
4000b3f8:	e1a0000b 	mov	r0, fp
4000b3fc:	eb001f65 	bl	40013198 <_fflush_r>
4000b400:	e3500000 	cmp	r0, #0
4000b404:	0affffd5 	beq	4000b360 <__sfvwrite_r+0x3d4>
4000b408:	eaffff8c 	b	4000b240 <__sfvwrite_r+0x2b4>
4000b40c:	e1a02003 	mov	r2, r3
4000b410:	e1a0100a 	mov	r1, sl
4000b414:	e58d3004 	str	r3, [sp, #4]
4000b418:	eb0002ea 	bl	4000bfc8 <memmove>
4000b41c:	e5942000 	ldr	r2, [r4]
4000b420:	e59d3004 	ldr	r3, [sp, #4]
4000b424:	e0822003 	add	r2, r2, r3
4000b428:	e5842000 	str	r2, [r4]
4000b42c:	e1a01004 	mov	r1, r4
4000b430:	e1a0000b 	mov	r0, fp
4000b434:	eb001f57 	bl	40013198 <_fflush_r>
4000b438:	e3500000 	cmp	r0, #0
4000b43c:	e59d3004 	ldr	r3, [sp, #4]
4000b440:	1affff7e 	bne	4000b240 <__sfvwrite_r+0x2b4>
4000b444:	e1a07003 	mov	r7, r3
4000b448:	eaffffc1 	b	4000b354 <__sfvwrite_r+0x3c8>
4000b44c:	e3e00000 	mvn	r0, #0
4000b450:	eafffef8 	b	4000b038 <__sfvwrite_r+0xac>
4000b454:	e3a0200c 	mov	r2, #12
4000b458:	e1d430fc 	ldrsh	r3, [r4, #12]
4000b45c:	e58b2000 	str	r2, [fp]
4000b460:	eaffff77 	b	4000b244 <__sfvwrite_r+0x2b8>
4000b464:	7ffffc00 	.word	0x7ffffc00

Disassembly of section .text.__libc_init_array:

4000b468 <__libc_init_array>:
4000b468:	e92d4070 	push	{r4, r5, r6, lr}
4000b46c:	e59f6064 	ldr	r6, [pc, #100]	; 4000b4d8 <__libc_init_array+0x70>
4000b470:	e59f5064 	ldr	r5, [pc, #100]	; 4000b4dc <__libc_init_array+0x74>
4000b474:	e0466005 	sub	r6, r6, r5
4000b478:	e1b06146 	asrs	r6, r6, #2
4000b47c:	13a04000 	movne	r4, #0
4000b480:	0a000005 	beq	4000b49c <__libc_init_array+0x34>
4000b484:	e2844001 	add	r4, r4, #1
4000b488:	e4953004 	ldr	r3, [r5], #4
4000b48c:	e1a0e00f 	mov	lr, pc
4000b490:	e12fff13 	bx	r3
4000b494:	e1560004 	cmp	r6, r4
4000b498:	1afffff9 	bne	4000b484 <__libc_init_array+0x1c>
4000b49c:	e59f603c 	ldr	r6, [pc, #60]	; 4000b4e0 <__libc_init_array+0x78>
4000b4a0:	e59f503c 	ldr	r5, [pc, #60]	; 4000b4e4 <__libc_init_array+0x7c>
4000b4a4:	e0466005 	sub	r6, r6, r5
4000b4a8:	ebffd640 	bl	40000db0 <_init>
4000b4ac:	e1b06146 	asrs	r6, r6, #2
4000b4b0:	13a04000 	movne	r4, #0
4000b4b4:	0a000005 	beq	4000b4d0 <__libc_init_array+0x68>
4000b4b8:	e2844001 	add	r4, r4, #1
4000b4bc:	e4953004 	ldr	r3, [r5], #4
4000b4c0:	e1a0e00f 	mov	lr, pc
4000b4c4:	e12fff13 	bx	r3
4000b4c8:	e1560004 	cmp	r6, r4
4000b4cc:	1afffff9 	bne	4000b4b8 <__libc_init_array+0x50>
4000b4d0:	e8bd4070 	pop	{r4, r5, r6, lr}
4000b4d4:	e12fff1e 	bx	lr
4000b4d8:	4011a588 	.word	0x4011a588
4000b4dc:	4011a588 	.word	0x4011a588
4000b4e0:	4011a590 	.word	0x4011a590
4000b4e4:	4011a588 	.word	0x4011a588

Disassembly of section .text.malloc:

4000b4e8 <malloc>:
4000b4e8:	e92d4010 	push	{r4, lr}
4000b4ec:	e59f3010 	ldr	r3, [pc, #16]	; 4000b504 <malloc+0x1c>
4000b4f0:	e1a01000 	mov	r1, r0
4000b4f4:	e5930000 	ldr	r0, [r3]
4000b4f8:	eb00000a 	bl	4000b528 <_malloc_r>
4000b4fc:	e8bd4010 	pop	{r4, lr}
4000b500:	e12fff1e 	bx	lr
4000b504:	40019b60 	.word	0x40019b60

Disassembly of section .text.free:

4000b508 <free>:
4000b508:	e92d4010 	push	{r4, lr}
4000b50c:	e59f3010 	ldr	r3, [pc, #16]	; 4000b524 <free+0x1c>
4000b510:	e1a01000 	mov	r1, r0
4000b514:	e5930000 	ldr	r0, [r3]
4000b518:	eb002059 	bl	40013684 <_free_r>
4000b51c:	e8bd4010 	pop	{r4, lr}
4000b520:	e12fff1e 	bx	lr
4000b524:	40019b60 	.word	0x40019b60

Disassembly of section .text._malloc_r:

4000b528 <_malloc_r>:
4000b528:	e92d4ff0 	push	{r4, r5, r6, r7, r8, r9, sl, fp, lr}
4000b52c:	e281600b 	add	r6, r1, #11
4000b530:	e3560016 	cmp	r6, #22
4000b534:	e24dd00c 	sub	sp, sp, #12
4000b538:	e1a05000 	mov	r5, r0
4000b53c:	9a000072 	bls	4000b70c <_malloc_r+0x1e4>
4000b540:	e3c66007 	bic	r6, r6, #7
4000b544:	e1510006 	cmp	r1, r6
4000b548:	93a01000 	movls	r1, #0
4000b54c:	83a01001 	movhi	r1, #1
4000b550:	e1913fa6 	orrs	r3, r1, r6, lsr #31
4000b554:	1a000089 	bne	4000b780 <_malloc_r+0x258>
4000b558:	eb000331 	bl	4000c224 <__malloc_lock>
4000b55c:	e3560f7e 	cmp	r6, #504	; 0x1f8
4000b560:	3a0001c8 	bcc	4000bc88 <_malloc_r+0x760>
4000b564:	e1b034a6 	lsrs	r3, r6, #9
4000b568:	0a00008b 	beq	4000b79c <_malloc_r+0x274>
4000b56c:	e3530004 	cmp	r3, #4
4000b570:	8a0000d6 	bhi	4000b8d0 <_malloc_r+0x3a8>
4000b574:	e1a03326 	lsr	r3, r6, #6
4000b578:	e2830039 	add	r0, r3, #57	; 0x39
4000b57c:	e283c038 	add	ip, r3, #56	; 0x38
4000b580:	e1a01180 	lsl	r1, r0, #3
4000b584:	e59f7708 	ldr	r7, [pc, #1800]	; 4000bc94 <_malloc_r+0x76c>
4000b588:	e0871001 	add	r1, r7, r1
4000b58c:	e5914004 	ldr	r4, [r1, #4]
4000b590:	e2411008 	sub	r1, r1, #8
4000b594:	e1510004 	cmp	r1, r4
4000b598:	1a000005 	bne	4000b5b4 <_malloc_r+0x8c>
4000b59c:	ea00000a 	b	4000b5cc <_malloc_r+0xa4>
4000b5a0:	e3520000 	cmp	r2, #0
4000b5a4:	aa000066 	bge	4000b744 <_malloc_r+0x21c>
4000b5a8:	e594400c 	ldr	r4, [r4, #12]
4000b5ac:	e1510004 	cmp	r1, r4
4000b5b0:	0a000005 	beq	4000b5cc <_malloc_r+0xa4>
4000b5b4:	e5943004 	ldr	r3, [r4, #4]
4000b5b8:	e3c33003 	bic	r3, r3, #3
4000b5bc:	e0432006 	sub	r2, r3, r6
4000b5c0:	e352000f 	cmp	r2, #15
4000b5c4:	dafffff5 	ble	4000b5a0 <_malloc_r+0x78>
4000b5c8:	e1a0000c 	mov	r0, ip
4000b5cc:	e5974010 	ldr	r4, [r7, #16]
4000b5d0:	e59fc6c0 	ldr	ip, [pc, #1728]	; 4000bc98 <_malloc_r+0x770>
4000b5d4:	e154000c 	cmp	r4, ip
4000b5d8:	05973004 	ldreq	r3, [r7, #4]
4000b5dc:	0a000018 	beq	4000b644 <_malloc_r+0x11c>
4000b5e0:	e5943004 	ldr	r3, [r4, #4]
4000b5e4:	e3c33003 	bic	r3, r3, #3
4000b5e8:	e0432006 	sub	r2, r3, r6
4000b5ec:	e352000f 	cmp	r2, #15
4000b5f0:	ca0000da 	bgt	4000b960 <_malloc_r+0x438>
4000b5f4:	e3520000 	cmp	r2, #0
4000b5f8:	e587c014 	str	ip, [r7, #20]
4000b5fc:	e587c010 	str	ip, [r7, #16]
4000b600:	aa000069 	bge	4000b7ac <_malloc_r+0x284>
4000b604:	e3530c02 	cmp	r3, #512	; 0x200
4000b608:	2a0000b9 	bcs	4000b8f4 <_malloc_r+0x3cc>
4000b60c:	e3a08001 	mov	r8, #1
4000b610:	e5972004 	ldr	r2, [r7, #4]
4000b614:	e1a031a3 	lsr	r3, r3, #3
4000b618:	e0831008 	add	r1, r3, r8
4000b61c:	e1a03143 	asr	r3, r3, #2
4000b620:	e1823318 	orr	r3, r2, r8, lsl r3
4000b624:	e087e181 	add	lr, r7, r1, lsl #3
4000b628:	e7978181 	ldr	r8, [r7, r1, lsl #3]
4000b62c:	e24e2008 	sub	r2, lr, #8
4000b630:	e584200c 	str	r2, [r4, #12]
4000b634:	e5848008 	str	r8, [r4, #8]
4000b638:	e5873004 	str	r3, [r7, #4]
4000b63c:	e7874181 	str	r4, [r7, r1, lsl #3]
4000b640:	e588400c 	str	r4, [r8, #12]
4000b644:	e3a01001 	mov	r1, #1
4000b648:	e1a02140 	asr	r2, r0, #2
4000b64c:	e1a0e211 	lsl	lr, r1, r2
4000b650:	e15e0003 	cmp	lr, r3
4000b654:	8a00005f 	bhi	4000b7d8 <_malloc_r+0x2b0>
4000b658:	e11e0003 	tst	lr, r3
4000b65c:	1a000008 	bne	4000b684 <_malloc_r+0x15c>
4000b660:	e1a0e11e 	lsl	lr, lr, r1
4000b664:	e3c00003 	bic	r0, r0, #3
4000b668:	e11e0003 	tst	lr, r3
4000b66c:	e2800004 	add	r0, r0, #4
4000b670:	1a000003 	bne	4000b684 <_malloc_r+0x15c>
4000b674:	e1a0e08e 	lsl	lr, lr, #1
4000b678:	e11e0003 	tst	lr, r3
4000b67c:	e2800004 	add	r0, r0, #4
4000b680:	0afffffb 	beq	4000b674 <_malloc_r+0x14c>
4000b684:	e0879180 	add	r9, r7, r0, lsl #3
4000b688:	e1a01009 	mov	r1, r9
4000b68c:	e1a04000 	mov	r4, r0
4000b690:	e591800c 	ldr	r8, [r1, #12]
4000b694:	e1510008 	cmp	r1, r8
4000b698:	1a000005 	bne	4000b6b4 <_malloc_r+0x18c>
4000b69c:	ea0000bc 	b	4000b994 <_malloc_r+0x46c>
4000b6a0:	e3520000 	cmp	r2, #0
4000b6a4:	aa0000c4 	bge	4000b9bc <_malloc_r+0x494>
4000b6a8:	e598800c 	ldr	r8, [r8, #12]
4000b6ac:	e1510008 	cmp	r1, r8
4000b6b0:	0a0000b7 	beq	4000b994 <_malloc_r+0x46c>
4000b6b4:	e5983004 	ldr	r3, [r8, #4]
4000b6b8:	e3c33003 	bic	r3, r3, #3
4000b6bc:	e0432006 	sub	r2, r3, r6
4000b6c0:	e352000f 	cmp	r2, #15
4000b6c4:	dafffff5 	ble	4000b6a0 <_malloc_r+0x178>
4000b6c8:	e598100c 	ldr	r1, [r8, #12]
4000b6cc:	e598e008 	ldr	lr, [r8, #8]
4000b6d0:	e3864001 	orr	r4, r6, #1
4000b6d4:	e5884004 	str	r4, [r8, #4]
4000b6d8:	e0886006 	add	r6, r8, r6
4000b6dc:	e3824001 	orr	r4, r2, #1
4000b6e0:	e58e100c 	str	r1, [lr, #12]
4000b6e4:	e1a00005 	mov	r0, r5
4000b6e8:	e581e008 	str	lr, [r1, #8]
4000b6ec:	e5876014 	str	r6, [r7, #20]
4000b6f0:	e5876010 	str	r6, [r7, #16]
4000b6f4:	e9861010 	stmib	r6, {r4, ip}
4000b6f8:	e586c00c 	str	ip, [r6, #12]
4000b6fc:	e7882003 	str	r2, [r8, r3]
4000b700:	eb0002c8 	bl	4000c228 <__malloc_unlock>
4000b704:	e2884008 	add	r4, r8, #8
4000b708:	ea000018 	b	4000b770 <_malloc_r+0x248>
4000b70c:	e3510010 	cmp	r1, #16
4000b710:	8a00001a 	bhi	4000b780 <_malloc_r+0x258>
4000b714:	eb0002c2 	bl	4000c224 <__malloc_lock>
4000b718:	e3a06010 	mov	r6, #16
4000b71c:	e3a03018 	mov	r3, #24
4000b720:	e3a00002 	mov	r0, #2
4000b724:	e59f7568 	ldr	r7, [pc, #1384]	; 4000bc94 <_malloc_r+0x76c>
4000b728:	e0873003 	add	r3, r7, r3
4000b72c:	e5934004 	ldr	r4, [r3, #4]
4000b730:	e2432008 	sub	r2, r3, #8
4000b734:	e1540002 	cmp	r4, r2
4000b738:	0a00009a 	beq	4000b9a8 <_malloc_r+0x480>
4000b73c:	e5943004 	ldr	r3, [r4, #4]
4000b740:	e3c33003 	bic	r3, r3, #3
4000b744:	e0843003 	add	r3, r4, r3
4000b748:	e5932004 	ldr	r2, [r3, #4]
4000b74c:	e594100c 	ldr	r1, [r4, #12]
4000b750:	e594c008 	ldr	ip, [r4, #8]
4000b754:	e3822001 	orr	r2, r2, #1
4000b758:	e58c100c 	str	r1, [ip, #12]
4000b75c:	e1a00005 	mov	r0, r5
4000b760:	e581c008 	str	ip, [r1, #8]
4000b764:	e5832004 	str	r2, [r3, #4]
4000b768:	eb0002ae 	bl	4000c228 <__malloc_unlock>
4000b76c:	e2844008 	add	r4, r4, #8
4000b770:	e1a00004 	mov	r0, r4
4000b774:	e28dd00c 	add	sp, sp, #12
4000b778:	e8bd4ff0 	pop	{r4, r5, r6, r7, r8, r9, sl, fp, lr}
4000b77c:	e12fff1e 	bx	lr
4000b780:	e3a04000 	mov	r4, #0
4000b784:	e3a0300c 	mov	r3, #12
4000b788:	e1a00004 	mov	r0, r4
4000b78c:	e5853000 	str	r3, [r5]
4000b790:	e28dd00c 	add	sp, sp, #12
4000b794:	e8bd4ff0 	pop	{r4, r5, r6, r7, r8, r9, sl, fp, lr}
4000b798:	e12fff1e 	bx	lr
4000b79c:	e3a01c02 	mov	r1, #512	; 0x200
4000b7a0:	e3a00040 	mov	r0, #64	; 0x40
4000b7a4:	e3a0c03f 	mov	ip, #63	; 0x3f
4000b7a8:	eaffff75 	b	4000b584 <_malloc_r+0x5c>
4000b7ac:	e0843003 	add	r3, r4, r3
4000b7b0:	e5932004 	ldr	r2, [r3, #4]
4000b7b4:	e3822001 	orr	r2, r2, #1
4000b7b8:	e1a00005 	mov	r0, r5
4000b7bc:	e5832004 	str	r2, [r3, #4]
4000b7c0:	e2844008 	add	r4, r4, #8
4000b7c4:	eb000297 	bl	4000c228 <__malloc_unlock>
4000b7c8:	e1a00004 	mov	r0, r4
4000b7cc:	e28dd00c 	add	sp, sp, #12
4000b7d0:	e8bd4ff0 	pop	{r4, r5, r6, r7, r8, r9, sl, fp, lr}
4000b7d4:	e12fff1e 	bx	lr
4000b7d8:	e5974008 	ldr	r4, [r7, #8]
4000b7dc:	e5943004 	ldr	r3, [r4, #4]
4000b7e0:	e3c39003 	bic	r9, r3, #3
4000b7e4:	e0493006 	sub	r3, r9, r6
4000b7e8:	e353000f 	cmp	r3, #15
4000b7ec:	c3a02000 	movgt	r2, #0
4000b7f0:	d3a02001 	movle	r2, #1
4000b7f4:	e1590006 	cmp	r9, r6
4000b7f8:	33822001 	orrcc	r2, r2, #1
4000b7fc:	e3520000 	cmp	r2, #0
4000b800:	0a000025 	beq	4000b89c <_malloc_r+0x374>
4000b804:	e59fa490 	ldr	sl, [pc, #1168]	; 4000bc9c <_malloc_r+0x774>
4000b808:	e59f2490 	ldr	r2, [pc, #1168]	; 4000bca0 <_malloc_r+0x778>
4000b80c:	e59a3000 	ldr	r3, [sl]
4000b810:	e5922000 	ldr	r2, [r2]
4000b814:	e3730001 	cmn	r3, #1
4000b818:	e0862002 	add	r2, r6, r2
4000b81c:	12823a01 	addne	r3, r2, #4096	; 0x1000
4000b820:	1283300f 	addne	r3, r3, #15
4000b824:	13c32eff 	bicne	r2, r3, #4080	; 0xff0
4000b828:	02822010 	addeq	r2, r2, #16
4000b82c:	13c2200f 	bicne	r2, r2, #15
4000b830:	e1a01002 	mov	r1, r2
4000b834:	e1a00005 	mov	r0, r5
4000b838:	e58d2004 	str	r2, [sp, #4]
4000b83c:	ebffd664 	bl	400011d4 <_sbrk_r>
4000b840:	e3700001 	cmn	r0, #1
4000b844:	e1a0b000 	mov	fp, r0
4000b848:	e59d2004 	ldr	r2, [sp, #4]
4000b84c:	0a000003 	beq	4000b860 <_malloc_r+0x338>
4000b850:	e0843009 	add	r3, r4, r9
4000b854:	e1540007 	cmp	r4, r7
4000b858:	11530000 	cmpne	r3, r0
4000b85c:	9a000084 	bls	4000ba74 <_malloc_r+0x54c>
4000b860:	e5974008 	ldr	r4, [r7, #8]
4000b864:	e5943004 	ldr	r3, [r4, #4]
4000b868:	e3c33003 	bic	r3, r3, #3
4000b86c:	e1560003 	cmp	r6, r3
4000b870:	93a02000 	movls	r2, #0
4000b874:	83a02001 	movhi	r2, #1
4000b878:	e0433006 	sub	r3, r3, r6
4000b87c:	e353000f 	cmp	r3, #15
4000b880:	d3822001 	orrle	r2, r2, #1
4000b884:	e3520000 	cmp	r2, #0
4000b888:	0a000003 	beq	4000b89c <_malloc_r+0x374>
4000b88c:	e1a00005 	mov	r0, r5
4000b890:	eb000264 	bl	4000c228 <__malloc_unlock>
4000b894:	e3a04000 	mov	r4, #0
4000b898:	eaffffb4 	b	4000b770 <_malloc_r+0x248>
4000b89c:	e3862001 	orr	r2, r6, #1
4000b8a0:	e3833001 	orr	r3, r3, #1
4000b8a4:	e0846006 	add	r6, r4, r6
4000b8a8:	e5842004 	str	r2, [r4, #4]
4000b8ac:	e1a00005 	mov	r0, r5
4000b8b0:	e5876008 	str	r6, [r7, #8]
4000b8b4:	e2844008 	add	r4, r4, #8
4000b8b8:	e5863004 	str	r3, [r6, #4]
4000b8bc:	eb000259 	bl	4000c228 <__malloc_unlock>
4000b8c0:	e1a00004 	mov	r0, r4
4000b8c4:	e28dd00c 	add	sp, sp, #12
4000b8c8:	e8bd4ff0 	pop	{r4, r5, r6, r7, r8, r9, sl, fp, lr}
4000b8cc:	e12fff1e 	bx	lr
4000b8d0:	e3530014 	cmp	r3, #20
4000b8d4:	9a000044 	bls	4000b9ec <_malloc_r+0x4c4>
4000b8d8:	e3530054 	cmp	r3, #84	; 0x54
4000b8dc:	8a0000a8 	bhi	4000bb84 <_malloc_r+0x65c>
4000b8e0:	e1a03626 	lsr	r3, r6, #12
4000b8e4:	e283006f 	add	r0, r3, #111	; 0x6f
4000b8e8:	e283c06e 	add	ip, r3, #110	; 0x6e
4000b8ec:	e1a01180 	lsl	r1, r0, #3
4000b8f0:	eaffff23 	b	4000b584 <_malloc_r+0x5c>
4000b8f4:	e1a024a3 	lsr	r2, r3, #9
4000b8f8:	e3520004 	cmp	r2, #4
4000b8fc:	9a00003e 	bls	4000b9fc <_malloc_r+0x4d4>
4000b900:	e3520014 	cmp	r2, #20
4000b904:	8a0000b4 	bhi	4000bbdc <_malloc_r+0x6b4>
4000b908:	e282805c 	add	r8, r2, #92	; 0x5c
4000b90c:	e1a08188 	lsl	r8, r8, #3
4000b910:	e282105b 	add	r1, r2, #91	; 0x5b
4000b914:	e087e008 	add	lr, r7, r8
4000b918:	e7972008 	ldr	r2, [r7, r8]
4000b91c:	e24ee008 	sub	lr, lr, #8
4000b920:	e15e0002 	cmp	lr, r2
4000b924:	0a00009d 	beq	4000bba0 <_malloc_r+0x678>
4000b928:	e5921004 	ldr	r1, [r2, #4]
4000b92c:	e3c11003 	bic	r1, r1, #3
4000b930:	e1530001 	cmp	r3, r1
4000b934:	2a000090 	bcs	4000bb7c <_malloc_r+0x654>
4000b938:	e5922008 	ldr	r2, [r2, #8]
4000b93c:	e15e0002 	cmp	lr, r2
4000b940:	1afffff8 	bne	4000b928 <_malloc_r+0x400>
4000b944:	e59e200c 	ldr	r2, [lr, #12]
4000b948:	e5973004 	ldr	r3, [r7, #4]
4000b94c:	e584200c 	str	r2, [r4, #12]
4000b950:	e584e008 	str	lr, [r4, #8]
4000b954:	e5824008 	str	r4, [r2, #8]
4000b958:	e58e400c 	str	r4, [lr, #12]
4000b95c:	eaffff38 	b	4000b644 <_malloc_r+0x11c>
4000b960:	e386e001 	orr	lr, r6, #1
4000b964:	e3821001 	orr	r1, r2, #1
4000b968:	e0846006 	add	r6, r4, r6
4000b96c:	e584e004 	str	lr, [r4, #4]
4000b970:	e1a00005 	mov	r0, r5
4000b974:	e5876014 	str	r6, [r7, #20]
4000b978:	e5876010 	str	r6, [r7, #16]
4000b97c:	e586c00c 	str	ip, [r6, #12]
4000b980:	e9861002 	stmib	r6, {r1, ip}
4000b984:	e7842003 	str	r2, [r4, r3]
4000b988:	eb000226 	bl	4000c228 <__malloc_unlock>
4000b98c:	e2844008 	add	r4, r4, #8
4000b990:	eaffff76 	b	4000b770 <_malloc_r+0x248>
4000b994:	e2844001 	add	r4, r4, #1
4000b998:	e3140003 	tst	r4, #3
4000b99c:	e2811008 	add	r1, r1, #8
4000b9a0:	1affff3a 	bne	4000b690 <_malloc_r+0x168>
4000b9a4:	ea00001d 	b	4000ba20 <_malloc_r+0x4f8>
4000b9a8:	e593400c 	ldr	r4, [r3, #12]
4000b9ac:	e1530004 	cmp	r3, r4
4000b9b0:	02800002 	addeq	r0, r0, #2
4000b9b4:	0affff04 	beq	4000b5cc <_malloc_r+0xa4>
4000b9b8:	eaffff5f 	b	4000b73c <_malloc_r+0x214>
4000b9bc:	e1a04008 	mov	r4, r8
4000b9c0:	e0883003 	add	r3, r8, r3
4000b9c4:	e5932004 	ldr	r2, [r3, #4]
4000b9c8:	e598100c 	ldr	r1, [r8, #12]
4000b9cc:	e5b4c008 	ldr	ip, [r4, #8]!
4000b9d0:	e3822001 	orr	r2, r2, #1
4000b9d4:	e5832004 	str	r2, [r3, #4]
4000b9d8:	e1a00005 	mov	r0, r5
4000b9dc:	e58c100c 	str	r1, [ip, #12]
4000b9e0:	e581c008 	str	ip, [r1, #8]
4000b9e4:	eb00020f 	bl	4000c228 <__malloc_unlock>
4000b9e8:	eaffff60 	b	4000b770 <_malloc_r+0x248>
4000b9ec:	e283005c 	add	r0, r3, #92	; 0x5c
4000b9f0:	e283c05b 	add	ip, r3, #91	; 0x5b
4000b9f4:	e1a01180 	lsl	r1, r0, #3
4000b9f8:	eafffee1 	b	4000b584 <_malloc_r+0x5c>
4000b9fc:	e1a02323 	lsr	r2, r3, #6
4000ba00:	e2828039 	add	r8, r2, #57	; 0x39
4000ba04:	e1a08188 	lsl	r8, r8, #3
4000ba08:	e2821038 	add	r1, r2, #56	; 0x38
4000ba0c:	eaffffc0 	b	4000b914 <_malloc_r+0x3ec>
4000ba10:	e4193008 	ldr	r3, [r9], #-8
4000ba14:	e1590003 	cmp	r9, r3
4000ba18:	e2400001 	sub	r0, r0, #1
4000ba1c:	1a000097 	bne	4000bc80 <_malloc_r+0x758>
4000ba20:	e3100003 	tst	r0, #3
4000ba24:	1afffff9 	bne	4000ba10 <_malloc_r+0x4e8>
4000ba28:	e5973004 	ldr	r3, [r7, #4]
4000ba2c:	e1c3300e 	bic	r3, r3, lr
4000ba30:	e5873004 	str	r3, [r7, #4]
4000ba34:	e1b0e08e 	lsls	lr, lr, #1
4000ba38:	13a02001 	movne	r2, #1
4000ba3c:	03a02000 	moveq	r2, #0
4000ba40:	e15e0003 	cmp	lr, r3
4000ba44:	83a02000 	movhi	r2, #0
4000ba48:	92022001 	andls	r2, r2, #1
4000ba4c:	e3520000 	cmp	r2, #0
4000ba50:	0affff60 	beq	4000b7d8 <_malloc_r+0x2b0>
4000ba54:	e11e0003 	tst	lr, r3
4000ba58:	e1a00004 	mov	r0, r4
4000ba5c:	1affff08 	bne	4000b684 <_malloc_r+0x15c>
4000ba60:	e1a0e08e 	lsl	lr, lr, #1
4000ba64:	e11e0003 	tst	lr, r3
4000ba68:	e2800004 	add	r0, r0, #4
4000ba6c:	0afffffb 	beq	4000ba60 <_malloc_r+0x538>
4000ba70:	eaffff03 	b	4000b684 <_malloc_r+0x15c>
4000ba74:	e59f8228 	ldr	r8, [pc, #552]	; 4000bca4 <_malloc_r+0x77c>
4000ba78:	e5981000 	ldr	r1, [r8]
4000ba7c:	e1530000 	cmp	r3, r0
4000ba80:	e0821001 	add	r1, r2, r1
4000ba84:	e5881000 	str	r1, [r8]
4000ba88:	0a00005e 	beq	4000bc08 <_malloc_r+0x6e0>
4000ba8c:	e59a0000 	ldr	r0, [sl]
4000ba90:	e3700001 	cmn	r0, #1
4000ba94:	104b3003 	subne	r3, fp, r3
4000ba98:	10831001 	addne	r1, r3, r1
4000ba9c:	058ab000 	streq	fp, [sl]
4000baa0:	15881000 	strne	r1, [r8]
4000baa4:	e21b1007 	ands	r1, fp, #7
4000baa8:	03a01a01 	moveq	r1, #4096	; 0x1000
4000baac:	12613008 	rsbne	r3, r1, #8
4000bab0:	108bb003 	addne	fp, fp, r3
4000bab4:	e08b2002 	add	r2, fp, r2
4000bab8:	12611a01 	rsbne	r1, r1, #4096	; 0x1000
4000babc:	e1a02a02 	lsl	r2, r2, #20
4000bac0:	12811008 	addne	r1, r1, #8
4000bac4:	e1a02a22 	lsr	r2, r2, #20
4000bac8:	e041a002 	sub	sl, r1, r2
4000bacc:	e1a0100a 	mov	r1, sl
4000bad0:	e1a00005 	mov	r0, r5
4000bad4:	ebffd5be 	bl	400011d4 <_sbrk_r>
4000bad8:	e3700001 	cmn	r0, #1
4000badc:	03a0a000 	moveq	sl, #0
4000bae0:	03a03001 	moveq	r3, #1
4000bae4:	1040300b 	subne	r3, r0, fp
4000bae8:	e5981000 	ldr	r1, [r8]
4000baec:	1083300a 	addne	r3, r3, sl
4000baf0:	13833001 	orrne	r3, r3, #1
4000baf4:	e08a1001 	add	r1, sl, r1
4000baf8:	e1540007 	cmp	r4, r7
4000bafc:	e587b008 	str	fp, [r7, #8]
4000bb00:	e5881000 	str	r1, [r8]
4000bb04:	e58b3004 	str	r3, [fp, #4]
4000bb08:	0a00000f 	beq	4000bb4c <_malloc_r+0x624>
4000bb0c:	e359000f 	cmp	r9, #15
4000bb10:	93a03001 	movls	r3, #1
4000bb14:	958b3004 	strls	r3, [fp, #4]
4000bb18:	9affff5b 	bls	4000b88c <_malloc_r+0x364>
4000bb1c:	e3a00005 	mov	r0, #5
4000bb20:	e5942004 	ldr	r2, [r4, #4]
4000bb24:	e249300c 	sub	r3, r9, #12
4000bb28:	e3c33007 	bic	r3, r3, #7
4000bb2c:	e2022001 	and	r2, r2, #1
4000bb30:	e1822003 	orr	r2, r2, r3
4000bb34:	e353000f 	cmp	r3, #15
4000bb38:	e0843003 	add	r3, r4, r3
4000bb3c:	e5842004 	str	r2, [r4, #4]
4000bb40:	e5830004 	str	r0, [r3, #4]
4000bb44:	e5830008 	str	r0, [r3, #8]
4000bb48:	8a000037 	bhi	4000bc2c <_malloc_r+0x704>
4000bb4c:	e59f3154 	ldr	r3, [pc, #340]	; 4000bca8 <_malloc_r+0x780>
4000bb50:	e5932000 	ldr	r2, [r3]
4000bb54:	e1510002 	cmp	r1, r2
4000bb58:	e59f214c 	ldr	r2, [pc, #332]	; 4000bcac <_malloc_r+0x784>
4000bb5c:	85831000 	strhi	r1, [r3]
4000bb60:	e5974008 	ldr	r4, [r7, #8]
4000bb64:	e5923000 	ldr	r3, [r2]
4000bb68:	e1510003 	cmp	r1, r3
4000bb6c:	e5943004 	ldr	r3, [r4, #4]
4000bb70:	85821000 	strhi	r1, [r2]
4000bb74:	e3c33003 	bic	r3, r3, #3
4000bb78:	eaffff3b 	b	4000b86c <_malloc_r+0x344>
4000bb7c:	e1a0e002 	mov	lr, r2
4000bb80:	eaffff6f 	b	4000b944 <_malloc_r+0x41c>
4000bb84:	e3530f55 	cmp	r3, #340	; 0x154
4000bb88:	8a00000b 	bhi	4000bbbc <_malloc_r+0x694>
4000bb8c:	e1a037a6 	lsr	r3, r6, #15
4000bb90:	e2830078 	add	r0, r3, #120	; 0x78
4000bb94:	e283c077 	add	ip, r3, #119	; 0x77
4000bb98:	e1a01180 	lsl	r1, r0, #3
4000bb9c:	eafffe78 	b	4000b584 <_malloc_r+0x5c>
4000bba0:	e3a08001 	mov	r8, #1
4000bba4:	e5973004 	ldr	r3, [r7, #4]
4000bba8:	e1a02141 	asr	r2, r1, #2
4000bbac:	e1833218 	orr	r3, r3, r8, lsl r2
4000bbb0:	e5873004 	str	r3, [r7, #4]
4000bbb4:	e1a0200e 	mov	r2, lr
4000bbb8:	eaffff63 	b	4000b94c <_malloc_r+0x424>
4000bbbc:	e59f20ec 	ldr	r2, [pc, #236]	; 4000bcb0 <_malloc_r+0x788>
4000bbc0:	e1530002 	cmp	r3, r2
4000bbc4:	8a00000b 	bhi	4000bbf8 <_malloc_r+0x6d0>
4000bbc8:	e1a03926 	lsr	r3, r6, #18
4000bbcc:	e283007d 	add	r0, r3, #125	; 0x7d
4000bbd0:	e283c07c 	add	ip, r3, #124	; 0x7c
4000bbd4:	e1a01180 	lsl	r1, r0, #3
4000bbd8:	eafffe69 	b	4000b584 <_malloc_r+0x5c>
4000bbdc:	e3520054 	cmp	r2, #84	; 0x54
4000bbe0:	8a000016 	bhi	4000bc40 <_malloc_r+0x718>
4000bbe4:	e1a02623 	lsr	r2, r3, #12
4000bbe8:	e282806f 	add	r8, r2, #111	; 0x6f
4000bbec:	e1a08188 	lsl	r8, r8, #3
4000bbf0:	e282106e 	add	r1, r2, #110	; 0x6e
4000bbf4:	eaffff46 	b	4000b914 <_malloc_r+0x3ec>
4000bbf8:	e3a01ffe 	mov	r1, #1016	; 0x3f8
4000bbfc:	e3a0007f 	mov	r0, #127	; 0x7f
4000bc00:	e3a0c07e 	mov	ip, #126	; 0x7e
4000bc04:	eafffe5e 	b	4000b584 <_malloc_r+0x5c>
4000bc08:	e1a00a03 	lsl	r0, r3, #20
4000bc0c:	e1a00a20 	lsr	r0, r0, #20
4000bc10:	e3500000 	cmp	r0, #0
4000bc14:	1affff9c 	bne	4000ba8c <_malloc_r+0x564>
4000bc18:	e0893002 	add	r3, r9, r2
4000bc1c:	e5972008 	ldr	r2, [r7, #8]
4000bc20:	e3833001 	orr	r3, r3, #1
4000bc24:	e5823004 	str	r3, [r2, #4]
4000bc28:	eaffffc7 	b	4000bb4c <_malloc_r+0x624>
4000bc2c:	e2841008 	add	r1, r4, #8
4000bc30:	e1a00005 	mov	r0, r5
4000bc34:	eb001e92 	bl	40013684 <_free_r>
4000bc38:	e5981000 	ldr	r1, [r8]
4000bc3c:	eaffffc2 	b	4000bb4c <_malloc_r+0x624>
4000bc40:	e3520f55 	cmp	r2, #340	; 0x154
4000bc44:	8a000004 	bhi	4000bc5c <_malloc_r+0x734>
4000bc48:	e1a027a3 	lsr	r2, r3, #15
4000bc4c:	e2828078 	add	r8, r2, #120	; 0x78
4000bc50:	e1a08188 	lsl	r8, r8, #3
4000bc54:	e2821077 	add	r1, r2, #119	; 0x77
4000bc58:	eaffff2d 	b	4000b914 <_malloc_r+0x3ec>
4000bc5c:	e59f104c 	ldr	r1, [pc, #76]	; 4000bcb0 <_malloc_r+0x788>
4000bc60:	e1520001 	cmp	r2, r1
4000bc64:	91a02923 	lsrls	r2, r3, #18
4000bc68:	9282807d 	addls	r8, r2, #125	; 0x7d
4000bc6c:	91a08188 	lslls	r8, r8, #3
4000bc70:	9282107c 	addls	r1, r2, #124	; 0x7c
4000bc74:	83a08ffe 	movhi	r8, #1016	; 0x3f8
4000bc78:	83a0107e 	movhi	r1, #126	; 0x7e
4000bc7c:	eaffff24 	b	4000b914 <_malloc_r+0x3ec>
4000bc80:	e5973004 	ldr	r3, [r7, #4]
4000bc84:	eaffff6a 	b	4000ba34 <_malloc_r+0x50c>
4000bc88:	e1a001a6 	lsr	r0, r6, #3
4000bc8c:	e2863008 	add	r3, r6, #8
4000bc90:	eafffea3 	b	4000b724 <_malloc_r+0x1fc>
4000bc94:	40019f90 	.word	0x40019f90
4000bc98:	40019f98 	.word	0x40019f98
4000bc9c:	4001a398 	.word	0x4001a398
4000bca0:	4011a57c 	.word	0x4011a57c
4000bca4:	4011a54c 	.word	0x4011a54c
4000bca8:	4011a574 	.word	0x4011a574
4000bcac:	4011a578 	.word	0x4011a578
4000bcb0:	00000554 	.word	0x00000554

Disassembly of section .text.memchr:

4000bcb4 <memchr>:
4000bcb4:	e3100003 	tst	r0, #3
4000bcb8:	e92d4070 	push	{r4, r5, r6, lr}
4000bcbc:	e201e0ff 	and	lr, r1, #255	; 0xff
4000bcc0:	0a000038 	beq	4000bda8 <memchr+0xf4>
4000bcc4:	e3520000 	cmp	r2, #0
4000bcc8:	e242c001 	sub	ip, r2, #1
4000bccc:	0a00001e 	beq	4000bd4c <memchr+0x98>
4000bcd0:	e5d03000 	ldrb	r3, [r0]
4000bcd4:	e153000e 	cmp	r3, lr
4000bcd8:	0a00001c 	beq	4000bd50 <memchr+0x9c>
4000bcdc:	e2803001 	add	r3, r0, #1
4000bce0:	ea000005 	b	4000bcfc <memchr+0x48>
4000bce4:	e25cc001 	subs	ip, ip, #1
4000bce8:	3a000017 	bcc	4000bd4c <memchr+0x98>
4000bcec:	e5d02000 	ldrb	r2, [r0]
4000bcf0:	e152000e 	cmp	r2, lr
4000bcf4:	e2833001 	add	r3, r3, #1
4000bcf8:	0a000014 	beq	4000bd50 <memchr+0x9c>
4000bcfc:	e3130003 	tst	r3, #3
4000bd00:	e1a00003 	mov	r0, r3
4000bd04:	1afffff6 	bne	4000bce4 <memchr+0x30>
4000bd08:	e35c0003 	cmp	ip, #3
4000bd0c:	8a000011 	bhi	4000bd58 <memchr+0xa4>
4000bd10:	e35c0000 	cmp	ip, #0
4000bd14:	0a000025 	beq	4000bdb0 <memchr+0xfc>
4000bd18:	e5d03000 	ldrb	r3, [r0]
4000bd1c:	e153000e 	cmp	r3, lr
4000bd20:	0a00000a 	beq	4000bd50 <memchr+0x9c>
4000bd24:	e080c00c 	add	ip, r0, ip
4000bd28:	e2803001 	add	r3, r0, #1
4000bd2c:	ea000003 	b	4000bd40 <memchr+0x8c>
4000bd30:	e5d02000 	ldrb	r2, [r0]
4000bd34:	e152000e 	cmp	r2, lr
4000bd38:	e2833001 	add	r3, r3, #1
4000bd3c:	0a000003 	beq	4000bd50 <memchr+0x9c>
4000bd40:	e15c0003 	cmp	ip, r3
4000bd44:	e1a00003 	mov	r0, r3
4000bd48:	1afffff8 	bne	4000bd30 <memchr+0x7c>
4000bd4c:	e3a00000 	mov	r0, #0
4000bd50:	e8bd4070 	pop	{r4, r5, r6, lr}
4000bd54:	e12fff1e 	bx	lr
4000bd58:	e59f4058 	ldr	r4, [pc, #88]	; 4000bdb8 <memchr+0x104>
4000bd5c:	e0044401 	and	r4, r4, r1, lsl #8
4000bd60:	e184400e 	orr	r4, r4, lr
4000bd64:	e59f6050 	ldr	r6, [pc, #80]	; 4000bdbc <memchr+0x108>
4000bd68:	e59f5050 	ldr	r5, [pc, #80]	; 4000bdc0 <memchr+0x10c>
4000bd6c:	e1844804 	orr	r4, r4, r4, lsl #16
4000bd70:	e5903000 	ldr	r3, [r0]
4000bd74:	e0233004 	eor	r3, r3, r4
4000bd78:	e0832006 	add	r2, r3, r6
4000bd7c:	e1c23003 	bic	r3, r2, r3
4000bd80:	e1130005 	tst	r3, r5
4000bd84:	e1a01000 	mov	r1, r0
4000bd88:	e2800004 	add	r0, r0, #4
4000bd8c:	1a000003 	bne	4000bda0 <memchr+0xec>
4000bd90:	e24cc004 	sub	ip, ip, #4
4000bd94:	e35c0003 	cmp	ip, #3
4000bd98:	8afffff4 	bhi	4000bd70 <memchr+0xbc>
4000bd9c:	eaffffdb 	b	4000bd10 <memchr+0x5c>
4000bda0:	e1a00001 	mov	r0, r1
4000bda4:	eaffffdb 	b	4000bd18 <memchr+0x64>
4000bda8:	e1a0c002 	mov	ip, r2
4000bdac:	eaffffd5 	b	4000bd08 <memchr+0x54>
4000bdb0:	e1a0000c 	mov	r0, ip
4000bdb4:	eaffffe5 	b	4000bd50 <memchr+0x9c>
4000bdb8:	0000ffff 	.word	0x0000ffff
4000bdbc:	fefefeff 	.word	0xfefefeff
4000bdc0:	80808080 	.word	0x80808080

Disassembly of section .text.memcmp:

4000bdc4 <memcmp>:
4000bdc4:	e3520003 	cmp	r2, #3
4000bdc8:	8a000010 	bhi	4000be10 <memcmp+0x4c>
4000bdcc:	e3520000 	cmp	r2, #0
4000bdd0:	0a00000c 	beq	4000be08 <memcmp+0x44>
4000bdd4:	e5d1c000 	ldrb	ip, [r1]
4000bdd8:	e5d03000 	ldrb	r3, [r0]
4000bddc:	e153000c 	cmp	r3, ip
4000bde0:	00812002 	addeq	r2, r1, r2
4000bde4:	02811001 	addeq	r1, r1, #1
4000bde8:	0a000004 	beq	4000be00 <memcmp+0x3c>
4000bdec:	ea000028 	b	4000be94 <memcmp+0xd0>
4000bdf0:	e5f03001 	ldrb	r3, [r0, #1]!
4000bdf4:	e4d1c001 	ldrb	ip, [r1], #1
4000bdf8:	e153000c 	cmp	r3, ip
4000bdfc:	1a000024 	bne	4000be94 <memcmp+0xd0>
4000be00:	e1510002 	cmp	r1, r2
4000be04:	1afffff9 	bne	4000bdf0 <memcmp+0x2c>
4000be08:	e3a00000 	mov	r0, #0
4000be0c:	e12fff1e 	bx	lr
4000be10:	e1803001 	orr	r3, r0, r1
4000be14:	e3130003 	tst	r3, #3
4000be18:	1affffed 	bne	4000bdd4 <memcmp+0x10>
4000be1c:	e92d4010 	push	{r4, lr}
4000be20:	e591e000 	ldr	lr, [r1]
4000be24:	e5904000 	ldr	r4, [r0]
4000be28:	e154000e 	cmp	r4, lr
4000be2c:	e1a0c001 	mov	ip, r1
4000be30:	e1a03000 	mov	r3, r0
4000be34:	e2811004 	add	r1, r1, #4
4000be38:	e2800004 	add	r0, r0, #4
4000be3c:	1a000019 	bne	4000bea8 <memcmp+0xe4>
4000be40:	e2422004 	sub	r2, r2, #4
4000be44:	e3520003 	cmp	r2, #3
4000be48:	8afffff4 	bhi	4000be20 <memcmp+0x5c>
4000be4c:	e3520000 	cmp	r2, #0
4000be50:	0a00000c 	beq	4000be88 <memcmp+0xc4>
4000be54:	e5d1c000 	ldrb	ip, [r1]
4000be58:	e5d03000 	ldrb	r3, [r0]
4000be5c:	e153000c 	cmp	r3, ip
4000be60:	00812002 	addeq	r2, r1, r2
4000be64:	02811001 	addeq	r1, r1, #1
4000be68:	0a000004 	beq	4000be80 <memcmp+0xbc>
4000be6c:	ea00000a 	b	4000be9c <memcmp+0xd8>
4000be70:	e5f03001 	ldrb	r3, [r0, #1]!
4000be74:	e4d1c001 	ldrb	ip, [r1], #1
4000be78:	e153000c 	cmp	r3, ip
4000be7c:	1a000006 	bne	4000be9c <memcmp+0xd8>
4000be80:	e1510002 	cmp	r1, r2
4000be84:	1afffff9 	bne	4000be70 <memcmp+0xac>
4000be88:	e3a00000 	mov	r0, #0
4000be8c:	e8bd4010 	pop	{r4, lr}
4000be90:	e12fff1e 	bx	lr
4000be94:	e043000c 	sub	r0, r3, ip
4000be98:	e12fff1e 	bx	lr
4000be9c:	e043000c 	sub	r0, r3, ip
4000bea0:	e8bd4010 	pop	{r4, lr}
4000bea4:	e12fff1e 	bx	lr
4000bea8:	e1a0100c 	mov	r1, ip
4000beac:	e1a00003 	mov	r0, r3
4000beb0:	eaffffe7 	b	4000be54 <memcmp+0x90>

Disassembly of section .text.memcpy:

4000beb4 <memcpy>:
4000beb4:	e352000f 	cmp	r2, #15
4000beb8:	8a000009 	bhi	4000bee4 <memcpy+0x30>
4000bebc:	e3520000 	cmp	r2, #0
4000bec0:	e1a03000 	mov	r3, r0
4000bec4:	0a00003c 	beq	4000bfbc <memcpy+0x108>
4000bec8:	e2433001 	sub	r3, r3, #1
4000becc:	e0812002 	add	r2, r1, r2
4000bed0:	e4d1c001 	ldrb	ip, [r1], #1
4000bed4:	e1510002 	cmp	r1, r2
4000bed8:	e5e3c001 	strb	ip, [r3, #1]!
4000bedc:	1afffffb 	bne	4000bed0 <memcpy+0x1c>
4000bee0:	e12fff1e 	bx	lr
4000bee4:	e1813000 	orr	r3, r1, r0
4000bee8:	e3130003 	tst	r3, #3
4000beec:	1a000030 	bne	4000bfb4 <memcpy+0x100>
4000bef0:	e92d40f0 	push	{r4, r5, r6, r7, lr}
4000bef4:	e1a0e002 	mov	lr, r2
4000bef8:	e280c010 	add	ip, r0, #16
4000befc:	e2813010 	add	r3, r1, #16
4000bf00:	e5137010 	ldr	r7, [r3, #-16]
4000bf04:	e513600c 	ldr	r6, [r3, #-12]
4000bf08:	e5135008 	ldr	r5, [r3, #-8]
4000bf0c:	e5134004 	ldr	r4, [r3, #-4]
4000bf10:	e24ee010 	sub	lr, lr, #16
4000bf14:	e35e000f 	cmp	lr, #15
4000bf18:	e50c7010 	str	r7, [ip, #-16]
4000bf1c:	e50c600c 	str	r6, [ip, #-12]
4000bf20:	e50c5008 	str	r5, [ip, #-8]
4000bf24:	e50c4004 	str	r4, [ip, #-4]
4000bf28:	e2833010 	add	r3, r3, #16
4000bf2c:	e28cc010 	add	ip, ip, #16
4000bf30:	8afffff2 	bhi	4000bf00 <memcpy+0x4c>
4000bf34:	e2423010 	sub	r3, r2, #16
4000bf38:	e3c3300f 	bic	r3, r3, #15
4000bf3c:	e202600f 	and	r6, r2, #15
4000bf40:	e2833010 	add	r3, r3, #16
4000bf44:	e3560003 	cmp	r6, #3
4000bf48:	e0811003 	add	r1, r1, r3
4000bf4c:	e0803003 	add	r3, r0, r3
4000bf50:	9a00001a 	bls	4000bfc0 <memcpy+0x10c>
4000bf54:	e1a04001 	mov	r4, r1
4000bf58:	e1a0c006 	mov	ip, r6
4000bf5c:	e243e004 	sub	lr, r3, #4
4000bf60:	e24cc004 	sub	ip, ip, #4
4000bf64:	e4945004 	ldr	r5, [r4], #4
4000bf68:	e35c0003 	cmp	ip, #3
4000bf6c:	e5ae5004 	str	r5, [lr, #4]!
4000bf70:	8afffffa 	bhi	4000bf60 <memcpy+0xac>
4000bf74:	e246c004 	sub	ip, r6, #4
4000bf78:	e3ccc003 	bic	ip, ip, #3
4000bf7c:	e28cc004 	add	ip, ip, #4
4000bf80:	e081100c 	add	r1, r1, ip
4000bf84:	e083300c 	add	r3, r3, ip
4000bf88:	e2022003 	and	r2, r2, #3
4000bf8c:	e3520000 	cmp	r2, #0
4000bf90:	12433001 	subne	r3, r3, #1
4000bf94:	10812002 	addne	r2, r1, r2
4000bf98:	0a000003 	beq	4000bfac <memcpy+0xf8>
4000bf9c:	e4d1c001 	ldrb	ip, [r1], #1
4000bfa0:	e1510002 	cmp	r1, r2
4000bfa4:	e5e3c001 	strb	ip, [r3, #1]!
4000bfa8:	1afffffb 	bne	4000bf9c <memcpy+0xe8>
4000bfac:	e8bd40f0 	pop	{r4, r5, r6, r7, lr}
4000bfb0:	e12fff1e 	bx	lr
4000bfb4:	e1a03000 	mov	r3, r0
4000bfb8:	eaffffc2 	b	4000bec8 <memcpy+0x14>
4000bfbc:	e12fff1e 	bx	lr
4000bfc0:	e1a02006 	mov	r2, r6
4000bfc4:	eafffff0 	b	4000bf8c <memcpy+0xd8>

Disassembly of section .text.memmove:

4000bfc8 <memmove>:
4000bfc8:	e1500001 	cmp	r0, r1
4000bfcc:	9a00000a 	bls	4000bffc <memmove+0x34>
4000bfd0:	e0813002 	add	r3, r1, r2
4000bfd4:	e1500003 	cmp	r0, r3
4000bfd8:	2a000007 	bcs	4000bffc <memmove+0x34>
4000bfdc:	e3520000 	cmp	r2, #0
4000bfe0:	e0802002 	add	r2, r0, r2
4000bfe4:	012fff1e 	bxeq	lr
4000bfe8:	e573c001 	ldrb	ip, [r3, #-1]!
4000bfec:	e1510003 	cmp	r1, r3
4000bff0:	e562c001 	strb	ip, [r2, #-1]!
4000bff4:	1afffffb 	bne	4000bfe8 <memmove+0x20>
4000bff8:	e12fff1e 	bx	lr
4000bffc:	e352000f 	cmp	r2, #15
4000c000:	8a000009 	bhi	4000c02c <memmove+0x64>
4000c004:	e3520000 	cmp	r2, #0
4000c008:	e1a03000 	mov	r3, r0
4000c00c:	0a00003c 	beq	4000c104 <memmove+0x13c>
4000c010:	e2433001 	sub	r3, r3, #1
4000c014:	e0812002 	add	r2, r1, r2
4000c018:	e4d1c001 	ldrb	ip, [r1], #1
4000c01c:	e1520001 	cmp	r2, r1
4000c020:	e5e3c001 	strb	ip, [r3, #1]!
4000c024:	1afffffb 	bne	4000c018 <memmove+0x50>
4000c028:	e12fff1e 	bx	lr
4000c02c:	e1813000 	orr	r3, r1, r0
4000c030:	e3130003 	tst	r3, #3
4000c034:	1a000030 	bne	4000c0fc <memmove+0x134>
4000c038:	e92d4070 	push	{r4, r5, r6, lr}
4000c03c:	e1a0e002 	mov	lr, r2
4000c040:	e280c010 	add	ip, r0, #16
4000c044:	e2813010 	add	r3, r1, #16
4000c048:	e5134010 	ldr	r4, [r3, #-16]
4000c04c:	e50c4010 	str	r4, [ip, #-16]
4000c050:	e513400c 	ldr	r4, [r3, #-12]
4000c054:	e50c400c 	str	r4, [ip, #-12]
4000c058:	e5134008 	ldr	r4, [r3, #-8]
4000c05c:	e50c4008 	str	r4, [ip, #-8]
4000c060:	e24ee010 	sub	lr, lr, #16
4000c064:	e5134004 	ldr	r4, [r3, #-4]
4000c068:	e35e000f 	cmp	lr, #15
4000c06c:	e50c4004 	str	r4, [ip, #-4]
4000c070:	e2833010 	add	r3, r3, #16
4000c074:	e28cc010 	add	ip, ip, #16
4000c078:	8afffff2 	bhi	4000c048 <memmove+0x80>
4000c07c:	e2423010 	sub	r3, r2, #16
4000c080:	e3c3300f 	bic	r3, r3, #15
4000c084:	e202600f 	and	r6, r2, #15
4000c088:	e2833010 	add	r3, r3, #16
4000c08c:	e3560003 	cmp	r6, #3
4000c090:	e0811003 	add	r1, r1, r3
4000c094:	e0803003 	add	r3, r0, r3
4000c098:	9a00001a 	bls	4000c108 <memmove+0x140>
4000c09c:	e1a04001 	mov	r4, r1
4000c0a0:	e1a0c006 	mov	ip, r6
4000c0a4:	e243e004 	sub	lr, r3, #4
4000c0a8:	e24cc004 	sub	ip, ip, #4
4000c0ac:	e4945004 	ldr	r5, [r4], #4
4000c0b0:	e35c0003 	cmp	ip, #3
4000c0b4:	e5ae5004 	str	r5, [lr, #4]!
4000c0b8:	8afffffa 	bhi	4000c0a8 <memmove+0xe0>
4000c0bc:	e246c004 	sub	ip, r6, #4
4000c0c0:	e3ccc003 	bic	ip, ip, #3
4000c0c4:	e28cc004 	add	ip, ip, #4
4000c0c8:	e081100c 	add	r1, r1, ip
4000c0cc:	e083300c 	add	r3, r3, ip
4000c0d0:	e2022003 	and	r2, r2, #3
4000c0d4:	e3520000 	cmp	r2, #0
4000c0d8:	12433001 	subne	r3, r3, #1
4000c0dc:	10812002 	addne	r2, r1, r2
4000c0e0:	0a000003 	beq	4000c0f4 <memmove+0x12c>
4000c0e4:	e4d1c001 	ldrb	ip, [r1], #1
4000c0e8:	e1520001 	cmp	r2, r1
4000c0ec:	e5e3c001 	strb	ip, [r3, #1]!
4000c0f0:	1afffffb 	bne	4000c0e4 <memmove+0x11c>
4000c0f4:	e8bd4070 	pop	{r4, r5, r6, lr}
4000c0f8:	e12fff1e 	bx	lr
4000c0fc:	e1a03000 	mov	r3, r0
4000c100:	eaffffc2 	b	4000c010 <memmove+0x48>
4000c104:	e12fff1e 	bx	lr
4000c108:	e1a02006 	mov	r2, r6
4000c10c:	eafffff0 	b	4000c0d4 <memmove+0x10c>

Disassembly of section .text.memset:

4000c110 <memset>:
4000c110:	e3100003 	tst	r0, #3
4000c114:	0a000040 	beq	4000c21c <memset+0x10c>
4000c118:	e3520000 	cmp	r2, #0
4000c11c:	e2422001 	sub	r2, r2, #1
4000c120:	012fff1e 	bxeq	lr
4000c124:	e201c0ff 	and	ip, r1, #255	; 0xff
4000c128:	e1a03000 	mov	r3, r0
4000c12c:	ea000002 	b	4000c13c <memset+0x2c>
4000c130:	e2422001 	sub	r2, r2, #1
4000c134:	e3720001 	cmn	r2, #1
4000c138:	012fff1e 	bxeq	lr
4000c13c:	e4c3c001 	strb	ip, [r3], #1
4000c140:	e3130003 	tst	r3, #3
4000c144:	1afffff9 	bne	4000c130 <memset+0x20>
4000c148:	e3520003 	cmp	r2, #3
4000c14c:	9a00002a 	bls	4000c1fc <memset+0xec>
4000c150:	e92d4010 	push	{r4, lr}
4000c154:	e201e0ff 	and	lr, r1, #255	; 0xff
4000c158:	e18ee40e 	orr	lr, lr, lr, lsl #8
4000c15c:	e352000f 	cmp	r2, #15
4000c160:	e18ee80e 	orr	lr, lr, lr, lsl #16
4000c164:	9a000010 	bls	4000c1ac <memset+0x9c>
4000c168:	e1a04002 	mov	r4, r2
4000c16c:	e283c010 	add	ip, r3, #16
4000c170:	e2444010 	sub	r4, r4, #16
4000c174:	e354000f 	cmp	r4, #15
4000c178:	e50ce010 	str	lr, [ip, #-16]
4000c17c:	e50ce00c 	str	lr, [ip, #-12]
4000c180:	e50ce008 	str	lr, [ip, #-8]
4000c184:	e50ce004 	str	lr, [ip, #-4]
4000c188:	e28cc010 	add	ip, ip, #16
4000c18c:	8afffff7 	bhi	4000c170 <memset+0x60>
4000c190:	e242c010 	sub	ip, r2, #16
4000c194:	e3ccc00f 	bic	ip, ip, #15
4000c198:	e202200f 	and	r2, r2, #15
4000c19c:	e28cc010 	add	ip, ip, #16
4000c1a0:	e3520003 	cmp	r2, #3
4000c1a4:	e083300c 	add	r3, r3, ip
4000c1a8:	9a00000a 	bls	4000c1d8 <memset+0xc8>
4000c1ac:	e1a04003 	mov	r4, r3
4000c1b0:	e1a0c002 	mov	ip, r2
4000c1b4:	e24cc004 	sub	ip, ip, #4
4000c1b8:	e35c0003 	cmp	ip, #3
4000c1bc:	e484e004 	str	lr, [r4], #4
4000c1c0:	8afffffb 	bhi	4000c1b4 <memset+0xa4>
4000c1c4:	e242c004 	sub	ip, r2, #4
4000c1c8:	e3ccc003 	bic	ip, ip, #3
4000c1cc:	e28cc004 	add	ip, ip, #4
4000c1d0:	e083300c 	add	r3, r3, ip
4000c1d4:	e2022003 	and	r2, r2, #3
4000c1d8:	e3520000 	cmp	r2, #0
4000c1dc:	0a000004 	beq	4000c1f4 <memset+0xe4>
4000c1e0:	e20110ff 	and	r1, r1, #255	; 0xff
4000c1e4:	e0832002 	add	r2, r3, r2
4000c1e8:	e4c31001 	strb	r1, [r3], #1
4000c1ec:	e1520003 	cmp	r2, r3
4000c1f0:	1afffffc 	bne	4000c1e8 <memset+0xd8>
4000c1f4:	e8bd4010 	pop	{r4, lr}
4000c1f8:	e12fff1e 	bx	lr
4000c1fc:	e3520000 	cmp	r2, #0
4000c200:	012fff1e 	bxeq	lr
4000c204:	e20110ff 	and	r1, r1, #255	; 0xff
4000c208:	e0832002 	add	r2, r3, r2
4000c20c:	e4c31001 	strb	r1, [r3], #1
4000c210:	e1520003 	cmp	r2, r3
4000c214:	1afffffc 	bne	4000c20c <memset+0xfc>
4000c218:	e12fff1e 	bx	lr
4000c21c:	e1a03000 	mov	r3, r0
4000c220:	eaffffc8 	b	4000c148 <memset+0x38>

Disassembly of section .text.__malloc_lock:

4000c224 <__malloc_lock>:
4000c224:	e12fff1e 	bx	lr

Disassembly of section .text.__malloc_unlock:

4000c228 <__malloc_unlock>:
4000c228:	e12fff1e 	bx	lr

Disassembly of section .text._printf_r:

4000c22c <_printf_r>:
4000c22c:	e92d000e 	push	{r1, r2, r3}
4000c230:	e52de004 	push	{lr}		; (str lr, [sp, #-4]!)
4000c234:	e24dd008 	sub	sp, sp, #8
4000c238:	e28dc010 	add	ip, sp, #16
4000c23c:	e1a0300c 	mov	r3, ip
4000c240:	e59d200c 	ldr	r2, [sp, #12]
4000c244:	e5901008 	ldr	r1, [r0, #8]
4000c248:	e58dc004 	str	ip, [sp, #4]
4000c24c:	eb000b72 	bl	4000f01c <_vfprintf_r>
4000c250:	e28dd008 	add	sp, sp, #8
4000c254:	e49de004 	pop	{lr}		; (ldr lr, [sp], #4)
4000c258:	e28dd00c 	add	sp, sp, #12
4000c25c:	e12fff1e 	bx	lr

Disassembly of section .text.printf:

4000c260 <printf>:
4000c260:	e92d000f 	push	{r0, r1, r2, r3}
4000c264:	e52de004 	push	{lr}		; (str lr, [sp, #-4]!)
4000c268:	e59f302c 	ldr	r3, [pc, #44]	; 4000c29c <printf+0x3c>
4000c26c:	e24dd00c 	sub	sp, sp, #12
4000c270:	e5930000 	ldr	r0, [r3]
4000c274:	e28dc014 	add	ip, sp, #20
4000c278:	e5901008 	ldr	r1, [r0, #8]
4000c27c:	e1a0300c 	mov	r3, ip
4000c280:	e59d2010 	ldr	r2, [sp, #16]
4000c284:	e58dc004 	str	ip, [sp, #4]
4000c288:	eb000b63 	bl	4000f01c <_vfprintf_r>
4000c28c:	e28dd00c 	add	sp, sp, #12
4000c290:	e49de004 	pop	{lr}		; (ldr lr, [sp], #4)
4000c294:	e28dd010 	add	sp, sp, #16
4000c298:	e12fff1e 	bx	lr
4000c29c:	40019b60 	.word	0x40019b60

Disassembly of section .text._putc_r:

4000c2a0 <_putc_r>:
4000c2a0:	e92d4070 	push	{r4, r5, r6, lr}
4000c2a4:	e2506000 	subs	r6, r0, #0
4000c2a8:	e1a05001 	mov	r5, r1
4000c2ac:	e1a04002 	mov	r4, r2
4000c2b0:	0a000002 	beq	4000c2c0 <_putc_r+0x20>
4000c2b4:	e5963038 	ldr	r3, [r6, #56]	; 0x38
4000c2b8:	e3530000 	cmp	r3, #0
4000c2bc:	0b001c96 	bleq	4001351c <__sinit>
4000c2c0:	e5943008 	ldr	r3, [r4, #8]
4000c2c4:	e2433001 	sub	r3, r3, #1
4000c2c8:	e3530000 	cmp	r3, #0
4000c2cc:	e5843008 	str	r3, [r4, #8]
4000c2d0:	ba000006 	blt	4000c2f0 <_putc_r+0x50>
4000c2d4:	e20500ff 	and	r0, r5, #255	; 0xff
4000c2d8:	e5943000 	ldr	r3, [r4]
4000c2dc:	e2832001 	add	r2, r3, #1
4000c2e0:	e5842000 	str	r2, [r4]
4000c2e4:	e5c35000 	strb	r5, [r3]
4000c2e8:	e8bd4070 	pop	{r4, r5, r6, lr}
4000c2ec:	e12fff1e 	bx	lr
4000c2f0:	e5942018 	ldr	r2, [r4, #24]
4000c2f4:	e1530002 	cmp	r3, r2
4000c2f8:	ba000002 	blt	4000c308 <_putc_r+0x68>
4000c2fc:	e20500ff 	and	r0, r5, #255	; 0xff
4000c300:	e350000a 	cmp	r0, #10
4000c304:	1afffff3 	bne	4000c2d8 <_putc_r+0x38>
4000c308:	e1a02004 	mov	r2, r4
4000c30c:	e1a01005 	mov	r1, r5
4000c310:	e1a00006 	mov	r0, r6
4000c314:	eb0013be 	bl	40011214 <__swbuf_r>
4000c318:	e8bd4070 	pop	{r4, r5, r6, lr}
4000c31c:	e12fff1e 	bx	lr

Disassembly of section .text.putc:

4000c320 <putc>:
4000c320:	e59f3084 	ldr	r3, [pc, #132]	; 4000c3ac <putc+0x8c>
4000c324:	e92d4070 	push	{r4, r5, r6, lr}
4000c328:	e5935000 	ldr	r5, [r3]
4000c32c:	e3550000 	cmp	r5, #0
4000c330:	e1a06000 	mov	r6, r0
4000c334:	e1a04001 	mov	r4, r1
4000c338:	0a000003 	beq	4000c34c <putc+0x2c>
4000c33c:	e5953038 	ldr	r3, [r5, #56]	; 0x38
4000c340:	e3530000 	cmp	r3, #0
4000c344:	01a00005 	moveq	r0, r5
4000c348:	0b001c73 	bleq	4001351c <__sinit>
4000c34c:	e5943008 	ldr	r3, [r4, #8]
4000c350:	e2433001 	sub	r3, r3, #1
4000c354:	e3530000 	cmp	r3, #0
4000c358:	e5843008 	str	r3, [r4, #8]
4000c35c:	ba000006 	blt	4000c37c <putc+0x5c>
4000c360:	e20600ff 	and	r0, r6, #255	; 0xff
4000c364:	e5943000 	ldr	r3, [r4]
4000c368:	e2832001 	add	r2, r3, #1
4000c36c:	e5842000 	str	r2, [r4]
4000c370:	e5c36000 	strb	r6, [r3]
4000c374:	e8bd4070 	pop	{r4, r5, r6, lr}
4000c378:	e12fff1e 	bx	lr
4000c37c:	e5942018 	ldr	r2, [r4, #24]
4000c380:	e1530002 	cmp	r3, r2
4000c384:	ba000002 	blt	4000c394 <putc+0x74>
4000c388:	e20600ff 	and	r0, r6, #255	; 0xff
4000c38c:	e350000a 	cmp	r0, #10
4000c390:	1afffff3 	bne	4000c364 <putc+0x44>
4000c394:	e1a02004 	mov	r2, r4
4000c398:	e1a01006 	mov	r1, r6
4000c39c:	e1a00005 	mov	r0, r5
4000c3a0:	eb00139b 	bl	40011214 <__swbuf_r>
4000c3a4:	e8bd4070 	pop	{r4, r5, r6, lr}
4000c3a8:	e12fff1e 	bx	lr
4000c3ac:	40019b60 	.word	0x40019b60

Disassembly of section .text.realloc:

4000c3b0 <realloc>:
4000c3b0:	e92d4010 	push	{r4, lr}
4000c3b4:	e59f3014 	ldr	r3, [pc, #20]	; 4000c3d0 <realloc+0x20>
4000c3b8:	e1a02001 	mov	r2, r1
4000c3bc:	e1a01000 	mov	r1, r0
4000c3c0:	e5930000 	ldr	r0, [r3]
4000c3c4:	eb000002 	bl	4000c3d4 <_realloc_r>
4000c3c8:	e8bd4010 	pop	{r4, lr}
4000c3cc:	e12fff1e 	bx	lr
4000c3d0:	40019b60 	.word	0x40019b60

Disassembly of section .text._realloc_r:

4000c3d4 <_realloc_r>:
4000c3d4:	e92d4ff0 	push	{r4, r5, r6, r7, r8, r9, sl, fp, lr}
4000c3d8:	e2517000 	subs	r7, r1, #0
4000c3dc:	e24dd00c 	sub	sp, sp, #12
4000c3e0:	e1a09002 	mov	r9, r2
4000c3e4:	0a00007f 	beq	4000c5e8 <_realloc_r+0x214>
4000c3e8:	e289400b 	add	r4, r9, #11
4000c3ec:	e1a08000 	mov	r8, r0
4000c3f0:	ebffff8b 	bl	4000c224 <__malloc_lock>
4000c3f4:	e3540016 	cmp	r4, #22
4000c3f8:	93a02010 	movls	r2, #16
4000c3fc:	93a03000 	movls	r3, #0
4000c400:	91a04002 	movls	r4, r2
4000c404:	83c44007 	bichi	r4, r4, #7
4000c408:	81a03fa4 	lsrhi	r3, r4, #31
4000c40c:	81a02004 	movhi	r2, r4
4000c410:	e1540009 	cmp	r4, r9
4000c414:	33833001 	orrcc	r3, r3, #1
4000c418:	e3530000 	cmp	r3, #0
4000c41c:	13a0300c 	movne	r3, #12
4000c420:	e5171004 	ldr	r1, [r7, #-4]
4000c424:	e2475008 	sub	r5, r7, #8
4000c428:	e3c16003 	bic	r6, r1, #3
4000c42c:	13a09000 	movne	r9, #0
4000c430:	15883000 	strne	r3, [r8]
4000c434:	1a00000f 	bne	4000c478 <_realloc_r+0xa4>
4000c438:	e1560002 	cmp	r6, r2
4000c43c:	ba000011 	blt	4000c488 <_realloc_r+0xb4>
4000c440:	e1a09007 	mov	r9, r7
4000c444:	e0463004 	sub	r3, r6, r4
4000c448:	e353000f 	cmp	r3, #15
4000c44c:	8a000056 	bhi	4000c5ac <_realloc_r+0x1d8>
4000c450:	e5953004 	ldr	r3, [r5, #4]
4000c454:	e2033001 	and	r3, r3, #1
4000c458:	e1833006 	orr	r3, r3, r6
4000c45c:	e5853004 	str	r3, [r5, #4]
4000c460:	e0855006 	add	r5, r5, r6
4000c464:	e5953004 	ldr	r3, [r5, #4]
4000c468:	e3833001 	orr	r3, r3, #1
4000c46c:	e5853004 	str	r3, [r5, #4]
4000c470:	e1a00008 	mov	r0, r8
4000c474:	ebffff6b 	bl	4000c228 <__malloc_unlock>
4000c478:	e1a00009 	mov	r0, r9
4000c47c:	e28dd00c 	add	sp, sp, #12
4000c480:	e8bd4ff0 	pop	{r4, r5, r6, r7, r8, r9, sl, fp, lr}
4000c484:	e12fff1e 	bx	lr
4000c488:	e59fb414 	ldr	fp, [pc, #1044]	; 4000c8a4 <_realloc_r+0x4d0>
4000c48c:	e59b3008 	ldr	r3, [fp, #8]
4000c490:	e085c006 	add	ip, r5, r6
4000c494:	e15c0003 	cmp	ip, r3
4000c498:	0a0000a5 	beq	4000c734 <_realloc_r+0x360>
4000c49c:	e59c0004 	ldr	r0, [ip, #4]
4000c4a0:	e3c03001 	bic	r3, r0, #1
4000c4a4:	e08c3003 	add	r3, ip, r3
4000c4a8:	e5933004 	ldr	r3, [r3, #4]
4000c4ac:	e3130001 	tst	r3, #1
4000c4b0:	0a000032 	beq	4000c580 <_realloc_r+0x1ac>
4000c4b4:	e3110001 	tst	r1, #1
4000c4b8:	0a000088 	beq	4000c6e0 <_realloc_r+0x30c>
4000c4bc:	e1a01009 	mov	r1, r9
4000c4c0:	e1a00008 	mov	r0, r8
4000c4c4:	ebfffc17 	bl	4000b528 <_malloc_r>
4000c4c8:	e2509000 	subs	r9, r0, #0
4000c4cc:	0affffe7 	beq	4000c470 <_realloc_r+0x9c>
4000c4d0:	e5173004 	ldr	r3, [r7, #-4]
4000c4d4:	e3c33001 	bic	r3, r3, #1
4000c4d8:	e0853003 	add	r3, r5, r3
4000c4dc:	e2492008 	sub	r2, r9, #8
4000c4e0:	e1520003 	cmp	r2, r3
4000c4e4:	0a0000e3 	beq	4000c878 <_realloc_r+0x4a4>
4000c4e8:	e2462004 	sub	r2, r6, #4
4000c4ec:	e3520024 	cmp	r2, #36	; 0x24
4000c4f0:	8a0000dd 	bhi	4000c86c <_realloc_r+0x498>
4000c4f4:	e3520013 	cmp	r2, #19
4000c4f8:	91a03009 	movls	r3, r9
4000c4fc:	91a02007 	movls	r2, r7
4000c500:	9a000014 	bls	4000c558 <_realloc_r+0x184>
4000c504:	e5973000 	ldr	r3, [r7]
4000c508:	e5893000 	str	r3, [r9]
4000c50c:	e5973004 	ldr	r3, [r7, #4]
4000c510:	e352001b 	cmp	r2, #27
4000c514:	e5893004 	str	r3, [r9, #4]
4000c518:	92872008 	addls	r2, r7, #8
4000c51c:	92893008 	addls	r3, r9, #8
4000c520:	9a00000c 	bls	4000c558 <_realloc_r+0x184>
4000c524:	e5973008 	ldr	r3, [r7, #8]
4000c528:	e5893008 	str	r3, [r9, #8]
4000c52c:	e597300c 	ldr	r3, [r7, #12]
4000c530:	e589300c 	str	r3, [r9, #12]
4000c534:	e3520024 	cmp	r2, #36	; 0x24
4000c538:	05973010 	ldreq	r3, [r7, #16]
4000c53c:	05893010 	streq	r3, [r9, #16]
4000c540:	05972014 	ldreq	r2, [r7, #20]
4000c544:	12893010 	addne	r3, r9, #16
4000c548:	05892014 	streq	r2, [r9, #20]
4000c54c:	12872010 	addne	r2, r7, #16
4000c550:	02893018 	addeq	r3, r9, #24
4000c554:	02872018 	addeq	r2, r7, #24
4000c558:	e5921000 	ldr	r1, [r2]
4000c55c:	e5831000 	str	r1, [r3]
4000c560:	e5921004 	ldr	r1, [r2, #4]
4000c564:	e5831004 	str	r1, [r3, #4]
4000c568:	e5922008 	ldr	r2, [r2, #8]
4000c56c:	e5832008 	str	r2, [r3, #8]
4000c570:	e1a01007 	mov	r1, r7
4000c574:	e1a00008 	mov	r0, r8
4000c578:	eb001c41 	bl	40013684 <_free_r>
4000c57c:	eaffffbb 	b	4000c470 <_realloc_r+0x9c>
4000c580:	e3c00003 	bic	r0, r0, #3
4000c584:	e0863000 	add	r3, r6, r0
4000c588:	e1530002 	cmp	r3, r2
4000c58c:	ba00001c 	blt	4000c604 <_realloc_r+0x230>
4000c590:	e28c1008 	add	r1, ip, #8
4000c594:	e8910006 	ldm	r1, {r1, r2}
4000c598:	e1a09007 	mov	r9, r7
4000c59c:	e581200c 	str	r2, [r1, #12]
4000c5a0:	e1a06003 	mov	r6, r3
4000c5a4:	e5821008 	str	r1, [r2, #8]
4000c5a8:	eaffffa5 	b	4000c444 <_realloc_r+0x70>
4000c5ac:	e5952004 	ldr	r2, [r5, #4]
4000c5b0:	e2022001 	and	r2, r2, #1
4000c5b4:	e0851004 	add	r1, r5, r4
4000c5b8:	e3833001 	orr	r3, r3, #1
4000c5bc:	e1822004 	orr	r2, r2, r4
4000c5c0:	e5852004 	str	r2, [r5, #4]
4000c5c4:	e5813004 	str	r3, [r1, #4]
4000c5c8:	e0855006 	add	r5, r5, r6
4000c5cc:	e5953004 	ldr	r3, [r5, #4]
4000c5d0:	e3833001 	orr	r3, r3, #1
4000c5d4:	e2811008 	add	r1, r1, #8
4000c5d8:	e5853004 	str	r3, [r5, #4]
4000c5dc:	e1a00008 	mov	r0, r8
4000c5e0:	eb001c27 	bl	40013684 <_free_r>
4000c5e4:	eaffffa1 	b	4000c470 <_realloc_r+0x9c>
4000c5e8:	e1a01002 	mov	r1, r2
4000c5ec:	ebfffbcd 	bl	4000b528 <_malloc_r>
4000c5f0:	e1a09000 	mov	r9, r0
4000c5f4:	e1a00009 	mov	r0, r9
4000c5f8:	e28dd00c 	add	sp, sp, #12
4000c5fc:	e8bd4ff0 	pop	{r4, r5, r6, r7, r8, r9, sl, fp, lr}
4000c600:	e12fff1e 	bx	lr
4000c604:	e3110001 	tst	r1, #1
4000c608:	1affffab 	bne	4000c4bc <_realloc_r+0xe8>
4000c60c:	e517a008 	ldr	sl, [r7, #-8]
4000c610:	e045a00a 	sub	sl, r5, sl
4000c614:	e59a1004 	ldr	r1, [sl, #4]
4000c618:	e3c11003 	bic	r1, r1, #3
4000c61c:	e0810000 	add	r0, r1, r0
4000c620:	e0803006 	add	r3, r0, r6
4000c624:	e1530002 	cmp	r3, r2
4000c628:	ba000030 	blt	4000c6f0 <_realloc_r+0x31c>
4000c62c:	e1a0900a 	mov	r9, sl
4000c630:	e28c1008 	add	r1, ip, #8
4000c634:	e8910006 	ldm	r1, {r1, r2}
4000c638:	e581200c 	str	r2, [r1, #12]
4000c63c:	e5821008 	str	r1, [r2, #8]
4000c640:	e59a100c 	ldr	r1, [sl, #12]
4000c644:	e5b90008 	ldr	r0, [r9, #8]!
4000c648:	e2462004 	sub	r2, r6, #4
4000c64c:	e3520024 	cmp	r2, #36	; 0x24
4000c650:	e580100c 	str	r1, [r0, #12]
4000c654:	e5810008 	str	r0, [r1, #8]
4000c658:	8a00002f 	bhi	4000c71c <_realloc_r+0x348>
4000c65c:	e3520013 	cmp	r2, #19
4000c660:	91a02009 	movls	r2, r9
4000c664:	9a000014 	bls	4000c6bc <_realloc_r+0x2e8>
4000c668:	e5971000 	ldr	r1, [r7]
4000c66c:	e58a1008 	str	r1, [sl, #8]
4000c670:	e5971004 	ldr	r1, [r7, #4]
4000c674:	e352001b 	cmp	r2, #27
4000c678:	e58a100c 	str	r1, [sl, #12]
4000c67c:	92877008 	addls	r7, r7, #8
4000c680:	928a2010 	addls	r2, sl, #16
4000c684:	9a00000c 	bls	4000c6bc <_realloc_r+0x2e8>
4000c688:	e5971008 	ldr	r1, [r7, #8]
4000c68c:	e58a1010 	str	r1, [sl, #16]
4000c690:	e597100c 	ldr	r1, [r7, #12]
4000c694:	e58a1014 	str	r1, [sl, #20]
4000c698:	e3520024 	cmp	r2, #36	; 0x24
4000c69c:	05972010 	ldreq	r2, [r7, #16]
4000c6a0:	058a2018 	streq	r2, [sl, #24]
4000c6a4:	05972014 	ldreq	r2, [r7, #20]
4000c6a8:	12877010 	addne	r7, r7, #16
4000c6ac:	058a201c 	streq	r2, [sl, #28]
4000c6b0:	128a2018 	addne	r2, sl, #24
4000c6b4:	02877018 	addeq	r7, r7, #24
4000c6b8:	028a2020 	addeq	r2, sl, #32
4000c6bc:	e5971000 	ldr	r1, [r7]
4000c6c0:	e5821000 	str	r1, [r2]
4000c6c4:	e5971004 	ldr	r1, [r7, #4]
4000c6c8:	e5821004 	str	r1, [r2, #4]
4000c6cc:	e5971008 	ldr	r1, [r7, #8]
4000c6d0:	e1a06003 	mov	r6, r3
4000c6d4:	e1a0500a 	mov	r5, sl
4000c6d8:	e5821008 	str	r1, [r2, #8]
4000c6dc:	eaffff58 	b	4000c444 <_realloc_r+0x70>
4000c6e0:	e517a008 	ldr	sl, [r7, #-8]
4000c6e4:	e045a00a 	sub	sl, r5, sl
4000c6e8:	e59a1004 	ldr	r1, [sl, #4]
4000c6ec:	e3c11003 	bic	r1, r1, #3
4000c6f0:	e0863001 	add	r3, r6, r1
4000c6f4:	e1530002 	cmp	r3, r2
4000c6f8:	baffff6f 	blt	4000c4bc <_realloc_r+0xe8>
4000c6fc:	e1a0900a 	mov	r9, sl
4000c700:	e59a100c 	ldr	r1, [sl, #12]
4000c704:	e5b90008 	ldr	r0, [r9, #8]!
4000c708:	e2462004 	sub	r2, r6, #4
4000c70c:	e3520024 	cmp	r2, #36	; 0x24
4000c710:	e580100c 	str	r1, [r0, #12]
4000c714:	e5810008 	str	r0, [r1, #8]
4000c718:	9affffcf 	bls	4000c65c <_realloc_r+0x288>
4000c71c:	e1a01007 	mov	r1, r7
4000c720:	e1a00009 	mov	r0, r9
4000c724:	e1a06003 	mov	r6, r3
4000c728:	e1a0500a 	mov	r5, sl
4000c72c:	ebfffe25 	bl	4000bfc8 <memmove>
4000c730:	eaffff43 	b	4000c444 <_realloc_r+0x70>
4000c734:	e59c3004 	ldr	r3, [ip, #4]
4000c738:	e3c33003 	bic	r3, r3, #3
4000c73c:	e0833006 	add	r3, r3, r6
4000c740:	e2840010 	add	r0, r4, #16
4000c744:	e1530000 	cmp	r3, r0
4000c748:	aa00003a 	bge	4000c838 <_realloc_r+0x464>
4000c74c:	e3110001 	tst	r1, #1
4000c750:	1affff59 	bne	4000c4bc <_realloc_r+0xe8>
4000c754:	e517a008 	ldr	sl, [r7, #-8]
4000c758:	e045a00a 	sub	sl, r5, sl
4000c75c:	e59a1004 	ldr	r1, [sl, #4]
4000c760:	e3c11003 	bic	r1, r1, #3
4000c764:	e0813003 	add	r3, r1, r3
4000c768:	e1500003 	cmp	r0, r3
4000c76c:	caffffdf 	bgt	4000c6f0 <_realloc_r+0x31c>
4000c770:	e1a0900a 	mov	r9, sl
4000c774:	e59a100c 	ldr	r1, [sl, #12]
4000c778:	e5b90008 	ldr	r0, [r9, #8]!
4000c77c:	e2462004 	sub	r2, r6, #4
4000c780:	e3520024 	cmp	r2, #36	; 0x24
4000c784:	e580100c 	str	r1, [r0, #12]
4000c788:	e5810008 	str	r0, [r1, #8]
4000c78c:	8a00003e 	bhi	4000c88c <_realloc_r+0x4b8>
4000c790:	e3520013 	cmp	r2, #19
4000c794:	91a02009 	movls	r2, r9
4000c798:	9a000014 	bls	4000c7f0 <_realloc_r+0x41c>
4000c79c:	e5971000 	ldr	r1, [r7]
4000c7a0:	e58a1008 	str	r1, [sl, #8]
4000c7a4:	e5971004 	ldr	r1, [r7, #4]
4000c7a8:	e352001b 	cmp	r2, #27
4000c7ac:	e58a100c 	str	r1, [sl, #12]
4000c7b0:	92877008 	addls	r7, r7, #8
4000c7b4:	928a2010 	addls	r2, sl, #16
4000c7b8:	9a00000c 	bls	4000c7f0 <_realloc_r+0x41c>
4000c7bc:	e5971008 	ldr	r1, [r7, #8]
4000c7c0:	e58a1010 	str	r1, [sl, #16]
4000c7c4:	e597100c 	ldr	r1, [r7, #12]
4000c7c8:	e58a1014 	str	r1, [sl, #20]
4000c7cc:	e3520024 	cmp	r2, #36	; 0x24
4000c7d0:	05972010 	ldreq	r2, [r7, #16]
4000c7d4:	058a2018 	streq	r2, [sl, #24]
4000c7d8:	05972014 	ldreq	r2, [r7, #20]
4000c7dc:	12877010 	addne	r7, r7, #16
4000c7e0:	058a201c 	streq	r2, [sl, #28]
4000c7e4:	128a2018 	addne	r2, sl, #24
4000c7e8:	02877018 	addeq	r7, r7, #24
4000c7ec:	028a2020 	addeq	r2, sl, #32
4000c7f0:	e5971000 	ldr	r1, [r7]
4000c7f4:	e5821000 	str	r1, [r2]
4000c7f8:	e5971004 	ldr	r1, [r7, #4]
4000c7fc:	e5821004 	str	r1, [r2, #4]
4000c800:	e5971008 	ldr	r1, [r7, #8]
4000c804:	e5821008 	str	r1, [r2, #8]
4000c808:	e0433004 	sub	r3, r3, r4
4000c80c:	e08a2004 	add	r2, sl, r4
4000c810:	e3833001 	orr	r3, r3, #1
4000c814:	e58b2008 	str	r2, [fp, #8]
4000c818:	e5823004 	str	r3, [r2, #4]
4000c81c:	e59a3004 	ldr	r3, [sl, #4]
4000c820:	e2033001 	and	r3, r3, #1
4000c824:	e1834004 	orr	r4, r3, r4
4000c828:	e1a00008 	mov	r0, r8
4000c82c:	e58a4004 	str	r4, [sl, #4]
4000c830:	ebfffe7c 	bl	4000c228 <__malloc_unlock>
4000c834:	eaffff0f 	b	4000c478 <_realloc_r+0xa4>
4000c838:	e0433004 	sub	r3, r3, r4
4000c83c:	e0855004 	add	r5, r5, r4
4000c840:	e3833001 	orr	r3, r3, #1
4000c844:	e58b5008 	str	r5, [fp, #8]
4000c848:	e5853004 	str	r3, [r5, #4]
4000c84c:	e5173004 	ldr	r3, [r7, #-4]
4000c850:	e2033001 	and	r3, r3, #1
4000c854:	e1834004 	orr	r4, r3, r4
4000c858:	e1a00008 	mov	r0, r8
4000c85c:	e5074004 	str	r4, [r7, #-4]
4000c860:	ebfffe70 	bl	4000c228 <__malloc_unlock>
4000c864:	e1a09007 	mov	r9, r7
4000c868:	eaffff02 	b	4000c478 <_realloc_r+0xa4>
4000c86c:	e1a01007 	mov	r1, r7
4000c870:	ebfffdd4 	bl	4000bfc8 <memmove>
4000c874:	eaffff3d 	b	4000c570 <_realloc_r+0x19c>
4000c878:	e5193004 	ldr	r3, [r9, #-4]
4000c87c:	e3c33003 	bic	r3, r3, #3
4000c880:	e0866003 	add	r6, r6, r3
4000c884:	e1a09007 	mov	r9, r7
4000c888:	eafffeed 	b	4000c444 <_realloc_r+0x70>
4000c88c:	e1a01007 	mov	r1, r7
4000c890:	e1a00009 	mov	r0, r9
4000c894:	e58d3004 	str	r3, [sp, #4]
4000c898:	ebfffdca 	bl	4000bfc8 <memmove>
4000c89c:	e59d3004 	ldr	r3, [sp, #4]
4000c8a0:	eaffffd8 	b	4000c808 <_realloc_r+0x434>
4000c8a4:	40019f90 	.word	0x40019f90

Disassembly of section .text.cleanup_glue:

4000c8a8 <cleanup_glue>:
4000c8a8:	e92d4070 	push	{r4, r5, r6, lr}
4000c8ac:	e1a04001 	mov	r4, r1
4000c8b0:	e5911000 	ldr	r1, [r1]
4000c8b4:	e3510000 	cmp	r1, #0
4000c8b8:	e1a05000 	mov	r5, r0
4000c8bc:	1bfffff9 	blne	4000c8a8 <cleanup_glue>
4000c8c0:	e1a01004 	mov	r1, r4
4000c8c4:	e1a00005 	mov	r0, r5
4000c8c8:	eb001b6d 	bl	40013684 <_free_r>
4000c8cc:	e8bd4070 	pop	{r4, r5, r6, lr}
4000c8d0:	e12fff1e 	bx	lr

Disassembly of section .text._reclaim_reent:

4000c8d4 <_reclaim_reent>:
4000c8d4:	e59f30e8 	ldr	r3, [pc, #232]	; 4000c9c4 <_reclaim_reent+0xf0>
4000c8d8:	e5933000 	ldr	r3, [r3]
4000c8dc:	e1530000 	cmp	r3, r0
4000c8e0:	012fff1e 	bxeq	lr
4000c8e4:	e590304c 	ldr	r3, [r0, #76]	; 0x4c
4000c8e8:	e3530000 	cmp	r3, #0
4000c8ec:	e92d4070 	push	{r4, r5, r6, lr}
4000c8f0:	e1a05000 	mov	r5, r0
4000c8f4:	0a00000f 	beq	4000c938 <_reclaim_reent+0x64>
4000c8f8:	e3a06000 	mov	r6, #0
4000c8fc:	e7931006 	ldr	r1, [r3, r6]
4000c900:	e3510000 	cmp	r1, #0
4000c904:	0a000005 	beq	4000c920 <_reclaim_reent+0x4c>
4000c908:	e5914000 	ldr	r4, [r1]
4000c90c:	e1a00005 	mov	r0, r5
4000c910:	eb001b5b 	bl	40013684 <_free_r>
4000c914:	e2541000 	subs	r1, r4, #0
4000c918:	1afffffa 	bne	4000c908 <_reclaim_reent+0x34>
4000c91c:	e595304c 	ldr	r3, [r5, #76]	; 0x4c
4000c920:	e2866004 	add	r6, r6, #4
4000c924:	e3560080 	cmp	r6, #128	; 0x80
4000c928:	1afffff3 	bne	4000c8fc <_reclaim_reent+0x28>
4000c92c:	e1a01003 	mov	r1, r3
4000c930:	e1a00005 	mov	r0, r5
4000c934:	eb001b52 	bl	40013684 <_free_r>
4000c938:	e5951040 	ldr	r1, [r5, #64]	; 0x40
4000c93c:	e3510000 	cmp	r1, #0
4000c940:	11a00005 	movne	r0, r5
4000c944:	1b001b4e 	blne	40013684 <_free_r>
4000c948:	e5951148 	ldr	r1, [r5, #328]	; 0x148
4000c94c:	e3510000 	cmp	r1, #0
4000c950:	0a000008 	beq	4000c978 <_reclaim_reent+0xa4>
4000c954:	e2856f53 	add	r6, r5, #332	; 0x14c
4000c958:	e1510006 	cmp	r1, r6
4000c95c:	0a000005 	beq	4000c978 <_reclaim_reent+0xa4>
4000c960:	e5914000 	ldr	r4, [r1]
4000c964:	e1a00005 	mov	r0, r5
4000c968:	eb001b45 	bl	40013684 <_free_r>
4000c96c:	e1560004 	cmp	r6, r4
4000c970:	e1a01004 	mov	r1, r4
4000c974:	1afffff9 	bne	4000c960 <_reclaim_reent+0x8c>
4000c978:	e5951054 	ldr	r1, [r5, #84]	; 0x54
4000c97c:	e3510000 	cmp	r1, #0
4000c980:	11a00005 	movne	r0, r5
4000c984:	1b001b3e 	blne	40013684 <_free_r>
4000c988:	e5953038 	ldr	r3, [r5, #56]	; 0x38
4000c98c:	e3530000 	cmp	r3, #0
4000c990:	1a000001 	bne	4000c99c <_reclaim_reent+0xc8>
4000c994:	e8bd4070 	pop	{r4, r5, r6, lr}
4000c998:	e12fff1e 	bx	lr
4000c99c:	e595303c 	ldr	r3, [r5, #60]	; 0x3c
4000c9a0:	e1a00005 	mov	r0, r5
4000c9a4:	e1a0e00f 	mov	lr, pc
4000c9a8:	e12fff13 	bx	r3
4000c9ac:	e59512e0 	ldr	r1, [r5, #736]	; 0x2e0
4000c9b0:	e3510000 	cmp	r1, #0
4000c9b4:	0afffff6 	beq	4000c994 <_reclaim_reent+0xc0>
4000c9b8:	e1a00005 	mov	r0, r5
4000c9bc:	e8bd4070 	pop	{r4, r5, r6, lr}
4000c9c0:	eaffffb8 	b	4000c8a8 <cleanup_glue>
4000c9c4:	40019b60 	.word	0x40019b60

Disassembly of section .text._init_signal_r.part.0:

4000c9c8 <_init_signal_r.part.0>:
4000c9c8:	e92d4010 	push	{r4, lr}
4000c9cc:	e3a01080 	mov	r1, #128	; 0x80
4000c9d0:	e1a04000 	mov	r4, r0
4000c9d4:	ebfffad3 	bl	4000b528 <_malloc_r>
4000c9d8:	e3500000 	cmp	r0, #0
4000c9dc:	e58402dc 	str	r0, [r4, #732]	; 0x2dc
4000c9e0:	0a000008 	beq	4000ca08 <_init_signal_r.part.0+0x40>
4000c9e4:	e3a02000 	mov	r2, #0
4000c9e8:	e2403004 	sub	r3, r0, #4
4000c9ec:	e280007c 	add	r0, r0, #124	; 0x7c
4000c9f0:	e5a32004 	str	r2, [r3, #4]!
4000c9f4:	e1530000 	cmp	r3, r0
4000c9f8:	1afffffc 	bne	4000c9f0 <_init_signal_r.part.0+0x28>
4000c9fc:	e3a00000 	mov	r0, #0
4000ca00:	e8bd4010 	pop	{r4, lr}
4000ca04:	e12fff1e 	bx	lr
4000ca08:	e3e00000 	mvn	r0, #0
4000ca0c:	eafffffb 	b	4000ca00 <_init_signal_r.part.0+0x38>

Disassembly of section .text._init_signal_r:

4000ca10 <_init_signal_r>:
4000ca10:	e59032dc 	ldr	r3, [r0, #732]	; 0x2dc
4000ca14:	e3530000 	cmp	r3, #0
4000ca18:	0a000001 	beq	4000ca24 <_init_signal_r+0x14>
4000ca1c:	e3a00000 	mov	r0, #0
4000ca20:	e12fff1e 	bx	lr
4000ca24:	eaffffe7 	b	4000c9c8 <_init_signal_r.part.0>

Disassembly of section .text._signal_r:

4000ca28 <_signal_r>:
4000ca28:	e351001f 	cmp	r1, #31
4000ca2c:	e1a03000 	mov	r3, r0
4000ca30:	8a000005 	bhi	4000ca4c <_signal_r+0x24>
4000ca34:	e590c2dc 	ldr	ip, [r0, #732]	; 0x2dc
4000ca38:	e35c0000 	cmp	ip, #0
4000ca3c:	0a000006 	beq	4000ca5c <_signal_r+0x34>
4000ca40:	e79c0101 	ldr	r0, [ip, r1, lsl #2]
4000ca44:	e78c2101 	str	r2, [ip, r1, lsl #2]
4000ca48:	e12fff1e 	bx	lr
4000ca4c:	e3a02016 	mov	r2, #22
4000ca50:	e3e00000 	mvn	r0, #0
4000ca54:	e5832000 	str	r2, [r3]
4000ca58:	e12fff1e 	bx	lr
4000ca5c:	e52de004 	push	{lr}		; (str lr, [sp, #-4]!)
4000ca60:	e24dd014 	sub	sp, sp, #20
4000ca64:	e98d000e 	stmib	sp, {r1, r2, r3}
4000ca68:	ebffffd6 	bl	4000c9c8 <_init_signal_r.part.0>
4000ca6c:	e3500000 	cmp	r0, #0
4000ca70:	13e00000 	mvnne	r0, #0
4000ca74:	059d300c 	ldreq	r3, [sp, #12]
4000ca78:	099d0006 	ldmibeq	sp, {r1, r2}
4000ca7c:	0593c2dc 	ldreq	ip, [r3, #732]	; 0x2dc
4000ca80:	079c0101 	ldreq	r0, [ip, r1, lsl #2]
4000ca84:	078c2101 	streq	r2, [ip, r1, lsl #2]
4000ca88:	e28dd014 	add	sp, sp, #20
4000ca8c:	e49de004 	pop	{lr}		; (ldr lr, [sp], #4)
4000ca90:	e12fff1e 	bx	lr

Disassembly of section .text._raise_r:

4000ca94 <_raise_r>:
4000ca94:	e351001f 	cmp	r1, #31
4000ca98:	e92d4020 	push	{r5, lr}
4000ca9c:	83a03016 	movhi	r3, #22
4000caa0:	e1a05000 	mov	r5, r0
4000caa4:	e24dd008 	sub	sp, sp, #8
4000caa8:	83e00000 	mvnhi	r0, #0
4000caac:	85853000 	strhi	r3, [r5]
4000cab0:	8a000012 	bhi	4000cb00 <_raise_r+0x6c>
4000cab4:	e59522dc 	ldr	r2, [r5, #732]	; 0x2dc
4000cab8:	e3520000 	cmp	r2, #0
4000cabc:	0a000014 	beq	4000cb14 <_raise_r+0x80>
4000cac0:	e7923101 	ldr	r3, [r2, r1, lsl #2]
4000cac4:	e3530000 	cmp	r3, #0
4000cac8:	0a000011 	beq	4000cb14 <_raise_r+0x80>
4000cacc:	e3530001 	cmp	r3, #1
4000cad0:	0a00000d 	beq	4000cb0c <_raise_r+0x78>
4000cad4:	e3730001 	cmn	r3, #1
4000cad8:	03a03016 	moveq	r3, #22
4000cadc:	03a00001 	moveq	r0, #1
4000cae0:	05853000 	streq	r3, [r5]
4000cae4:	0a000005 	beq	4000cb00 <_raise_r+0x6c>
4000cae8:	e3a05000 	mov	r5, #0
4000caec:	e1a00001 	mov	r0, r1
4000caf0:	e7825101 	str	r5, [r2, r1, lsl #2]
4000caf4:	e1a0e00f 	mov	lr, pc
4000caf8:	e12fff13 	bx	r3
4000cafc:	e1a00005 	mov	r0, r5
4000cb00:	e28dd008 	add	sp, sp, #8
4000cb04:	e8bd4020 	pop	{r5, lr}
4000cb08:	e12fff1e 	bx	lr
4000cb0c:	e3a00000 	mov	r0, #0
4000cb10:	eafffffa 	b	4000cb00 <_raise_r+0x6c>
4000cb14:	e1a00005 	mov	r0, r5
4000cb18:	e58d1004 	str	r1, [sp, #4]
4000cb1c:	eb000056 	bl	4000cc7c <_getpid_r>
4000cb20:	e59d1004 	ldr	r1, [sp, #4]
4000cb24:	e1a02001 	mov	r2, r1
4000cb28:	e1a01000 	mov	r1, r0
4000cb2c:	e1a00005 	mov	r0, r5
4000cb30:	eb000040 	bl	4000cc38 <_kill_r>
4000cb34:	eafffff1 	b	4000cb00 <_raise_r+0x6c>

Disassembly of section .text.__sigtramp_r:

4000cb38 <__sigtramp_r>:
4000cb38:	e351001f 	cmp	r1, #31
4000cb3c:	8a000022 	bhi	4000cbcc <__sigtramp_r+0x94>
4000cb40:	e92d4020 	push	{r5, lr}
4000cb44:	e59032dc 	ldr	r3, [r0, #732]	; 0x2dc
4000cb48:	e3530000 	cmp	r3, #0
4000cb4c:	e24dd008 	sub	sp, sp, #8
4000cb50:	e1a05000 	mov	r5, r0
4000cb54:	0a000014 	beq	4000cbac <__sigtramp_r+0x74>
4000cb58:	e7932101 	ldr	r2, [r3, r1, lsl #2]
4000cb5c:	e3520000 	cmp	r2, #0
4000cb60:	e0833101 	add	r3, r3, r1, lsl #2
4000cb64:	0a00000e 	beq	4000cba4 <__sigtramp_r+0x6c>
4000cb68:	e3720001 	cmn	r2, #1
4000cb6c:	03a00002 	moveq	r0, #2
4000cb70:	0a000008 	beq	4000cb98 <__sigtramp_r+0x60>
4000cb74:	e3520001 	cmp	r2, #1
4000cb78:	03a00003 	moveq	r0, #3
4000cb7c:	0a000005 	beq	4000cb98 <__sigtramp_r+0x60>
4000cb80:	e3a05000 	mov	r5, #0
4000cb84:	e1a00001 	mov	r0, r1
4000cb88:	e5835000 	str	r5, [r3]
4000cb8c:	e1a0e00f 	mov	lr, pc
4000cb90:	e12fff12 	bx	r2
4000cb94:	e1a00005 	mov	r0, r5
4000cb98:	e28dd008 	add	sp, sp, #8
4000cb9c:	e8bd4020 	pop	{r5, lr}
4000cba0:	e12fff1e 	bx	lr
4000cba4:	e3a00001 	mov	r0, #1
4000cba8:	eafffffa 	b	4000cb98 <__sigtramp_r+0x60>
4000cbac:	e58d1004 	str	r1, [sp, #4]
4000cbb0:	ebffff84 	bl	4000c9c8 <_init_signal_r.part.0>
4000cbb4:	e3500000 	cmp	r0, #0
4000cbb8:	059532dc 	ldreq	r3, [r5, #732]	; 0x2dc
4000cbbc:	059d1004 	ldreq	r1, [sp, #4]
4000cbc0:	0affffe4 	beq	4000cb58 <__sigtramp_r+0x20>
4000cbc4:	e3e00000 	mvn	r0, #0
4000cbc8:	eafffff2 	b	4000cb98 <__sigtramp_r+0x60>
4000cbcc:	e3e00000 	mvn	r0, #0
4000cbd0:	e12fff1e 	bx	lr

Disassembly of section .text.raise:

4000cbd4 <raise>:
4000cbd4:	e59f3008 	ldr	r3, [pc, #8]	; 4000cbe4 <raise+0x10>
4000cbd8:	e1a01000 	mov	r1, r0
4000cbdc:	e5930000 	ldr	r0, [r3]
4000cbe0:	eaffffab 	b	4000ca94 <_raise_r>
4000cbe4:	40019b60 	.word	0x40019b60

Disassembly of section .text.signal:

4000cbe8 <signal>:
4000cbe8:	e59f300c 	ldr	r3, [pc, #12]	; 4000cbfc <signal+0x14>
4000cbec:	e1a02001 	mov	r2, r1
4000cbf0:	e1a01000 	mov	r1, r0
4000cbf4:	e5930000 	ldr	r0, [r3]
4000cbf8:	eaffff8a 	b	4000ca28 <_signal_r>
4000cbfc:	40019b60 	.word	0x40019b60

Disassembly of section .text._init_signal:

4000cc00 <_init_signal>:
4000cc00:	e59f3018 	ldr	r3, [pc, #24]	; 4000cc20 <_init_signal+0x20>
4000cc04:	e5930000 	ldr	r0, [r3]
4000cc08:	e59032dc 	ldr	r3, [r0, #732]	; 0x2dc
4000cc0c:	e3530000 	cmp	r3, #0
4000cc10:	0a000001 	beq	4000cc1c <_init_signal+0x1c>
4000cc14:	e3a00000 	mov	r0, #0
4000cc18:	e12fff1e 	bx	lr
4000cc1c:	eaffff69 	b	4000c9c8 <_init_signal_r.part.0>
4000cc20:	40019b60 	.word	0x40019b60

Disassembly of section .text.__sigtramp:

4000cc24 <__sigtramp>:
4000cc24:	e59f3008 	ldr	r3, [pc, #8]	; 4000cc34 <__sigtramp+0x10>
4000cc28:	e1a01000 	mov	r1, r0
4000cc2c:	e5930000 	ldr	r0, [r3]
4000cc30:	eaffffc0 	b	4000cb38 <__sigtramp_r>
4000cc34:	40019b60 	.word	0x40019b60

Disassembly of section .text._kill_r:

4000cc38 <_kill_r>:
4000cc38:	e1a0c001 	mov	ip, r1
4000cc3c:	e3a03000 	mov	r3, #0
4000cc40:	e92d4070 	push	{r4, r5, r6, lr}
4000cc44:	e59f402c 	ldr	r4, [pc, #44]	; 4000cc78 <_kill_r+0x40>
4000cc48:	e1a05000 	mov	r5, r0
4000cc4c:	e1a01002 	mov	r1, r2
4000cc50:	e1a0000c 	mov	r0, ip
4000cc54:	e5843000 	str	r3, [r4]
4000cc58:	ebffd14f 	bl	4000119c <_kill>
4000cc5c:	e3700001 	cmn	r0, #1
4000cc60:	1a000002 	bne	4000cc70 <_kill_r+0x38>
4000cc64:	e5943000 	ldr	r3, [r4]
4000cc68:	e3530000 	cmp	r3, #0
4000cc6c:	15853000 	strne	r3, [r5]
4000cc70:	e8bd4070 	pop	{r4, r5, r6, lr}
4000cc74:	e12fff1e 	bx	lr
4000cc78:	4011a584 	.word	0x4011a584

Disassembly of section .text._getpid_r:

4000cc7c <_getpid_r>:
4000cc7c:	e92d4010 	push	{r4, lr}
4000cc80:	ebffd128 	bl	40001128 <_getpid>
4000cc84:	e8bd4010 	pop	{r4, lr}
4000cc88:	e12fff1e 	bx	lr

Disassembly of section .text._sprintf_r:

4000cc8c <_sprintf_r>:
4000cc8c:	e92d000c 	push	{r2, r3}
4000cc90:	e92d4030 	push	{r4, r5, lr}
4000cc94:	e3e0e102 	mvn	lr, #-2147483648	; 0x80000000
4000cc98:	e3a05f82 	mov	r5, #520	; 0x208
4000cc9c:	e3e04000 	mvn	r4, #0
4000cca0:	e24dd074 	sub	sp, sp, #116	; 0x74
4000cca4:	e28dc084 	add	ip, sp, #132	; 0x84
4000cca8:	e1a0300c 	mov	r3, ip
4000ccac:	e59d2080 	ldr	r2, [sp, #128]	; 0x80
4000ccb0:	e58d1008 	str	r1, [sp, #8]
4000ccb4:	e58d1018 	str	r1, [sp, #24]
4000ccb8:	e28d1008 	add	r1, sp, #8
4000ccbc:	e1cd51b4 	strh	r5, [sp, #20]
4000ccc0:	e58de010 	str	lr, [sp, #16]
4000ccc4:	e58de01c 	str	lr, [sp, #28]
4000ccc8:	e1cd41b6 	strh	r4, [sp, #22]
4000cccc:	e58dc004 	str	ip, [sp, #4]
4000ccd0:	eb0000bb 	bl	4000cfc4 <_svfprintf_r>
4000ccd4:	e3a02000 	mov	r2, #0
4000ccd8:	e59d3008 	ldr	r3, [sp, #8]
4000ccdc:	e5c32000 	strb	r2, [r3]
4000cce0:	e28dd074 	add	sp, sp, #116	; 0x74
4000cce4:	e8bd4030 	pop	{r4, r5, lr}
4000cce8:	e28dd008 	add	sp, sp, #8
4000ccec:	e12fff1e 	bx	lr

Disassembly of section .text.sprintf:

4000ccf0 <sprintf>:
4000ccf0:	e92d000e 	push	{r1, r2, r3}
4000ccf4:	e1a01000 	mov	r1, r0
4000ccf8:	e92d4030 	push	{r4, r5, lr}
4000ccfc:	e3e0e102 	mvn	lr, #-2147483648	; 0x80000000
4000cd00:	e3a05f82 	mov	r5, #520	; 0x208
4000cd04:	e3e04000 	mvn	r4, #0
4000cd08:	e24dd070 	sub	sp, sp, #112	; 0x70
4000cd0c:	e59f304c 	ldr	r3, [pc, #76]	; 4000cd60 <sprintf+0x70>
4000cd10:	e28dc080 	add	ip, sp, #128	; 0x80
4000cd14:	e59d207c 	ldr	r2, [sp, #124]	; 0x7c
4000cd18:	e58d1008 	str	r1, [sp, #8]
4000cd1c:	e58d1018 	str	r1, [sp, #24]
4000cd20:	e5930000 	ldr	r0, [r3]
4000cd24:	e28d1008 	add	r1, sp, #8
4000cd28:	e1a0300c 	mov	r3, ip
4000cd2c:	e1cd51b4 	strh	r5, [sp, #20]
4000cd30:	e58de010 	str	lr, [sp, #16]
4000cd34:	e58de01c 	str	lr, [sp, #28]
4000cd38:	e1cd41b6 	strh	r4, [sp, #22]
4000cd3c:	e58dc004 	str	ip, [sp, #4]
4000cd40:	eb00009f 	bl	4000cfc4 <_svfprintf_r>
4000cd44:	e3a02000 	mov	r2, #0
4000cd48:	e59d3008 	ldr	r3, [sp, #8]
4000cd4c:	e5c32000 	strb	r2, [r3]
4000cd50:	e28dd070 	add	sp, sp, #112	; 0x70
4000cd54:	e8bd4030 	pop	{r4, r5, lr}
4000cd58:	e28dd00c 	add	sp, sp, #12
4000cd5c:	e12fff1e 	bx	lr
4000cd60:	40019b60 	.word	0x40019b60

Disassembly of section .text.strcpy:

4000cd64 <strcpy>:
4000cd64:	e0202001 	eor	r2, r0, r1
4000cd68:	e1a0c000 	mov	ip, r0
4000cd6c:	e3120003 	tst	r2, #3
4000cd70:	1a000032 	bne	4000ce40 <strcpy+0xdc>
4000cd74:	e3110003 	tst	r1, #3
4000cd78:	1a000021 	bne	4000ce04 <strcpy+0xa0>
4000cd7c:	e52d5004 	push	{r5}		; (str r5, [sp, #-4]!)
4000cd80:	e3a05001 	mov	r5, #1
4000cd84:	e1855405 	orr	r5, r5, r5, lsl #8
4000cd88:	e1855805 	orr	r5, r5, r5, lsl #16
4000cd8c:	e52d4004 	push	{r4}		; (str r4, [sp, #-4]!)
4000cd90:	e3110004 	tst	r1, #4
4000cd94:	e4913004 	ldr	r3, [r1], #4
4000cd98:	0a000005 	beq	4000cdb4 <strcpy+0x50>
4000cd9c:	e0432005 	sub	r2, r3, r5
4000cda0:	e1d22003 	bics	r2, r2, r3
4000cda4:	e1120385 	tst	r2, r5, lsl #7
4000cda8:	048c3004 	streq	r3, [ip], #4
4000cdac:	04913004 	ldreq	r3, [r1], #4
4000cdb0:	1a00000c 	bne	4000cde8 <strcpy+0x84>
4000cdb4:	e4914004 	ldr	r4, [r1], #4
4000cdb8:	e0432005 	sub	r2, r3, r5
4000cdbc:	e1d22003 	bics	r2, r2, r3
4000cdc0:	e1120385 	tst	r2, r5, lsl #7
4000cdc4:	e0442005 	sub	r2, r4, r5
4000cdc8:	1a000006 	bne	4000cde8 <strcpy+0x84>
4000cdcc:	e48c3004 	str	r3, [ip], #4
4000cdd0:	e1d22004 	bics	r2, r2, r4
4000cdd4:	e1120385 	tst	r2, r5, lsl #7
4000cdd8:	04913004 	ldreq	r3, [r1], #4
4000cddc:	048c4004 	streq	r4, [ip], #4
4000cde0:	0afffff3 	beq	4000cdb4 <strcpy+0x50>
4000cde4:	e1a03004 	mov	r3, r4
4000cde8:	e4cc3001 	strb	r3, [ip], #1
4000cdec:	e31300ff 	tst	r3, #255	; 0xff
4000cdf0:	e1a03463 	ror	r3, r3, #8
4000cdf4:	1afffffb 	bne	4000cde8 <strcpy+0x84>
4000cdf8:	e49d4004 	pop	{r4}		; (ldr r4, [sp], #4)
4000cdfc:	e49d5004 	pop	{r5}		; (ldr r5, [sp], #4)
4000ce00:	e12fff1e 	bx	lr
4000ce04:	e3110001 	tst	r1, #1
4000ce08:	0a000003 	beq	4000ce1c <strcpy+0xb8>
4000ce0c:	e4d12001 	ldrb	r2, [r1], #1
4000ce10:	e4cc2001 	strb	r2, [ip], #1
4000ce14:	e3520000 	cmp	r2, #0
4000ce18:	012fff1e 	bxeq	lr
4000ce1c:	e3110002 	tst	r1, #2
4000ce20:	0affffd5 	beq	4000cd7c <strcpy+0x18>
4000ce24:	e0d120b2 	ldrh	r2, [r1], #2
4000ce28:	e31200ff 	tst	r2, #255	; 0xff
4000ce2c:	10cc20b2 	strhne	r2, [ip], #2
4000ce30:	05cc2000 	strbeq	r2, [ip]
4000ce34:	13120cff 	tstne	r2, #65280	; 0xff00
4000ce38:	1affffcf 	bne	4000cd7c <strcpy+0x18>
4000ce3c:	e12fff1e 	bx	lr
4000ce40:	e4d12001 	ldrb	r2, [r1], #1
4000ce44:	e4cc2001 	strb	r2, [ip], #1
4000ce48:	e3520000 	cmp	r2, #0
4000ce4c:	1afffffb 	bne	4000ce40 <strcpy+0xdc>
4000ce50:	e12fff1e 	bx	lr

Disassembly of section .text.strlen:

4000ce54 <strlen>:
4000ce54:	e3c01003 	bic	r1, r0, #3
4000ce58:	e2100003 	ands	r0, r0, #3
4000ce5c:	e2600000 	rsb	r0, r0, #0
4000ce60:	e4913004 	ldr	r3, [r1], #4
4000ce64:	e280c004 	add	ip, r0, #4
4000ce68:	e1a0c18c 	lsl	ip, ip, #3
4000ce6c:	e3e02000 	mvn	r2, #0
4000ce70:	11833c32 	orrne	r3, r3, r2, lsr ip
4000ce74:	e3a0c001 	mov	ip, #1
4000ce78:	e18cc40c 	orr	ip, ip, ip, lsl #8
4000ce7c:	e18cc80c 	orr	ip, ip, ip, lsl #16
4000ce80:	e043200c 	sub	r2, r3, ip
4000ce84:	e1c22003 	bic	r2, r2, r3
4000ce88:	e012238c 	ands	r2, r2, ip, lsl #7
4000ce8c:	04913004 	ldreq	r3, [r1], #4
4000ce90:	02800004 	addeq	r0, r0, #4
4000ce94:	0afffff9 	beq	4000ce80 <strlen+0x2c>
4000ce98:	e31300ff 	tst	r3, #255	; 0xff
4000ce9c:	12800001 	addne	r0, r0, #1
4000cea0:	13130cff 	tstne	r3, #65280	; 0xff00
4000cea4:	12800001 	addne	r0, r0, #1
4000cea8:	131308ff 	tstne	r3, #16711680	; 0xff0000
4000ceac:	12800001 	addne	r0, r0, #1
4000ceb0:	e12fff1e 	bx	lr

Disassembly of section .text.strncmp:

4000ceb4 <strncmp>:
4000ceb4:	e3520000 	cmp	r2, #0
4000ceb8:	0a000037 	beq	4000cf9c <strncmp+0xe8>
4000cebc:	e1803001 	orr	r3, r0, r1
4000cec0:	e2133003 	ands	r3, r3, #3
4000cec4:	e92d40f0 	push	{r4, r5, r6, r7, lr}
4000cec8:	1a00001f 	bne	4000cf4c <strncmp+0x98>
4000cecc:	e3520003 	cmp	r2, #3
4000ced0:	9a00001d 	bls	4000cf4c <strncmp+0x98>
4000ced4:	e590c000 	ldr	ip, [r0]
4000ced8:	e591e000 	ldr	lr, [r1]
4000cedc:	e15c000e 	cmp	ip, lr
4000cee0:	1a000019 	bne	4000cf4c <strncmp+0x98>
4000cee4:	e2522004 	subs	r2, r2, #4
4000cee8:	0a00002d 	beq	4000cfa4 <strncmp+0xf0>
4000ceec:	e59f50c8 	ldr	r5, [pc, #200]	; 4000cfbc <strncmp+0x108>
4000cef0:	e59f60c8 	ldr	r6, [pc, #200]	; 4000cfc0 <strncmp+0x10c>
4000cef4:	e08ce005 	add	lr, ip, r5
4000cef8:	e1cec00c 	bic	ip, lr, ip
4000cefc:	e11c0006 	tst	ip, r6
4000cf00:	02800004 	addeq	r0, r0, #4
4000cf04:	02811004 	addeq	r1, r1, #4
4000cf08:	0a00000b 	beq	4000cf3c <strncmp+0x88>
4000cf0c:	ea000024 	b	4000cfa4 <strncmp+0xf0>
4000cf10:	e4903004 	ldr	r3, [r0], #4
4000cf14:	e5914000 	ldr	r4, [r1]
4000cf18:	e083c005 	add	ip, r3, r5
4000cf1c:	e1530004 	cmp	r3, r4
4000cf20:	e1ccc003 	bic	ip, ip, r3
4000cf24:	e2811004 	add	r1, r1, #4
4000cf28:	1a000020 	bne	4000cfb0 <strncmp+0xfc>
4000cf2c:	e2522004 	subs	r2, r2, #4
4000cf30:	0a00001b 	beq	4000cfa4 <strncmp+0xf0>
4000cf34:	e11c0006 	tst	ip, r6
4000cf38:	1a000019 	bne	4000cfa4 <strncmp+0xf0>
4000cf3c:	e3520003 	cmp	r2, #3
4000cf40:	e1a07000 	mov	r7, r0
4000cf44:	e1a0e001 	mov	lr, r1
4000cf48:	8afffff0 	bhi	4000cf10 <strncmp+0x5c>
4000cf4c:	e5d03000 	ldrb	r3, [r0]
4000cf50:	e5d1c000 	ldrb	ip, [r1]
4000cf54:	e15c0003 	cmp	ip, r3
4000cf58:	e2422001 	sub	r2, r2, #1
4000cf5c:	1a00000b 	bne	4000cf90 <strncmp+0xdc>
4000cf60:	e3520000 	cmp	r2, #0
4000cf64:	135c0000 	cmpne	ip, #0
4000cf68:	1a000003 	bne	4000cf7c <strncmp+0xc8>
4000cf6c:	ea00000c 	b	4000cfa4 <strncmp+0xf0>
4000cf70:	e3520000 	cmp	r2, #0
4000cf74:	13530000 	cmpne	r3, #0
4000cf78:	0a000009 	beq	4000cfa4 <strncmp+0xf0>
4000cf7c:	e5f03001 	ldrb	r3, [r0, #1]!
4000cf80:	e5f1c001 	ldrb	ip, [r1, #1]!
4000cf84:	e153000c 	cmp	r3, ip
4000cf88:	e2422001 	sub	r2, r2, #1
4000cf8c:	0afffff7 	beq	4000cf70 <strncmp+0xbc>
4000cf90:	e043000c 	sub	r0, r3, ip
4000cf94:	e8bd40f0 	pop	{r4, r5, r6, r7, lr}
4000cf98:	e12fff1e 	bx	lr
4000cf9c:	e1a00002 	mov	r0, r2
4000cfa0:	e12fff1e 	bx	lr
4000cfa4:	e3a00000 	mov	r0, #0
4000cfa8:	e8bd40f0 	pop	{r4, r5, r6, r7, lr}
4000cfac:	e12fff1e 	bx	lr
4000cfb0:	e1a0100e 	mov	r1, lr
4000cfb4:	e1a00007 	mov	r0, r7
4000cfb8:	eaffffe3 	b	4000cf4c <strncmp+0x98>
4000cfbc:	fefefeff 	.word	0xfefefeff
4000cfc0:	80808080 	.word	0x80808080

Disassembly of section .text._svfprintf_r:

4000cfc4 <_svfprintf_r>:
4000cfc4:	e92d4ff0 	push	{r4, r5, r6, r7, r8, r9, sl, fp, lr}
4000cfc8:	e24ddf43 	sub	sp, sp, #268	; 0x10c
4000cfcc:	e1a04001 	mov	r4, r1
4000cfd0:	e58d1028 	str	r1, [sp, #40]	; 0x28
4000cfd4:	e1a09002 	mov	r9, r2
4000cfd8:	e58d3038 	str	r3, [sp, #56]	; 0x38
4000cfdc:	e58d002c 	str	r0, [sp, #44]	; 0x2c
4000cfe0:	eb001aa5 	bl	40013a7c <_localeconv_r>
4000cfe4:	e5903000 	ldr	r3, [r0]
4000cfe8:	e1a00003 	mov	r0, r3
4000cfec:	e58d3068 	str	r3, [sp, #104]	; 0x68
4000cff0:	ebffff97 	bl	4000ce54 <strlen>
4000cff4:	e1d430bc 	ldrh	r3, [r4, #12]
4000cff8:	e3130080 	tst	r3, #128	; 0x80
4000cffc:	e58d0060 	str	r0, [sp, #96]	; 0x60
4000d000:	0a000002 	beq	4000d010 <_svfprintf_r+0x4c>
4000d004:	e5943010 	ldr	r3, [r4, #16]
4000d008:	e3530000 	cmp	r3, #0
4000d00c:	0a0006c9 	beq	4000eb38 <_svfprintf_r+0x1b74>
4000d010:	e3a03000 	mov	r3, #0
4000d014:	e28da0c8 	add	sl, sp, #200	; 0xc8
4000d018:	e58d3050 	str	r3, [sp, #80]	; 0x50
4000d01c:	e58d304c 	str	r3, [sp, #76]	; 0x4c
4000d020:	e58d3054 	str	r3, [sp, #84]	; 0x54
4000d024:	e58d3064 	str	r3, [sp, #100]	; 0x64
4000d028:	e58d306c 	str	r3, [sp, #108]	; 0x6c
4000d02c:	e58d3020 	str	r3, [sp, #32]
4000d030:	e58d3058 	str	r3, [sp, #88]	; 0x58
4000d034:	e58d305c 	str	r3, [sp, #92]	; 0x5c
4000d038:	e58d309c 	str	r3, [sp, #156]	; 0x9c
4000d03c:	e58d3098 	str	r3, [sp, #152]	; 0x98
4000d040:	e58da094 	str	sl, [sp, #148]	; 0x94
4000d044:	e59f8f74 	ldr	r8, [pc, #3956]	; 4000dfc0 <_svfprintf_r+0xffc>
4000d048:	e5d93000 	ldrb	r3, [r9]
4000d04c:	e3530000 	cmp	r3, #0
4000d050:	13530025 	cmpne	r3, #37	; 0x25
4000d054:	e1a04009 	mov	r4, r9
4000d058:	0a000013 	beq	4000d0ac <_svfprintf_r+0xe8>
4000d05c:	e5f43001 	ldrb	r3, [r4, #1]!
4000d060:	e3530000 	cmp	r3, #0
4000d064:	13530025 	cmpne	r3, #37	; 0x25
4000d068:	1afffffb 	bne	4000d05c <_svfprintf_r+0x98>
4000d06c:	e0545009 	subs	r5, r4, r9
4000d070:	0a00000d 	beq	4000d0ac <_svfprintf_r+0xe8>
4000d074:	e59d3098 	ldr	r3, [sp, #152]	; 0x98
4000d078:	e59d209c 	ldr	r2, [sp, #156]	; 0x9c
4000d07c:	e2833001 	add	r3, r3, #1
4000d080:	e3530007 	cmp	r3, #7
4000d084:	e0822005 	add	r2, r2, r5
4000d088:	e58a9000 	str	r9, [sl]
4000d08c:	e58a5004 	str	r5, [sl, #4]
4000d090:	e58d3098 	str	r3, [sp, #152]	; 0x98
4000d094:	e58d209c 	str	r2, [sp, #156]	; 0x9c
4000d098:	d28aa008 	addle	sl, sl, #8
4000d09c:	ca00007f 	bgt	4000d2a0 <_svfprintf_r+0x2dc>
4000d0a0:	e59d3020 	ldr	r3, [sp, #32]
4000d0a4:	e0833005 	add	r3, r3, r5
4000d0a8:	e58d3020 	str	r3, [sp, #32]
4000d0ac:	e5d43000 	ldrb	r3, [r4]
4000d0b0:	e3530000 	cmp	r3, #0
4000d0b4:	0a000081 	beq	4000d2c0 <_svfprintf_r+0x2fc>
4000d0b8:	e3a02000 	mov	r2, #0
4000d0bc:	e3e03000 	mvn	r3, #0
4000d0c0:	e5cd2077 	strb	r2, [sp, #119]	; 0x77
4000d0c4:	e1a06003 	mov	r6, r3
4000d0c8:	e58d3024 	str	r3, [sp, #36]	; 0x24
4000d0cc:	e1a00002 	mov	r0, r2
4000d0d0:	e1a03002 	mov	r3, r2
4000d0d4:	e58d2034 	str	r2, [sp, #52]	; 0x34
4000d0d8:	e1a0b002 	mov	fp, r2
4000d0dc:	e1a05002 	mov	r5, r2
4000d0e0:	e2849001 	add	r9, r4, #1
4000d0e4:	e5d42001 	ldrb	r2, [r4, #1]
4000d0e8:	e3a0c001 	mov	ip, #1
4000d0ec:	e3a0e02b 	mov	lr, #43	; 0x2b
4000d0f0:	e3a04020 	mov	r4, #32
4000d0f4:	e2899001 	add	r9, r9, #1
4000d0f8:	e2421020 	sub	r1, r2, #32
4000d0fc:	e3510058 	cmp	r1, #88	; 0x58
4000d100:	979ff101 	ldrls	pc, [pc, r1, lsl #2]
4000d104:	ea00024b 	b	4000da38 <_svfprintf_r+0xa74>
4000d108:	4000da24 	.word	0x4000da24
4000d10c:	4000da38 	.word	0x4000da38
4000d110:	4000da38 	.word	0x4000da38
4000d114:	4000da18 	.word	0x4000da18
4000d118:	4000da38 	.word	0x4000da38
4000d11c:	4000da38 	.word	0x4000da38
4000d120:	4000da38 	.word	0x4000da38
4000d124:	4000da38 	.word	0x4000da38
4000d128:	4000da38 	.word	0x4000da38
4000d12c:	4000da38 	.word	0x4000da38
4000d130:	4000d26c 	.word	0x4000d26c
4000d134:	4000d9fc 	.word	0x4000d9fc
4000d138:	4000da38 	.word	0x4000da38
4000d13c:	4000d294 	.word	0x4000d294
4000d140:	4000d574 	.word	0x4000d574
4000d144:	4000da38 	.word	0x4000da38
4000d148:	4000d5bc 	.word	0x4000d5bc
4000d14c:	4000d990 	.word	0x4000d990
4000d150:	4000d990 	.word	0x4000d990
4000d154:	4000d990 	.word	0x4000d990
4000d158:	4000d990 	.word	0x4000d990
4000d15c:	4000d990 	.word	0x4000d990
4000d160:	4000d990 	.word	0x4000d990
4000d164:	4000d990 	.word	0x4000d990
4000d168:	4000d990 	.word	0x4000d990
4000d16c:	4000d990 	.word	0x4000d990
4000d170:	4000da38 	.word	0x4000da38
4000d174:	4000da38 	.word	0x4000da38
4000d178:	4000da38 	.word	0x4000da38
4000d17c:	4000da38 	.word	0x4000da38
4000d180:	4000da38 	.word	0x4000da38
4000d184:	4000da38 	.word	0x4000da38
4000d188:	4000da38 	.word	0x4000da38
4000d18c:	4000da38 	.word	0x4000da38
4000d190:	4000da38 	.word	0x4000da38
4000d194:	4000da38 	.word	0x4000da38
4000d198:	4000d81c 	.word	0x4000d81c
4000d19c:	4000d87c 	.word	0x4000d87c
4000d1a0:	4000da38 	.word	0x4000da38
4000d1a4:	4000d87c 	.word	0x4000d87c
4000d1a8:	4000da38 	.word	0x4000da38
4000d1ac:	4000da38 	.word	0x4000da38
4000d1b0:	4000da38 	.word	0x4000da38
4000d1b4:	4000da38 	.word	0x4000da38
4000d1b8:	4000d954 	.word	0x4000d954
4000d1bc:	4000da38 	.word	0x4000da38
4000d1c0:	4000da38 	.word	0x4000da38
4000d1c4:	4000d960 	.word	0x4000d960
4000d1c8:	4000da38 	.word	0x4000da38
4000d1cc:	4000da38 	.word	0x4000da38
4000d1d0:	4000da38 	.word	0x4000da38
4000d1d4:	4000da38 	.word	0x4000da38
4000d1d8:	4000da38 	.word	0x4000da38
4000d1dc:	4000d5c8 	.word	0x4000d5c8
4000d1e0:	4000da38 	.word	0x4000da38
4000d1e4:	4000da38 	.word	0x4000da38
4000d1e8:	4000d5f8 	.word	0x4000d5f8
4000d1ec:	4000da38 	.word	0x4000da38
4000d1f0:	4000da38 	.word	0x4000da38
4000d1f4:	4000da38 	.word	0x4000da38
4000d1f8:	4000da38 	.word	0x4000da38
4000d1fc:	4000da38 	.word	0x4000da38
4000d200:	4000da38 	.word	0x4000da38
4000d204:	4000da38 	.word	0x4000da38
4000d208:	4000da38 	.word	0x4000da38
4000d20c:	4000da38 	.word	0x4000da38
4000d210:	4000da38 	.word	0x4000da38
4000d214:	4000d670 	.word	0x4000d670
4000d218:	4000d6b8 	.word	0x4000d6b8
4000d21c:	4000d87c 	.word	0x4000d87c
4000d220:	4000d87c 	.word	0x4000d87c
4000d224:	4000d87c 	.word	0x4000d87c
4000d228:	4000d77c 	.word	0x4000d77c
4000d22c:	4000d6b8 	.word	0x4000d6b8
4000d230:	4000da38 	.word	0x4000da38
4000d234:	4000da38 	.word	0x4000da38
4000d238:	4000d788 	.word	0x4000d788
4000d23c:	4000da38 	.word	0x4000da38
4000d240:	4000d7a4 	.word	0x4000d7a4
4000d244:	4000d4c8 	.word	0x4000d4c8
4000d248:	4000d7e0 	.word	0x4000d7e0
4000d24c:	4000da0c 	.word	0x4000da0c
4000d250:	4000da38 	.word	0x4000da38
4000d254:	4000d4fc 	.word	0x4000d4fc
4000d258:	4000da38 	.word	0x4000da38
4000d25c:	4000d300 	.word	0x4000d300
4000d260:	4000da38 	.word	0x4000da38
4000d264:	4000da38 	.word	0x4000da38
4000d268:	4000d9b8 	.word	0x4000d9b8
4000d26c:	e59d2038 	ldr	r2, [sp, #56]	; 0x38
4000d270:	e5921000 	ldr	r1, [r2]
4000d274:	e2822004 	add	r2, r2, #4
4000d278:	e3510000 	cmp	r1, #0
4000d27c:	e58d1034 	str	r1, [sp, #52]	; 0x34
4000d280:	e58d2038 	str	r2, [sp, #56]	; 0x38
4000d284:	aa000003 	bge	4000d298 <_svfprintf_r+0x2d4>
4000d288:	e59d2034 	ldr	r2, [sp, #52]	; 0x34
4000d28c:	e2622000 	rsb	r2, r2, #0
4000d290:	e58d2034 	str	r2, [sp, #52]	; 0x34
4000d294:	e38bb004 	orr	fp, fp, #4
4000d298:	e5d92000 	ldrb	r2, [r9]
4000d29c:	eaffff94 	b	4000d0f4 <_svfprintf_r+0x130>
4000d2a0:	e28d2094 	add	r2, sp, #148	; 0x94
4000d2a4:	e59d1028 	ldr	r1, [sp, #40]	; 0x28
4000d2a8:	e59d002c 	ldr	r0, [sp, #44]	; 0x2c
4000d2ac:	eb001e09 	bl	40014ad8 <__ssprint_r>
4000d2b0:	e3500000 	cmp	r0, #0
4000d2b4:	1a000007 	bne	4000d2d8 <_svfprintf_r+0x314>
4000d2b8:	e28da0c8 	add	sl, sp, #200	; 0xc8
4000d2bc:	eaffff77 	b	4000d0a0 <_svfprintf_r+0xdc>
4000d2c0:	e59d309c 	ldr	r3, [sp, #156]	; 0x9c
4000d2c4:	e3530000 	cmp	r3, #0
4000d2c8:	159d002c 	ldrne	r0, [sp, #44]	; 0x2c
4000d2cc:	128d2094 	addne	r2, sp, #148	; 0x94
4000d2d0:	159d1028 	ldrne	r1, [sp, #40]	; 0x28
4000d2d4:	1b001dff 	blne	40014ad8 <__ssprint_r>
4000d2d8:	e59d3028 	ldr	r3, [sp, #40]	; 0x28
4000d2dc:	e1d330bc 	ldrh	r3, [r3, #12]
4000d2e0:	e3130040 	tst	r3, #64	; 0x40
4000d2e4:	e59d3020 	ldr	r3, [sp, #32]
4000d2e8:	13e03000 	mvnne	r3, #0
4000d2ec:	e58d3020 	str	r3, [sp, #32]
4000d2f0:	e59d0020 	ldr	r0, [sp, #32]
4000d2f4:	e28ddf43 	add	sp, sp, #268	; 0x10c
4000d2f8:	e8bd4ff0 	pop	{r4, r5, r6, r7, r8, r9, sl, fp, lr}
4000d2fc:	e12fff1e 	bx	lr
4000d300:	e31b0020 	tst	fp, #32
4000d304:	e58d2044 	str	r2, [sp, #68]	; 0x44
4000d308:	1a0000b2 	bne	4000d5d8 <_svfprintf_r+0x614>
4000d30c:	e59d2038 	ldr	r2, [sp, #56]	; 0x38
4000d310:	e31b0010 	tst	fp, #16
4000d314:	e1a03002 	mov	r3, r2
4000d318:	1a00041a 	bne	4000e388 <_svfprintf_r+0x13c4>
4000d31c:	e31b0040 	tst	fp, #64	; 0x40
4000d320:	0a000418 	beq	4000e388 <_svfprintf_r+0x13c4>
4000d324:	e3a03001 	mov	r3, #1
4000d328:	e3a07000 	mov	r7, #0
4000d32c:	e1d260b0 	ldrh	r6, [r2]
4000d330:	e2822004 	add	r2, r2, #4
4000d334:	e58d2038 	str	r2, [sp, #56]	; 0x38
4000d338:	e3a02000 	mov	r2, #0
4000d33c:	e58d2030 	str	r2, [sp, #48]	; 0x30
4000d340:	e5cd2077 	strb	r2, [sp, #119]	; 0x77
4000d344:	e59d2024 	ldr	r2, [sp, #36]	; 0x24
4000d348:	e3720001 	cmn	r2, #1
4000d34c:	0a0000f2 	beq	4000d71c <_svfprintf_r+0x758>
4000d350:	e1865007 	orr	r5, r6, r7
4000d354:	e3550000 	cmp	r5, #0
4000d358:	03520000 	cmpeq	r2, #0
4000d35c:	e3cb2080 	bic	r2, fp, #128	; 0x80
4000d360:	13a05001 	movne	r5, #1
4000d364:	03a05000 	moveq	r5, #0
4000d368:	e58d2018 	str	r2, [sp, #24]
4000d36c:	1a000364 	bne	4000e104 <_svfprintf_r+0x1140>
4000d370:	e3530000 	cmp	r3, #0
4000d374:	1a0002d5 	bne	4000ded0 <_svfprintf_r+0xf0c>
4000d378:	e21b5001 	ands	r5, fp, #1
4000d37c:	0a0002d3 	beq	4000ded0 <_svfprintf_r+0xf0c>
4000d380:	e3a03030 	mov	r3, #48	; 0x30
4000d384:	e28d2f42 	add	r2, sp, #264	; 0x108
4000d388:	e5623041 	strb	r3, [r2, #-65]!	; 0xffffffbf
4000d38c:	e58d2040 	str	r2, [sp, #64]	; 0x40
4000d390:	e59d3024 	ldr	r3, [sp, #36]	; 0x24
4000d394:	e1530005 	cmp	r3, r5
4000d398:	b1a03005 	movlt	r3, r5
4000d39c:	e58d301c 	str	r3, [sp, #28]
4000d3a0:	e3a03000 	mov	r3, #0
4000d3a4:	e58d3048 	str	r3, [sp, #72]	; 0x48
4000d3a8:	e59d3030 	ldr	r3, [sp, #48]	; 0x30
4000d3ac:	e3530000 	cmp	r3, #0
4000d3b0:	0a000002 	beq	4000d3c0 <_svfprintf_r+0x3fc>
4000d3b4:	e59d301c 	ldr	r3, [sp, #28]
4000d3b8:	e2833001 	add	r3, r3, #1
4000d3bc:	e58d301c 	str	r3, [sp, #28]
4000d3c0:	e59d3018 	ldr	r3, [sp, #24]
4000d3c4:	e2137002 	ands	r7, r3, #2
4000d3c8:	159d301c 	ldrne	r3, [sp, #28]
4000d3cc:	12833002 	addne	r3, r3, #2
4000d3d0:	158d301c 	strne	r3, [sp, #28]
4000d3d4:	e59d3018 	ldr	r3, [sp, #24]
4000d3d8:	e2133084 	ands	r3, r3, #132	; 0x84
4000d3dc:	e58d303c 	str	r3, [sp, #60]	; 0x3c
4000d3e0:	1a0001b0 	bne	4000daa8 <_svfprintf_r+0xae4>
4000d3e4:	e59d3034 	ldr	r3, [sp, #52]	; 0x34
4000d3e8:	e59d201c 	ldr	r2, [sp, #28]
4000d3ec:	e0436002 	sub	r6, r3, r2
4000d3f0:	e3560000 	cmp	r6, #0
4000d3f4:	da0001ab 	ble	4000daa8 <_svfprintf_r+0xae4>
4000d3f8:	e3560010 	cmp	r6, #16
4000d3fc:	da000650 	ble	4000ed44 <_svfprintf_r+0x1d80>
4000d400:	e28d2098 	add	r2, sp, #152	; 0x98
4000d404:	e8920014 	ldm	r2, {r2, r4}
4000d408:	e1a0300a 	mov	r3, sl
4000d40c:	e1a01004 	mov	r1, r4
4000d410:	e1a0a006 	mov	sl, r6
4000d414:	e3a0b010 	mov	fp, #16
4000d418:	e1a06005 	mov	r6, r5
4000d41c:	e59d402c 	ldr	r4, [sp, #44]	; 0x2c
4000d420:	e59d5028 	ldr	r5, [sp, #40]	; 0x28
4000d424:	ea000002 	b	4000d434 <_svfprintf_r+0x470>
4000d428:	e24aa010 	sub	sl, sl, #16
4000d42c:	e35a0010 	cmp	sl, #16
4000d430:	da000014 	ble	4000d488 <_svfprintf_r+0x4c4>
4000d434:	e2822001 	add	r2, r2, #1
4000d438:	e59f0b84 	ldr	r0, [pc, #2948]	; 4000dfc4 <_svfprintf_r+0x1000>
4000d43c:	e3520007 	cmp	r2, #7
4000d440:	e2811010 	add	r1, r1, #16
4000d444:	e8830801 	stm	r3, {r0, fp}
4000d448:	e58d2098 	str	r2, [sp, #152]	; 0x98
4000d44c:	e58d109c 	str	r1, [sp, #156]	; 0x9c
4000d450:	d2833008 	addle	r3, r3, #8
4000d454:	dafffff3 	ble	4000d428 <_svfprintf_r+0x464>
4000d458:	e28d2094 	add	r2, sp, #148	; 0x94
4000d45c:	e1a01005 	mov	r1, r5
4000d460:	e1a00004 	mov	r0, r4
4000d464:	eb001d9b 	bl	40014ad8 <__ssprint_r>
4000d468:	e3500000 	cmp	r0, #0
4000d46c:	1affff99 	bne	4000d2d8 <_svfprintf_r+0x314>
4000d470:	e24aa010 	sub	sl, sl, #16
4000d474:	e35a0010 	cmp	sl, #16
4000d478:	e28d30c8 	add	r3, sp, #200	; 0xc8
4000d47c:	e59d109c 	ldr	r1, [sp, #156]	; 0x9c
4000d480:	e59d2098 	ldr	r2, [sp, #152]	; 0x98
4000d484:	caffffea 	bgt	4000d434 <_svfprintf_r+0x470>
4000d488:	e1a05006 	mov	r5, r6
4000d48c:	e1a04001 	mov	r4, r1
4000d490:	e1a0600a 	mov	r6, sl
4000d494:	e1a0a003 	mov	sl, r3
4000d498:	e2822001 	add	r2, r2, #1
4000d49c:	e59f3b20 	ldr	r3, [pc, #2848]	; 4000dfc4 <_svfprintf_r+0x1000>
4000d4a0:	e0864004 	add	r4, r6, r4
4000d4a4:	e3520007 	cmp	r2, #7
4000d4a8:	e58d2098 	str	r2, [sp, #152]	; 0x98
4000d4ac:	e58d409c 	str	r4, [sp, #156]	; 0x9c
4000d4b0:	e88a0048 	stm	sl, {r3, r6}
4000d4b4:	ca000172 	bgt	4000da84 <_svfprintf_r+0xac0>
4000d4b8:	e5dd3077 	ldrb	r3, [sp, #119]	; 0x77
4000d4bc:	e28aa008 	add	sl, sl, #8
4000d4c0:	e58d3030 	str	r3, [sp, #48]	; 0x30
4000d4c4:	ea000178 	b	4000daac <_svfprintf_r+0xae8>
4000d4c8:	e21b5020 	ands	r5, fp, #32
4000d4cc:	e58d2044 	str	r2, [sp, #68]	; 0x44
4000d4d0:	1a000126 	bne	4000d970 <_svfprintf_r+0x9ac>
4000d4d4:	e21b3010 	ands	r3, fp, #16
4000d4d8:	e59d2038 	ldr	r2, [sp, #56]	; 0x38
4000d4dc:	1a0003af 	bne	4000e3a0 <_svfprintf_r+0x13dc>
4000d4e0:	e21b5040 	ands	r5, fp, #64	; 0x40
4000d4e4:	0a0003ad 	beq	4000e3a0 <_svfprintf_r+0x13dc>
4000d4e8:	e1d260b0 	ldrh	r6, [r2]
4000d4ec:	e2822004 	add	r2, r2, #4
4000d4f0:	e58d2038 	str	r2, [sp, #56]	; 0x38
4000d4f4:	e3a07000 	mov	r7, #0
4000d4f8:	eaffff8e 	b	4000d338 <_svfprintf_r+0x374>
4000d4fc:	e3a05000 	mov	r5, #0
4000d500:	e59d3038 	ldr	r3, [sp, #56]	; 0x38
4000d504:	e58d2044 	str	r2, [sp, #68]	; 0x44
4000d508:	e5932000 	ldr	r2, [r3]
4000d50c:	e1520005 	cmp	r2, r5
4000d510:	e2834004 	add	r4, r3, #4
4000d514:	e58d2040 	str	r2, [sp, #64]	; 0x40
4000d518:	e5cd5077 	strb	r5, [sp, #119]	; 0x77
4000d51c:	e59d3024 	ldr	r3, [sp, #36]	; 0x24
4000d520:	0a000631 	beq	4000edec <_svfprintf_r+0x1e28>
4000d524:	e3730001 	cmn	r3, #1
4000d528:	0a0005f2 	beq	4000ecf8 <_svfprintf_r+0x1d34>
4000d52c:	e1a02003 	mov	r2, r3
4000d530:	e1a01005 	mov	r1, r5
4000d534:	e59d0040 	ldr	r0, [sp, #64]	; 0x40
4000d538:	ebfff9dd 	bl	4000bcb4 <memchr>
4000d53c:	e3500000 	cmp	r0, #0
4000d540:	0a000646 	beq	4000ee60 <_svfprintf_r+0x1e9c>
4000d544:	e1a03005 	mov	r3, r5
4000d548:	e59d2040 	ldr	r2, [sp, #64]	; 0x40
4000d54c:	e58d5024 	str	r5, [sp, #36]	; 0x24
4000d550:	e58d3048 	str	r3, [sp, #72]	; 0x48
4000d554:	e0405002 	sub	r5, r0, r2
4000d558:	e5dd3077 	ldrb	r3, [sp, #119]	; 0x77
4000d55c:	e1c52fc5 	bic	r2, r5, r5, asr #31
4000d560:	e58d4038 	str	r4, [sp, #56]	; 0x38
4000d564:	e58db018 	str	fp, [sp, #24]
4000d568:	e58d201c 	str	r2, [sp, #28]
4000d56c:	e58d3030 	str	r3, [sp, #48]	; 0x30
4000d570:	eaffff8c 	b	4000d3a8 <_svfprintf_r+0x3e4>
4000d574:	e5d92000 	ldrb	r2, [r9]
4000d578:	e352002a 	cmp	r2, #42	; 0x2a
4000d57c:	e2891001 	add	r1, r9, #1
4000d580:	0a000683 	beq	4000ef94 <_svfprintf_r+0x1fd0>
4000d584:	e2427030 	sub	r7, r2, #48	; 0x30
4000d588:	e3570009 	cmp	r7, #9
4000d58c:	e1a09001 	mov	r9, r1
4000d590:	858d5024 	strhi	r5, [sp, #36]	; 0x24
4000d594:	8afffed7 	bhi	4000d0f8 <_svfprintf_r+0x134>
4000d598:	e1a01005 	mov	r1, r5
4000d59c:	e4d92001 	ldrb	r2, [r9], #1
4000d5a0:	e0811101 	add	r1, r1, r1, lsl #2
4000d5a4:	e0871081 	add	r1, r7, r1, lsl #1
4000d5a8:	e2427030 	sub	r7, r2, #48	; 0x30
4000d5ac:	e3570009 	cmp	r7, #9
4000d5b0:	9afffff9 	bls	4000d59c <_svfprintf_r+0x5d8>
4000d5b4:	e58d1024 	str	r1, [sp, #36]	; 0x24
4000d5b8:	eafffece 	b	4000d0f8 <_svfprintf_r+0x134>
4000d5bc:	e38bb080 	orr	fp, fp, #128	; 0x80
4000d5c0:	e5d92000 	ldrb	r2, [r9]
4000d5c4:	eafffeca 	b	4000d0f4 <_svfprintf_r+0x130>
4000d5c8:	e38bb010 	orr	fp, fp, #16
4000d5cc:	e31b0020 	tst	fp, #32
4000d5d0:	e58d2044 	str	r2, [sp, #68]	; 0x44
4000d5d4:	0affff4c 	beq	4000d30c <_svfprintf_r+0x348>
4000d5d8:	e59d3038 	ldr	r3, [sp, #56]	; 0x38
4000d5dc:	e2834007 	add	r4, r3, #7
4000d5e0:	e3c43007 	bic	r3, r4, #7
4000d5e4:	e2832008 	add	r2, r3, #8
4000d5e8:	e89300c0 	ldm	r3, {r6, r7}
4000d5ec:	e58d2038 	str	r2, [sp, #56]	; 0x38
4000d5f0:	e3a03001 	mov	r3, #1
4000d5f4:	eaffff4f 	b	4000d338 <_svfprintf_r+0x374>
4000d5f8:	e3530000 	cmp	r3, #0
4000d5fc:	e59f39c4 	ldr	r3, [pc, #2500]	; 4000dfc8 <_svfprintf_r+0x1004>
4000d600:	15cd0077 	strbne	r0, [sp, #119]	; 0x77
4000d604:	e31b0020 	tst	fp, #32
4000d608:	e58d3064 	str	r3, [sp, #100]	; 0x64
4000d60c:	e58d2044 	str	r2, [sp, #68]	; 0x44
4000d610:	e59d3038 	ldr	r3, [sp, #56]	; 0x38
4000d614:	1a0000ef 	bne	4000d9d8 <_svfprintf_r+0xa14>
4000d618:	e31b0010 	tst	fp, #16
4000d61c:	1a0004dc 	bne	4000e994 <_svfprintf_r+0x19d0>
4000d620:	e31b0040 	tst	fp, #64	; 0x40
4000d624:	13a07000 	movne	r7, #0
4000d628:	03a07000 	moveq	r7, #0
4000d62c:	11d360b0 	ldrhne	r6, [r3]
4000d630:	05936000 	ldreq	r6, [r3]
4000d634:	12833004 	addne	r3, r3, #4
4000d638:	02833004 	addeq	r3, r3, #4
4000d63c:	158d3038 	strne	r3, [sp, #56]	; 0x38
4000d640:	058d3038 	streq	r3, [sp, #56]	; 0x38
4000d644:	e31b0001 	tst	fp, #1
4000d648:	0a0000e9 	beq	4000d9f4 <_svfprintf_r+0xa30>
4000d64c:	e1963007 	orrs	r3, r6, r7
4000d650:	0a0000e7 	beq	4000d9f4 <_svfprintf_r+0xa30>
4000d654:	e3a03030 	mov	r3, #48	; 0x30
4000d658:	e5dd2044 	ldrb	r2, [sp, #68]	; 0x44
4000d65c:	e5cd3078 	strb	r3, [sp, #120]	; 0x78
4000d660:	e5cd2079 	strb	r2, [sp, #121]	; 0x79
4000d664:	e38bb002 	orr	fp, fp, #2
4000d668:	e3a03002 	mov	r3, #2
4000d66c:	eaffff31 	b	4000d338 <_svfprintf_r+0x374>
4000d670:	e3a03000 	mov	r3, #0
4000d674:	e58d2044 	str	r2, [sp, #68]	; 0x44
4000d678:	e3a02001 	mov	r2, #1
4000d67c:	e59d0038 	ldr	r0, [sp, #56]	; 0x38
4000d680:	e1a05002 	mov	r5, r2
4000d684:	e58d201c 	str	r2, [sp, #28]
4000d688:	e58d3030 	str	r3, [sp, #48]	; 0x30
4000d68c:	e5902000 	ldr	r2, [r0]
4000d690:	e5cd3077 	strb	r3, [sp, #119]	; 0x77
4000d694:	e58d3024 	str	r3, [sp, #36]	; 0x24
4000d698:	e58d3048 	str	r3, [sp, #72]	; 0x48
4000d69c:	e2803004 	add	r3, r0, #4
4000d6a0:	e58d3038 	str	r3, [sp, #56]	; 0x38
4000d6a4:	e28d30a0 	add	r3, sp, #160	; 0xa0
4000d6a8:	e58db018 	str	fp, [sp, #24]
4000d6ac:	e5cd20a0 	strb	r2, [sp, #160]	; 0xa0
4000d6b0:	e58d3040 	str	r3, [sp, #64]	; 0x40
4000d6b4:	eaffff41 	b	4000d3c0 <_svfprintf_r+0x3fc>
4000d6b8:	e3530000 	cmp	r3, #0
4000d6bc:	15cd0077 	strbne	r0, [sp, #119]	; 0x77
4000d6c0:	e31b0020 	tst	fp, #32
4000d6c4:	e58d2044 	str	r2, [sp, #68]	; 0x44
4000d6c8:	1a000059 	bne	4000d834 <_svfprintf_r+0x870>
4000d6cc:	e31b0010 	tst	fp, #16
4000d6d0:	1a0004ac 	bne	4000e988 <_svfprintf_r+0x19c4>
4000d6d4:	e31b0040 	tst	fp, #64	; 0x40
4000d6d8:	0a0003e3 	beq	4000e66c <_svfprintf_r+0x16a8>
4000d6dc:	e59d3038 	ldr	r3, [sp, #56]	; 0x38
4000d6e0:	e1d360f0 	ldrsh	r6, [r3]
4000d6e4:	e2833004 	add	r3, r3, #4
4000d6e8:	e1a07fc6 	asr	r7, r6, #31
4000d6ec:	e58d3038 	str	r3, [sp, #56]	; 0x38
4000d6f0:	e1a02006 	mov	r2, r6
4000d6f4:	e1a03007 	mov	r3, r7
4000d6f8:	e3520000 	cmp	r2, #0
4000d6fc:	e2d33000 	sbcs	r3, r3, #0
4000d700:	ba000056 	blt	4000d860 <_svfprintf_r+0x89c>
4000d704:	e59d2024 	ldr	r2, [sp, #36]	; 0x24
4000d708:	e5dd3077 	ldrb	r3, [sp, #119]	; 0x77
4000d70c:	e3720001 	cmn	r2, #1
4000d710:	e58d3030 	str	r3, [sp, #48]	; 0x30
4000d714:	e3a03001 	mov	r3, #1
4000d718:	1affff0c 	bne	4000d350 <_svfprintf_r+0x38c>
4000d71c:	e3530001 	cmp	r3, #1
4000d720:	0a00027a 	beq	4000e110 <_svfprintf_r+0x114c>
4000d724:	e3530002 	cmp	r3, #2
4000d728:	128d10c8 	addne	r1, sp, #200	; 0xc8
4000d72c:	1a0001cf 	bne	4000de70 <_svfprintf_r+0xeac>
4000d730:	e28d30c8 	add	r3, sp, #200	; 0xc8
4000d734:	e1a02003 	mov	r2, r3
4000d738:	e59dc064 	ldr	ip, [sp, #100]	; 0x64
4000d73c:	e1a03226 	lsr	r3, r6, #4
4000d740:	e1833e07 	orr	r3, r3, r7, lsl #28
4000d744:	e1a00227 	lsr	r0, r7, #4
4000d748:	e206100f 	and	r1, r6, #15
4000d74c:	e1a07000 	mov	r7, r0
4000d750:	e1a06003 	mov	r6, r3
4000d754:	e7dc3001 	ldrb	r3, [ip, r1]
4000d758:	e1961007 	orrs	r1, r6, r7
4000d75c:	e5623001 	strb	r3, [r2, #-1]!
4000d760:	1afffff5 	bne	4000d73c <_svfprintf_r+0x778>
4000d764:	e1a03002 	mov	r3, r2
4000d768:	e58d2040 	str	r2, [sp, #64]	; 0x40
4000d76c:	e28d20c8 	add	r2, sp, #200	; 0xc8
4000d770:	e58db018 	str	fp, [sp, #24]
4000d774:	e0425003 	sub	r5, r2, r3
4000d778:	eaffff04 	b	4000d390 <_svfprintf_r+0x3cc>
4000d77c:	e38bb040 	orr	fp, fp, #64	; 0x40
4000d780:	e5d92000 	ldrb	r2, [r9]
4000d784:	eafffe5a 	b	4000d0f4 <_svfprintf_r+0x130>
4000d788:	e5d92000 	ldrb	r2, [r9]
4000d78c:	e352006c 	cmp	r2, #108	; 0x6c
4000d790:	05d92001 	ldrbeq	r2, [r9, #1]
4000d794:	038bb020 	orreq	fp, fp, #32
4000d798:	02899001 	addeq	r9, r9, #1
4000d79c:	138bb010 	orrne	fp, fp, #16
4000d7a0:	eafffe53 	b	4000d0f4 <_svfprintf_r+0x130>
4000d7a4:	e3530000 	cmp	r3, #0
4000d7a8:	15cd0077 	strbne	r0, [sp, #119]	; 0x77
4000d7ac:	e31b0020 	tst	fp, #32
4000d7b0:	1a0004b0 	bne	4000ea78 <_svfprintf_r+0x1ab4>
4000d7b4:	e31b0010 	tst	fp, #16
4000d7b8:	1a00046b 	bne	4000e96c <_svfprintf_r+0x19a8>
4000d7bc:	e31b0040 	tst	fp, #64	; 0x40
4000d7c0:	0a000469 	beq	4000e96c <_svfprintf_r+0x19a8>
4000d7c4:	e59d2038 	ldr	r2, [sp, #56]	; 0x38
4000d7c8:	e5923000 	ldr	r3, [r2]
4000d7cc:	e2822004 	add	r2, r2, #4
4000d7d0:	e58d2038 	str	r2, [sp, #56]	; 0x38
4000d7d4:	e1dd22b0 	ldrh	r2, [sp, #32]
4000d7d8:	e1c320b0 	strh	r2, [r3]
4000d7dc:	eafffe19 	b	4000d048 <_svfprintf_r+0x84>
4000d7e0:	e3a03078 	mov	r3, #120	; 0x78
4000d7e4:	e3a02030 	mov	r2, #48	; 0x30
4000d7e8:	e59d1038 	ldr	r1, [sp, #56]	; 0x38
4000d7ec:	e5cd3079 	strb	r3, [sp, #121]	; 0x79
4000d7f0:	e58d3044 	str	r3, [sp, #68]	; 0x44
4000d7f4:	e2813004 	add	r3, r1, #4
4000d7f8:	e58d3038 	str	r3, [sp, #56]	; 0x38
4000d7fc:	e59f37c8 	ldr	r3, [pc, #1992]	; 4000dfcc <_svfprintf_r+0x1008>
4000d800:	e5916000 	ldr	r6, [r1]
4000d804:	e58d3064 	str	r3, [sp, #100]	; 0x64
4000d808:	e38bb002 	orr	fp, fp, #2
4000d80c:	e5cd2078 	strb	r2, [sp, #120]	; 0x78
4000d810:	e3a07000 	mov	r7, #0
4000d814:	e3a03002 	mov	r3, #2
4000d818:	eafffec6 	b	4000d338 <_svfprintf_r+0x374>
4000d81c:	e3530000 	cmp	r3, #0
4000d820:	e38bb010 	orr	fp, fp, #16
4000d824:	15cd0077 	strbne	r0, [sp, #119]	; 0x77
4000d828:	e31b0020 	tst	fp, #32
4000d82c:	e58d2044 	str	r2, [sp, #68]	; 0x44
4000d830:	0affffa5 	beq	4000d6cc <_svfprintf_r+0x708>
4000d834:	e59d3038 	ldr	r3, [sp, #56]	; 0x38
4000d838:	e2834007 	add	r4, r3, #7
4000d83c:	e3c44007 	bic	r4, r4, #7
4000d840:	e894000c 	ldm	r4, {r2, r3}
4000d844:	e3520000 	cmp	r2, #0
4000d848:	e2841008 	add	r1, r4, #8
4000d84c:	e1a07003 	mov	r7, r3
4000d850:	e2d33000 	sbcs	r3, r3, #0
4000d854:	e58d1038 	str	r1, [sp, #56]	; 0x38
4000d858:	e1a06002 	mov	r6, r2
4000d85c:	aaffffa8 	bge	4000d704 <_svfprintf_r+0x740>
4000d860:	e3a0302d 	mov	r3, #45	; 0x2d
4000d864:	e2766000 	rsbs	r6, r6, #0
4000d868:	e5cd3077 	strb	r3, [sp, #119]	; 0x77
4000d86c:	e58d3030 	str	r3, [sp, #48]	; 0x30
4000d870:	e2e77000 	rsc	r7, r7, #0
4000d874:	e3a03001 	mov	r3, #1
4000d878:	eafffeb1 	b	4000d344 <_svfprintf_r+0x380>
4000d87c:	e3530000 	cmp	r3, #0
4000d880:	e59d3038 	ldr	r3, [sp, #56]	; 0x38
4000d884:	15cd0077 	strbne	r0, [sp, #119]	; 0x77
4000d888:	e31b0008 	tst	fp, #8
4000d88c:	e58d2044 	str	r2, [sp, #68]	; 0x44
4000d890:	e2834007 	add	r4, r3, #7
4000d894:	0a00042c 	beq	4000e94c <_svfprintf_r+0x1988>
4000d898:	e3c43007 	bic	r3, r4, #7
4000d89c:	e2832008 	add	r2, r3, #8
4000d8a0:	e58d2038 	str	r2, [sp, #56]	; 0x38
4000d8a4:	e5932000 	ldr	r2, [r3]
4000d8a8:	e5933004 	ldr	r3, [r3, #4]
4000d8ac:	e58d2050 	str	r2, [sp, #80]	; 0x50
4000d8b0:	e58d3054 	str	r3, [sp, #84]	; 0x54
4000d8b4:	e59d3054 	ldr	r3, [sp, #84]	; 0x54
4000d8b8:	e59d5050 	ldr	r5, [sp, #80]	; 0x50
4000d8bc:	e3c34102 	bic	r4, r3, #-2147483648	; 0x80000000
4000d8c0:	e1a00005 	mov	r0, r5
4000d8c4:	e1a01004 	mov	r1, r4
4000d8c8:	e3e02000 	mvn	r2, #0
4000d8cc:	e59f36fc 	ldr	r3, [pc, #1788]	; 4000dfd0 <_svfprintf_r+0x100c>
4000d8d0:	ebffd312 	bl	40002520 <__aeabi_dcmpun>
4000d8d4:	e3500000 	cmp	r0, #0
4000d8d8:	1a00036b 	bne	4000e68c <_svfprintf_r+0x16c8>
4000d8dc:	e1a00005 	mov	r0, r5
4000d8e0:	e1a01004 	mov	r1, r4
4000d8e4:	e3e02000 	mvn	r2, #0
4000d8e8:	e59f36e0 	ldr	r3, [pc, #1760]	; 4000dfd0 <_svfprintf_r+0x100c>
4000d8ec:	ebffd2f9 	bl	400024d8 <__aeabi_dcmple>
4000d8f0:	e3500000 	cmp	r0, #0
4000d8f4:	1a000364 	bne	4000e68c <_svfprintf_r+0x16c8>
4000d8f8:	e28d0050 	add	r0, sp, #80	; 0x50
4000d8fc:	e890000f 	ldm	r0, {r0, r1, r2, r3}
4000d900:	ebffd2ee 	bl	400024c0 <__aeabi_dcmplt>
4000d904:	e3500000 	cmp	r0, #0
4000d908:	1a000543 	bne	4000ee1c <_svfprintf_r+0x1e58>
4000d90c:	e5dd3077 	ldrb	r3, [sp, #119]	; 0x77
4000d910:	e58d3030 	str	r3, [sp, #48]	; 0x30
4000d914:	e3a03003 	mov	r3, #3
4000d918:	e1a05003 	mov	r5, r3
4000d91c:	e58d301c 	str	r3, [sp, #28]
4000d920:	e3a03000 	mov	r3, #0
4000d924:	e1a01003 	mov	r1, r3
4000d928:	e58d1048 	str	r1, [sp, #72]	; 0x48
4000d92c:	e59d1044 	ldr	r1, [sp, #68]	; 0x44
4000d930:	e58d3024 	str	r3, [sp, #36]	; 0x24
4000d934:	e59f3698 	ldr	r3, [pc, #1688]	; 4000dfd4 <_svfprintf_r+0x1010>
4000d938:	e3510047 	cmp	r1, #71	; 0x47
4000d93c:	e59f2694 	ldr	r2, [pc, #1684]	; 4000dfd8 <_svfprintf_r+0x1014>
4000d940:	d1a02003 	movle	r2, r3
4000d944:	e3cb0080 	bic	r0, fp, #128	; 0x80
4000d948:	e58d0018 	str	r0, [sp, #24]
4000d94c:	e58d2040 	str	r2, [sp, #64]	; 0x40
4000d950:	eafffe94 	b	4000d3a8 <_svfprintf_r+0x3e4>
4000d954:	e38bb008 	orr	fp, fp, #8
4000d958:	e5d92000 	ldrb	r2, [r9]
4000d95c:	eafffde4 	b	4000d0f4 <_svfprintf_r+0x130>
4000d960:	e38bb010 	orr	fp, fp, #16
4000d964:	e21b5020 	ands	r5, fp, #32
4000d968:	e58d2044 	str	r2, [sp, #68]	; 0x44
4000d96c:	0afffed8 	beq	4000d4d4 <_svfprintf_r+0x510>
4000d970:	e59d3038 	ldr	r3, [sp, #56]	; 0x38
4000d974:	e2834007 	add	r4, r3, #7
4000d978:	e3c43007 	bic	r3, r4, #7
4000d97c:	e2832008 	add	r2, r3, #8
4000d980:	e89300c0 	ldm	r3, {r6, r7}
4000d984:	e58d2038 	str	r2, [sp, #56]	; 0x38
4000d988:	e3a03000 	mov	r3, #0
4000d98c:	eafffe69 	b	4000d338 <_svfprintf_r+0x374>
4000d990:	e3a01000 	mov	r1, #0
4000d994:	e2427030 	sub	r7, r2, #48	; 0x30
4000d998:	e4d92001 	ldrb	r2, [r9], #1
4000d99c:	e0811101 	add	r1, r1, r1, lsl #2
4000d9a0:	e0871081 	add	r1, r7, r1, lsl #1
4000d9a4:	e2427030 	sub	r7, r2, #48	; 0x30
4000d9a8:	e3570009 	cmp	r7, #9
4000d9ac:	9afffff9 	bls	4000d998 <_svfprintf_r+0x9d4>
4000d9b0:	e58d1034 	str	r1, [sp, #52]	; 0x34
4000d9b4:	eafffdcf 	b	4000d0f8 <_svfprintf_r+0x134>
4000d9b8:	e3530000 	cmp	r3, #0
4000d9bc:	e59f3608 	ldr	r3, [pc, #1544]	; 4000dfcc <_svfprintf_r+0x1008>
4000d9c0:	15cd0077 	strbne	r0, [sp, #119]	; 0x77
4000d9c4:	e31b0020 	tst	fp, #32
4000d9c8:	e58d3064 	str	r3, [sp, #100]	; 0x64
4000d9cc:	e58d2044 	str	r2, [sp, #68]	; 0x44
4000d9d0:	e59d3038 	ldr	r3, [sp, #56]	; 0x38
4000d9d4:	0affff0f 	beq	4000d618 <_svfprintf_r+0x654>
4000d9d8:	e2834007 	add	r4, r3, #7
4000d9dc:	e3c43007 	bic	r3, r4, #7
4000d9e0:	e2832008 	add	r2, r3, #8
4000d9e4:	e31b0001 	tst	fp, #1
4000d9e8:	e58d2038 	str	r2, [sp, #56]	; 0x38
4000d9ec:	e89300c0 	ldm	r3, {r6, r7}
4000d9f0:	1affff15 	bne	4000d64c <_svfprintf_r+0x688>
4000d9f4:	e3a03002 	mov	r3, #2
4000d9f8:	eafffe4e 	b	4000d338 <_svfprintf_r+0x374>
4000d9fc:	e5d92000 	ldrb	r2, [r9]
4000da00:	e1a0300c 	mov	r3, ip
4000da04:	e1a0000e 	mov	r0, lr
4000da08:	eafffdb9 	b	4000d0f4 <_svfprintf_r+0x130>
4000da0c:	e38bb020 	orr	fp, fp, #32
4000da10:	e5d92000 	ldrb	r2, [r9]
4000da14:	eafffdb6 	b	4000d0f4 <_svfprintf_r+0x130>
4000da18:	e38bb001 	orr	fp, fp, #1
4000da1c:	e5d92000 	ldrb	r2, [r9]
4000da20:	eafffdb3 	b	4000d0f4 <_svfprintf_r+0x130>
4000da24:	e3500000 	cmp	r0, #0
4000da28:	e5d92000 	ldrb	r2, [r9]
4000da2c:	01a0300c 	moveq	r3, ip
4000da30:	01a00004 	moveq	r0, r4
4000da34:	eafffdae 	b	4000d0f4 <_svfprintf_r+0x130>
4000da38:	e58d2044 	str	r2, [sp, #68]	; 0x44
4000da3c:	e59d1044 	ldr	r1, [sp, #68]	; 0x44
4000da40:	e3530000 	cmp	r3, #0
4000da44:	15cd0077 	strbne	r0, [sp, #119]	; 0x77
4000da48:	e3510000 	cmp	r1, #0
4000da4c:	0afffe1b 	beq	4000d2c0 <_svfprintf_r+0x2fc>
4000da50:	e3a03000 	mov	r3, #0
4000da54:	e3a02001 	mov	r2, #1
4000da58:	e58d3030 	str	r3, [sp, #48]	; 0x30
4000da5c:	e5cd3077 	strb	r3, [sp, #119]	; 0x77
4000da60:	e58d3024 	str	r3, [sp, #36]	; 0x24
4000da64:	e58d3048 	str	r3, [sp, #72]	; 0x48
4000da68:	e28d30a0 	add	r3, sp, #160	; 0xa0
4000da6c:	e1a05002 	mov	r5, r2
4000da70:	e58d201c 	str	r2, [sp, #28]
4000da74:	e5cd10a0 	strb	r1, [sp, #160]	; 0xa0
4000da78:	e58db018 	str	fp, [sp, #24]
4000da7c:	e58d3040 	str	r3, [sp, #64]	; 0x40
4000da80:	eafffe4e 	b	4000d3c0 <_svfprintf_r+0x3fc>
4000da84:	e28d2094 	add	r2, sp, #148	; 0x94
4000da88:	e59d1028 	ldr	r1, [sp, #40]	; 0x28
4000da8c:	e59d002c 	ldr	r0, [sp, #44]	; 0x2c
4000da90:	eb001c10 	bl	40014ad8 <__ssprint_r>
4000da94:	e3500000 	cmp	r0, #0
4000da98:	1afffe0e 	bne	4000d2d8 <_svfprintf_r+0x314>
4000da9c:	e5dd3077 	ldrb	r3, [sp, #119]	; 0x77
4000daa0:	e58d3030 	str	r3, [sp, #48]	; 0x30
4000daa4:	e28da0c8 	add	sl, sp, #200	; 0xc8
4000daa8:	e59d409c 	ldr	r4, [sp, #156]	; 0x9c
4000daac:	e59d3030 	ldr	r3, [sp, #48]	; 0x30
4000dab0:	e3530000 	cmp	r3, #0
4000dab4:	0a00000b 	beq	4000dae8 <_svfprintf_r+0xb24>
4000dab8:	e3a02001 	mov	r2, #1
4000dabc:	e59d3098 	ldr	r3, [sp, #152]	; 0x98
4000dac0:	e0833002 	add	r3, r3, r2
4000dac4:	e3530007 	cmp	r3, #7
4000dac8:	e0844002 	add	r4, r4, r2
4000dacc:	e58d3098 	str	r3, [sp, #152]	; 0x98
4000dad0:	e28d3077 	add	r3, sp, #119	; 0x77
4000dad4:	e58a2004 	str	r2, [sl, #4]
4000dad8:	e58a3000 	str	r3, [sl]
4000dadc:	e58d409c 	str	r4, [sp, #156]	; 0x9c
4000dae0:	d28aa008 	addle	sl, sl, #8
4000dae4:	ca000193 	bgt	4000e138 <_svfprintf_r+0x1174>
4000dae8:	e3570000 	cmp	r7, #0
4000daec:	0a00000b 	beq	4000db20 <_svfprintf_r+0xb5c>
4000daf0:	e3a02002 	mov	r2, #2
4000daf4:	e59d3098 	ldr	r3, [sp, #152]	; 0x98
4000daf8:	e2833001 	add	r3, r3, #1
4000dafc:	e3530007 	cmp	r3, #7
4000db00:	e0844002 	add	r4, r4, r2
4000db04:	e58d3098 	str	r3, [sp, #152]	; 0x98
4000db08:	e28d3078 	add	r3, sp, #120	; 0x78
4000db0c:	e58a2004 	str	r2, [sl, #4]
4000db10:	e58a3000 	str	r3, [sl]
4000db14:	e58d409c 	str	r4, [sp, #156]	; 0x9c
4000db18:	d28aa008 	addle	sl, sl, #8
4000db1c:	ca00018e 	bgt	4000e15c <_svfprintf_r+0x1198>
4000db20:	e59d303c 	ldr	r3, [sp, #60]	; 0x3c
4000db24:	e3530080 	cmp	r3, #128	; 0x80
4000db28:	0a0000eb 	beq	4000dedc <_svfprintf_r+0xf18>
4000db2c:	e59d3024 	ldr	r3, [sp, #36]	; 0x24
4000db30:	e0436005 	sub	r6, r3, r5
4000db34:	e3560000 	cmp	r6, #0
4000db38:	da000032 	ble	4000dc08 <_svfprintf_r+0xc44>
4000db3c:	e3560010 	cmp	r6, #16
4000db40:	d59d3098 	ldrle	r3, [sp, #152]	; 0x98
4000db44:	da00001e 	ble	4000dbc4 <_svfprintf_r+0xc00>
4000db48:	e1a02004 	mov	r2, r4
4000db4c:	e28d4028 	add	r4, sp, #40	; 0x28
4000db50:	e3a07010 	mov	r7, #16
4000db54:	e59d3098 	ldr	r3, [sp, #152]	; 0x98
4000db58:	e8940810 	ldm	r4, {r4, fp}
4000db5c:	ea000002 	b	4000db6c <_svfprintf_r+0xba8>
4000db60:	e2466010 	sub	r6, r6, #16
4000db64:	e3560010 	cmp	r6, #16
4000db68:	da000014 	ble	4000dbc0 <_svfprintf_r+0xbfc>
4000db6c:	e2833001 	add	r3, r3, #1
4000db70:	e3530007 	cmp	r3, #7
4000db74:	e2822010 	add	r2, r2, #16
4000db78:	e58a8000 	str	r8, [sl]
4000db7c:	e58a7004 	str	r7, [sl, #4]
4000db80:	e58d3098 	str	r3, [sp, #152]	; 0x98
4000db84:	e58d209c 	str	r2, [sp, #156]	; 0x9c
4000db88:	d28aa008 	addle	sl, sl, #8
4000db8c:	dafffff3 	ble	4000db60 <_svfprintf_r+0xb9c>
4000db90:	e28d2094 	add	r2, sp, #148	; 0x94
4000db94:	e1a01004 	mov	r1, r4
4000db98:	e1a0000b 	mov	r0, fp
4000db9c:	eb001bcd 	bl	40014ad8 <__ssprint_r>
4000dba0:	e3500000 	cmp	r0, #0
4000dba4:	1afffdcb 	bne	4000d2d8 <_svfprintf_r+0x314>
4000dba8:	e2466010 	sub	r6, r6, #16
4000dbac:	e3560010 	cmp	r6, #16
4000dbb0:	e28da0c8 	add	sl, sp, #200	; 0xc8
4000dbb4:	e59d209c 	ldr	r2, [sp, #156]	; 0x9c
4000dbb8:	e59d3098 	ldr	r3, [sp, #152]	; 0x98
4000dbbc:	caffffea 	bgt	4000db6c <_svfprintf_r+0xba8>
4000dbc0:	e1a04002 	mov	r4, r2
4000dbc4:	e2833001 	add	r3, r3, #1
4000dbc8:	e3530007 	cmp	r3, #7
4000dbcc:	e0844006 	add	r4, r4, r6
4000dbd0:	e58a8000 	str	r8, [sl]
4000dbd4:	e58a6004 	str	r6, [sl, #4]
4000dbd8:	e58d3098 	str	r3, [sp, #152]	; 0x98
4000dbdc:	e58d409c 	str	r4, [sp, #156]	; 0x9c
4000dbe0:	d28aa008 	addle	sl, sl, #8
4000dbe4:	da000007 	ble	4000dc08 <_svfprintf_r+0xc44>
4000dbe8:	e28d2094 	add	r2, sp, #148	; 0x94
4000dbec:	e59d1028 	ldr	r1, [sp, #40]	; 0x28
4000dbf0:	e59d002c 	ldr	r0, [sp, #44]	; 0x2c
4000dbf4:	eb001bb7 	bl	40014ad8 <__ssprint_r>
4000dbf8:	e3500000 	cmp	r0, #0
4000dbfc:	1afffdb5 	bne	4000d2d8 <_svfprintf_r+0x314>
4000dc00:	e59d409c 	ldr	r4, [sp, #156]	; 0x9c
4000dc04:	e28da0c8 	add	sl, sp, #200	; 0xc8
4000dc08:	e59d3018 	ldr	r3, [sp, #24]
4000dc0c:	e3130c01 	tst	r3, #256	; 0x100
4000dc10:	1a00004d 	bne	4000dd4c <_svfprintf_r+0xd88>
4000dc14:	e59d3098 	ldr	r3, [sp, #152]	; 0x98
4000dc18:	e59d2040 	ldr	r2, [sp, #64]	; 0x40
4000dc1c:	e2833001 	add	r3, r3, #1
4000dc20:	e0844005 	add	r4, r4, r5
4000dc24:	e3530007 	cmp	r3, #7
4000dc28:	e58d409c 	str	r4, [sp, #156]	; 0x9c
4000dc2c:	e88a0024 	stm	sl, {r2, r5}
4000dc30:	e58d3098 	str	r3, [sp, #152]	; 0x98
4000dc34:	ca00015a 	bgt	4000e1a4 <_svfprintf_r+0x11e0>
4000dc38:	e28aa008 	add	sl, sl, #8
4000dc3c:	e59d3018 	ldr	r3, [sp, #24]
4000dc40:	e3130004 	tst	r3, #4
4000dc44:	0a000033 	beq	4000dd18 <_svfprintf_r+0xd54>
4000dc48:	e59d3034 	ldr	r3, [sp, #52]	; 0x34
4000dc4c:	e59d201c 	ldr	r2, [sp, #28]
4000dc50:	e0435002 	sub	r5, r3, r2
4000dc54:	e3550000 	cmp	r5, #0
4000dc58:	da00002e 	ble	4000dd18 <_svfprintf_r+0xd54>
4000dc5c:	e3550010 	cmp	r5, #16
4000dc60:	d59d3098 	ldrle	r3, [sp, #152]	; 0x98
4000dc64:	da00001c 	ble	4000dcdc <_svfprintf_r+0xd18>
4000dc68:	e3a06010 	mov	r6, #16
4000dc6c:	e59d3098 	ldr	r3, [sp, #152]	; 0x98
4000dc70:	e59d702c 	ldr	r7, [sp, #44]	; 0x2c
4000dc74:	e59db028 	ldr	fp, [sp, #40]	; 0x28
4000dc78:	ea000002 	b	4000dc88 <_svfprintf_r+0xcc4>
4000dc7c:	e2455010 	sub	r5, r5, #16
4000dc80:	e3550010 	cmp	r5, #16
4000dc84:	da000014 	ble	4000dcdc <_svfprintf_r+0xd18>
4000dc88:	e2833001 	add	r3, r3, #1
4000dc8c:	e59f2330 	ldr	r2, [pc, #816]	; 4000dfc4 <_svfprintf_r+0x1000>
4000dc90:	e3530007 	cmp	r3, #7
4000dc94:	e2844010 	add	r4, r4, #16
4000dc98:	e88a0044 	stm	sl, {r2, r6}
4000dc9c:	e58d3098 	str	r3, [sp, #152]	; 0x98
4000dca0:	e58d409c 	str	r4, [sp, #156]	; 0x9c
4000dca4:	d28aa008 	addle	sl, sl, #8
4000dca8:	dafffff3 	ble	4000dc7c <_svfprintf_r+0xcb8>
4000dcac:	e28d2094 	add	r2, sp, #148	; 0x94
4000dcb0:	e1a0100b 	mov	r1, fp
4000dcb4:	e1a00007 	mov	r0, r7
4000dcb8:	eb001b86 	bl	40014ad8 <__ssprint_r>
4000dcbc:	e3500000 	cmp	r0, #0
4000dcc0:	1afffd84 	bne	4000d2d8 <_svfprintf_r+0x314>
4000dcc4:	e2455010 	sub	r5, r5, #16
4000dcc8:	e28d3098 	add	r3, sp, #152	; 0x98
4000dccc:	e3550010 	cmp	r5, #16
4000dcd0:	e28da0c8 	add	sl, sp, #200	; 0xc8
4000dcd4:	e8930018 	ldm	r3, {r3, r4}
4000dcd8:	caffffea 	bgt	4000dc88 <_svfprintf_r+0xcc4>
4000dcdc:	e2833001 	add	r3, r3, #1
4000dce0:	e3530007 	cmp	r3, #7
4000dce4:	e58d3098 	str	r3, [sp, #152]	; 0x98
4000dce8:	e59f32d4 	ldr	r3, [pc, #724]	; 4000dfc4 <_svfprintf_r+0x1000>
4000dcec:	e0844005 	add	r4, r4, r5
4000dcf0:	e58d409c 	str	r4, [sp, #156]	; 0x9c
4000dcf4:	e88a0028 	stm	sl, {r3, r5}
4000dcf8:	da000006 	ble	4000dd18 <_svfprintf_r+0xd54>
4000dcfc:	e28d2094 	add	r2, sp, #148	; 0x94
4000dd00:	e59d1028 	ldr	r1, [sp, #40]	; 0x28
4000dd04:	e59d002c 	ldr	r0, [sp, #44]	; 0x2c
4000dd08:	eb001b72 	bl	40014ad8 <__ssprint_r>
4000dd0c:	e3500000 	cmp	r0, #0
4000dd10:	1afffd70 	bne	4000d2d8 <_svfprintf_r+0x314>
4000dd14:	e59d409c 	ldr	r4, [sp, #156]	; 0x9c
4000dd18:	e59d3020 	ldr	r3, [sp, #32]
4000dd1c:	e59d2034 	ldr	r2, [sp, #52]	; 0x34
4000dd20:	e59d101c 	ldr	r1, [sp, #28]
4000dd24:	e1520001 	cmp	r2, r1
4000dd28:	a0833002 	addge	r3, r3, r2
4000dd2c:	b0833001 	addlt	r3, r3, r1
4000dd30:	e3540000 	cmp	r4, #0
4000dd34:	e58d3020 	str	r3, [sp, #32]
4000dd38:	1a0000ea 	bne	4000e0e8 <_svfprintf_r+0x1124>
4000dd3c:	e3a03000 	mov	r3, #0
4000dd40:	e28da0c8 	add	sl, sp, #200	; 0xc8
4000dd44:	e58d3098 	str	r3, [sp, #152]	; 0x98
4000dd48:	eafffcbe 	b	4000d048 <_svfprintf_r+0x84>
4000dd4c:	e59d3044 	ldr	r3, [sp, #68]	; 0x44
4000dd50:	e3530065 	cmp	r3, #101	; 0x65
4000dd54:	da0000a5 	ble	4000dff0 <_svfprintf_r+0x102c>
4000dd58:	e28d0050 	add	r0, sp, #80	; 0x50
4000dd5c:	e890000f 	ldm	r0, {r0, r1, r2, r3}
4000dd60:	ebffd1d0 	bl	400024a8 <__aeabi_dcmpeq>
4000dd64:	e3500000 	cmp	r0, #0
4000dd68:	0a000116 	beq	4000e1c8 <_svfprintf_r+0x1204>
4000dd6c:	e3a02001 	mov	r2, #1
4000dd70:	e59d3098 	ldr	r3, [sp, #152]	; 0x98
4000dd74:	e59f1260 	ldr	r1, [pc, #608]	; 4000dfdc <_svfprintf_r+0x1018>
4000dd78:	e0833002 	add	r3, r3, r2
4000dd7c:	e0844002 	add	r4, r4, r2
4000dd80:	e3530007 	cmp	r3, #7
4000dd84:	e58a1000 	str	r1, [sl]
4000dd88:	e58a2004 	str	r2, [sl, #4]
4000dd8c:	e58d409c 	str	r4, [sp, #156]	; 0x9c
4000dd90:	e58d3098 	str	r3, [sp, #152]	; 0x98
4000dd94:	d28aa008 	addle	sl, sl, #8
4000dd98:	ca000302 	bgt	4000e9a8 <_svfprintf_r+0x19e4>
4000dd9c:	e59d307c 	ldr	r3, [sp, #124]	; 0x7c
4000dda0:	e59d204c 	ldr	r2, [sp, #76]	; 0x4c
4000dda4:	e1530002 	cmp	r3, r2
4000dda8:	ba000002 	blt	4000ddb8 <_svfprintf_r+0xdf4>
4000ddac:	e59d3018 	ldr	r3, [sp, #24]
4000ddb0:	e3130001 	tst	r3, #1
4000ddb4:	0a0000c9 	beq	4000e0e0 <_svfprintf_r+0x111c>
4000ddb8:	e28d3098 	add	r3, sp, #152	; 0x98
4000ddbc:	e8930018 	ldm	r3, {r3, r4}
4000ddc0:	e59d2060 	ldr	r2, [sp, #96]	; 0x60
4000ddc4:	e2833001 	add	r3, r3, #1
4000ddc8:	e59d1068 	ldr	r1, [sp, #104]	; 0x68
4000ddcc:	e3530007 	cmp	r3, #7
4000ddd0:	e0824004 	add	r4, r2, r4
4000ddd4:	e88a0006 	stm	sl, {r1, r2}
4000ddd8:	e58d3098 	str	r3, [sp, #152]	; 0x98
4000dddc:	e58d409c 	str	r4, [sp, #156]	; 0x9c
4000dde0:	d28aa008 	addle	sl, sl, #8
4000dde4:	ca00032b 	bgt	4000ea98 <_svfprintf_r+0x1ad4>
4000dde8:	e59d304c 	ldr	r3, [sp, #76]	; 0x4c
4000ddec:	e2435001 	sub	r5, r3, #1
4000ddf0:	e3550000 	cmp	r5, #0
4000ddf4:	daffff90 	ble	4000dc3c <_svfprintf_r+0xc78>
4000ddf8:	e3550010 	cmp	r5, #16
4000ddfc:	da0000df 	ble	4000e180 <_svfprintf_r+0x11bc>
4000de00:	e3a06010 	mov	r6, #16
4000de04:	e59d3098 	ldr	r3, [sp, #152]	; 0x98
4000de08:	e59d702c 	ldr	r7, [sp, #44]	; 0x2c
4000de0c:	e59db028 	ldr	fp, [sp, #40]	; 0x28
4000de10:	ea000002 	b	4000de20 <_svfprintf_r+0xe5c>
4000de14:	e2455010 	sub	r5, r5, #16
4000de18:	e3550010 	cmp	r5, #16
4000de1c:	da0000d8 	ble	4000e184 <_svfprintf_r+0x11c0>
4000de20:	e2833001 	add	r3, r3, #1
4000de24:	e3530007 	cmp	r3, #7
4000de28:	e2844010 	add	r4, r4, #16
4000de2c:	e58a8000 	str	r8, [sl]
4000de30:	e58a6004 	str	r6, [sl, #4]
4000de34:	e58d3098 	str	r3, [sp, #152]	; 0x98
4000de38:	e58d409c 	str	r4, [sp, #156]	; 0x9c
4000de3c:	d28aa008 	addle	sl, sl, #8
4000de40:	dafffff3 	ble	4000de14 <_svfprintf_r+0xe50>
4000de44:	e28d2094 	add	r2, sp, #148	; 0x94
4000de48:	e1a0100b 	mov	r1, fp
4000de4c:	e1a00007 	mov	r0, r7
4000de50:	eb001b20 	bl	40014ad8 <__ssprint_r>
4000de54:	e3500000 	cmp	r0, #0
4000de58:	1afffd1e 	bne	4000d2d8 <_svfprintf_r+0x314>
4000de5c:	e28d3098 	add	r3, sp, #152	; 0x98
4000de60:	e28da0c8 	add	sl, sp, #200	; 0xc8
4000de64:	e8930018 	ldm	r3, {r3, r4}
4000de68:	eaffffe9 	b	4000de14 <_svfprintf_r+0xe50>
4000de6c:	e1a01002 	mov	r1, r2
4000de70:	e1a021a6 	lsr	r2, r6, #3
4000de74:	e1822e87 	orr	r2, r2, r7, lsl #29
4000de78:	e1a001a7 	lsr	r0, r7, #3
4000de7c:	e2063007 	and	r3, r6, #7
4000de80:	e1a07000 	mov	r7, r0
4000de84:	e1a06002 	mov	r6, r2
4000de88:	e2833030 	add	r3, r3, #48	; 0x30
4000de8c:	e1962007 	orrs	r2, r6, r7
4000de90:	e5413001 	strb	r3, [r1, #-1]
4000de94:	e2412001 	sub	r2, r1, #1
4000de98:	1afffff3 	bne	4000de6c <_svfprintf_r+0xea8>
4000de9c:	e3530030 	cmp	r3, #48	; 0x30
4000dea0:	03a03000 	moveq	r3, #0
4000dea4:	120b3001 	andne	r3, fp, #1
4000dea8:	e3530000 	cmp	r3, #0
4000deac:	0a0002c5 	beq	4000e9c8 <_svfprintf_r+0x1a04>
4000deb0:	e3a03030 	mov	r3, #48	; 0x30
4000deb4:	e2411002 	sub	r1, r1, #2
4000deb8:	e28d00c8 	add	r0, sp, #200	; 0xc8
4000debc:	e58d1040 	str	r1, [sp, #64]	; 0x40
4000dec0:	e58db018 	str	fp, [sp, #24]
4000dec4:	e0405001 	sub	r5, r0, r1
4000dec8:	e5423001 	strb	r3, [r2, #-1]
4000decc:	eafffd2f 	b	4000d390 <_svfprintf_r+0x3cc>
4000ded0:	e28d30c8 	add	r3, sp, #200	; 0xc8
4000ded4:	e58d3040 	str	r3, [sp, #64]	; 0x40
4000ded8:	eafffd2c 	b	4000d390 <_svfprintf_r+0x3cc>
4000dedc:	e59d3034 	ldr	r3, [sp, #52]	; 0x34
4000dee0:	e59d201c 	ldr	r2, [sp, #28]
4000dee4:	e0436002 	sub	r6, r3, r2
4000dee8:	e3560000 	cmp	r6, #0
4000deec:	daffff0e 	ble	4000db2c <_svfprintf_r+0xb68>
4000def0:	e3560010 	cmp	r6, #16
4000def4:	d59d3098 	ldrle	r3, [sp, #152]	; 0x98
4000def8:	da00001e 	ble	4000df78 <_svfprintf_r+0xfb4>
4000defc:	e1a02004 	mov	r2, r4
4000df00:	e28d4028 	add	r4, sp, #40	; 0x28
4000df04:	e3a07010 	mov	r7, #16
4000df08:	e59d3098 	ldr	r3, [sp, #152]	; 0x98
4000df0c:	e8940810 	ldm	r4, {r4, fp}
4000df10:	ea000002 	b	4000df20 <_svfprintf_r+0xf5c>
4000df14:	e2466010 	sub	r6, r6, #16
4000df18:	e3560010 	cmp	r6, #16
4000df1c:	da000014 	ble	4000df74 <_svfprintf_r+0xfb0>
4000df20:	e2833001 	add	r3, r3, #1
4000df24:	e3530007 	cmp	r3, #7
4000df28:	e2822010 	add	r2, r2, #16
4000df2c:	e58a8000 	str	r8, [sl]
4000df30:	e58a7004 	str	r7, [sl, #4]
4000df34:	e58d3098 	str	r3, [sp, #152]	; 0x98
4000df38:	e58d209c 	str	r2, [sp, #156]	; 0x9c
4000df3c:	d28aa008 	addle	sl, sl, #8
4000df40:	dafffff3 	ble	4000df14 <_svfprintf_r+0xf50>
4000df44:	e28d2094 	add	r2, sp, #148	; 0x94
4000df48:	e1a01004 	mov	r1, r4
4000df4c:	e1a0000b 	mov	r0, fp
4000df50:	eb001ae0 	bl	40014ad8 <__ssprint_r>
4000df54:	e3500000 	cmp	r0, #0
4000df58:	1afffcde 	bne	4000d2d8 <_svfprintf_r+0x314>
4000df5c:	e2466010 	sub	r6, r6, #16
4000df60:	e3560010 	cmp	r6, #16
4000df64:	e28da0c8 	add	sl, sp, #200	; 0xc8
4000df68:	e59d209c 	ldr	r2, [sp, #156]	; 0x9c
4000df6c:	e59d3098 	ldr	r3, [sp, #152]	; 0x98
4000df70:	caffffea 	bgt	4000df20 <_svfprintf_r+0xf5c>
4000df74:	e1a04002 	mov	r4, r2
4000df78:	e2833001 	add	r3, r3, #1
4000df7c:	e3530007 	cmp	r3, #7
4000df80:	e0844006 	add	r4, r4, r6
4000df84:	e58a8000 	str	r8, [sl]
4000df88:	e58a6004 	str	r6, [sl, #4]
4000df8c:	e58d3098 	str	r3, [sp, #152]	; 0x98
4000df90:	e58d409c 	str	r4, [sp, #156]	; 0x9c
4000df94:	d28aa008 	addle	sl, sl, #8
4000df98:	dafffee3 	ble	4000db2c <_svfprintf_r+0xb68>
4000df9c:	e28d2094 	add	r2, sp, #148	; 0x94
4000dfa0:	e59d1028 	ldr	r1, [sp, #40]	; 0x28
4000dfa4:	e59d002c 	ldr	r0, [sp, #44]	; 0x2c
4000dfa8:	eb001aca 	bl	40014ad8 <__ssprint_r>
4000dfac:	e3500000 	cmp	r0, #0
4000dfb0:	1afffcc8 	bne	4000d2d8 <_svfprintf_r+0x314>
4000dfb4:	e28da0c8 	add	sl, sp, #200	; 0xc8
4000dfb8:	e59d409c 	ldr	r4, [sp, #156]	; 0x9c
4000dfbc:	eafffeda 	b	4000db2c <_svfprintf_r+0xb68>
4000dfc0:	400197f0 	.word	0x400197f0
4000dfc4:	400197e0 	.word	0x400197e0
4000dfc8:	400197ac 	.word	0x400197ac
4000dfcc:	400197c0 	.word	0x400197c0
4000dfd0:	7fefffff 	.word	0x7fefffff
4000dfd4:	4001979c 	.word	0x4001979c
4000dfd8:	400197a0 	.word	0x400197a0
4000dfdc:	400197dc 	.word	0x400197dc
4000dfe0:	66666667 	.word	0x66666667
4000dfe4:	400197d4 	.word	0x400197d4
4000dfe8:	400197a4 	.word	0x400197a4
4000dfec:	400197a8 	.word	0x400197a8
4000dff0:	e59d304c 	ldr	r3, [sp, #76]	; 0x4c
4000dff4:	e3530001 	cmp	r3, #1
4000dff8:	da000151 	ble	4000e544 <_svfprintf_r+0x1580>
4000dffc:	e3a03001 	mov	r3, #1
4000e000:	e59d5098 	ldr	r5, [sp, #152]	; 0x98
4000e004:	e59d2040 	ldr	r2, [sp, #64]	; 0x40
4000e008:	e0855003 	add	r5, r5, r3
4000e00c:	e0844003 	add	r4, r4, r3
4000e010:	e3550007 	cmp	r5, #7
4000e014:	e58a2000 	str	r2, [sl]
4000e018:	e58a3004 	str	r3, [sl, #4]
4000e01c:	e58d409c 	str	r4, [sp, #156]	; 0x9c
4000e020:	e58d5098 	str	r5, [sp, #152]	; 0x98
4000e024:	d28aa008 	addle	sl, sl, #8
4000e028:	ca00015d 	bgt	4000e5a4 <_svfprintf_r+0x15e0>
4000e02c:	e59d3060 	ldr	r3, [sp, #96]	; 0x60
4000e030:	e2855001 	add	r5, r5, #1
4000e034:	e59d2068 	ldr	r2, [sp, #104]	; 0x68
4000e038:	e3550007 	cmp	r5, #7
4000e03c:	e0834004 	add	r4, r3, r4
4000e040:	e88a000c 	stm	sl, {r2, r3}
4000e044:	e58d5098 	str	r5, [sp, #152]	; 0x98
4000e048:	e58d409c 	str	r4, [sp, #156]	; 0x9c
4000e04c:	d28aa008 	addle	sl, sl, #8
4000e050:	ca00015d 	bgt	4000e5cc <_svfprintf_r+0x1608>
4000e054:	e28d0050 	add	r0, sp, #80	; 0x50
4000e058:	e890000f 	ldm	r0, {r0, r1, r2, r3}
4000e05c:	ebffd111 	bl	400024a8 <__aeabi_dcmpeq>
4000e060:	e3500000 	cmp	r0, #0
4000e064:	1a00008f 	bne	4000e2a8 <_svfprintf_r+0x12e4>
4000e068:	e59d304c 	ldr	r3, [sp, #76]	; 0x4c
4000e06c:	e59d2040 	ldr	r2, [sp, #64]	; 0x40
4000e070:	e2855001 	add	r5, r5, #1
4000e074:	e2433001 	sub	r3, r3, #1
4000e078:	e2822001 	add	r2, r2, #1
4000e07c:	e0844003 	add	r4, r4, r3
4000e080:	e3550007 	cmp	r5, #7
4000e084:	e58d5098 	str	r5, [sp, #152]	; 0x98
4000e088:	e58a2000 	str	r2, [sl]
4000e08c:	e58d409c 	str	r4, [sp, #156]	; 0x9c
4000e090:	e58a3004 	str	r3, [sl, #4]
4000e094:	ca0000b1 	bgt	4000e360 <_svfprintf_r+0x139c>
4000e098:	e28aa008 	add	sl, sl, #8
4000e09c:	e59d206c 	ldr	r2, [sp, #108]	; 0x6c
4000e0a0:	e2855001 	add	r5, r5, #1
4000e0a4:	e0824004 	add	r4, r2, r4
4000e0a8:	e28d3084 	add	r3, sp, #132	; 0x84
4000e0ac:	e3550007 	cmp	r5, #7
4000e0b0:	e58d5098 	str	r5, [sp, #152]	; 0x98
4000e0b4:	e58d409c 	str	r4, [sp, #156]	; 0x9c
4000e0b8:	e58a2004 	str	r2, [sl, #4]
4000e0bc:	e58a3000 	str	r3, [sl]
4000e0c0:	dafffedc 	ble	4000dc38 <_svfprintf_r+0xc74>
4000e0c4:	e28d2094 	add	r2, sp, #148	; 0x94
4000e0c8:	e59d1028 	ldr	r1, [sp, #40]	; 0x28
4000e0cc:	e59d002c 	ldr	r0, [sp, #44]	; 0x2c
4000e0d0:	eb001a80 	bl	40014ad8 <__ssprint_r>
4000e0d4:	e3500000 	cmp	r0, #0
4000e0d8:	1afffc7e 	bne	4000d2d8 <_svfprintf_r+0x314>
4000e0dc:	e28da0c8 	add	sl, sp, #200	; 0xc8
4000e0e0:	e59d409c 	ldr	r4, [sp, #156]	; 0x9c
4000e0e4:	eafffed4 	b	4000dc3c <_svfprintf_r+0xc78>
4000e0e8:	e28d2094 	add	r2, sp, #148	; 0x94
4000e0ec:	e59d1028 	ldr	r1, [sp, #40]	; 0x28
4000e0f0:	e59d002c 	ldr	r0, [sp, #44]	; 0x2c
4000e0f4:	eb001a77 	bl	40014ad8 <__ssprint_r>
4000e0f8:	e3500000 	cmp	r0, #0
4000e0fc:	0affff0e 	beq	4000dd3c <_svfprintf_r+0xd78>
4000e100:	eafffc74 	b	4000d2d8 <_svfprintf_r+0x314>
4000e104:	e3530001 	cmp	r3, #1
4000e108:	e1a0b002 	mov	fp, r2
4000e10c:	1afffd84 	bne	4000d724 <_svfprintf_r+0x760>
4000e110:	e3570000 	cmp	r7, #0
4000e114:	03560009 	cmpeq	r6, #9
4000e118:	8a000135 	bhi	4000e5f4 <_svfprintf_r+0x1630>
4000e11c:	e28d2f42 	add	r2, sp, #264	; 0x108
4000e120:	e2866030 	add	r6, r6, #48	; 0x30
4000e124:	e5626041 	strb	r6, [r2, #-65]!	; 0xffffffbf
4000e128:	e58db018 	str	fp, [sp, #24]
4000e12c:	e1a05003 	mov	r5, r3
4000e130:	e58d2040 	str	r2, [sp, #64]	; 0x40
4000e134:	eafffc95 	b	4000d390 <_svfprintf_r+0x3cc>
4000e138:	e28d2094 	add	r2, sp, #148	; 0x94
4000e13c:	e59d1028 	ldr	r1, [sp, #40]	; 0x28
4000e140:	e59d002c 	ldr	r0, [sp, #44]	; 0x2c
4000e144:	eb001a63 	bl	40014ad8 <__ssprint_r>
4000e148:	e3500000 	cmp	r0, #0
4000e14c:	1afffc61 	bne	4000d2d8 <_svfprintf_r+0x314>
4000e150:	e28da0c8 	add	sl, sp, #200	; 0xc8
4000e154:	e59d409c 	ldr	r4, [sp, #156]	; 0x9c
4000e158:	eafffe62 	b	4000dae8 <_svfprintf_r+0xb24>
4000e15c:	e28d2094 	add	r2, sp, #148	; 0x94
4000e160:	e59d1028 	ldr	r1, [sp, #40]	; 0x28
4000e164:	e59d002c 	ldr	r0, [sp, #44]	; 0x2c
4000e168:	eb001a5a 	bl	40014ad8 <__ssprint_r>
4000e16c:	e3500000 	cmp	r0, #0
4000e170:	1afffc58 	bne	4000d2d8 <_svfprintf_r+0x314>
4000e174:	e28da0c8 	add	sl, sp, #200	; 0xc8
4000e178:	e59d409c 	ldr	r4, [sp, #156]	; 0x9c
4000e17c:	eafffe67 	b	4000db20 <_svfprintf_r+0xb5c>
4000e180:	e59d3098 	ldr	r3, [sp, #152]	; 0x98
4000e184:	e2833001 	add	r3, r3, #1
4000e188:	e0844005 	add	r4, r4, r5
4000e18c:	e3530007 	cmp	r3, #7
4000e190:	e58d3098 	str	r3, [sp, #152]	; 0x98
4000e194:	e58d409c 	str	r4, [sp, #156]	; 0x9c
4000e198:	e58a8000 	str	r8, [sl]
4000e19c:	e58a5004 	str	r5, [sl, #4]
4000e1a0:	dafffea4 	ble	4000dc38 <_svfprintf_r+0xc74>
4000e1a4:	e28d2094 	add	r2, sp, #148	; 0x94
4000e1a8:	e59d1028 	ldr	r1, [sp, #40]	; 0x28
4000e1ac:	e59d002c 	ldr	r0, [sp, #44]	; 0x2c
4000e1b0:	eb001a48 	bl	40014ad8 <__ssprint_r>
4000e1b4:	e3500000 	cmp	r0, #0
4000e1b8:	1afffc46 	bne	4000d2d8 <_svfprintf_r+0x314>
4000e1bc:	e59d409c 	ldr	r4, [sp, #156]	; 0x9c
4000e1c0:	e28da0c8 	add	sl, sp, #200	; 0xc8
4000e1c4:	eafffe9c 	b	4000dc3c <_svfprintf_r+0xc78>
4000e1c8:	e59d507c 	ldr	r5, [sp, #124]	; 0x7c
4000e1cc:	e3550000 	cmp	r5, #0
4000e1d0:	da000201 	ble	4000e9dc <_svfprintf_r+0x1a18>
4000e1d4:	e59d3048 	ldr	r3, [sp, #72]	; 0x48
4000e1d8:	e59d204c 	ldr	r2, [sp, #76]	; 0x4c
4000e1dc:	e1530002 	cmp	r3, r2
4000e1e0:	b1a05003 	movlt	r5, r3
4000e1e4:	a1a05002 	movge	r5, r2
4000e1e8:	e3550000 	cmp	r5, #0
4000e1ec:	da000009 	ble	4000e218 <_svfprintf_r+0x1254>
4000e1f0:	e59d3098 	ldr	r3, [sp, #152]	; 0x98
4000e1f4:	e59d2040 	ldr	r2, [sp, #64]	; 0x40
4000e1f8:	e2833001 	add	r3, r3, #1
4000e1fc:	e0844005 	add	r4, r4, r5
4000e200:	e3530007 	cmp	r3, #7
4000e204:	e88a0024 	stm	sl, {r2, r5}
4000e208:	e58d409c 	str	r4, [sp, #156]	; 0x9c
4000e20c:	e58d3098 	str	r3, [sp, #152]	; 0x98
4000e210:	d28aa008 	addle	sl, sl, #8
4000e214:	ca0002df 	bgt	4000ed98 <_svfprintf_r+0x1dd4>
4000e218:	e59d3048 	ldr	r3, [sp, #72]	; 0x48
4000e21c:	e3550000 	cmp	r5, #0
4000e220:	a0433005 	subge	r3, r3, r5
4000e224:	e3530000 	cmp	r3, #0
4000e228:	e1a05003 	mov	r5, r3
4000e22c:	da000072 	ble	4000e3fc <_svfprintf_r+0x1438>
4000e230:	e3530010 	cmp	r3, #16
4000e234:	d59d3098 	ldrle	r3, [sp, #152]	; 0x98
4000e238:	da00005e 	ble	4000e3b8 <_svfprintf_r+0x13f4>
4000e23c:	e3a06010 	mov	r6, #16
4000e240:	e59d3098 	ldr	r3, [sp, #152]	; 0x98
4000e244:	e59d702c 	ldr	r7, [sp, #44]	; 0x2c
4000e248:	e59db028 	ldr	fp, [sp, #40]	; 0x28
4000e24c:	ea000002 	b	4000e25c <_svfprintf_r+0x1298>
4000e250:	e2455010 	sub	r5, r5, #16
4000e254:	e3550010 	cmp	r5, #16
4000e258:	da000056 	ble	4000e3b8 <_svfprintf_r+0x13f4>
4000e25c:	e2833001 	add	r3, r3, #1
4000e260:	e3530007 	cmp	r3, #7
4000e264:	e2844010 	add	r4, r4, #16
4000e268:	e58a8000 	str	r8, [sl]
4000e26c:	e58a6004 	str	r6, [sl, #4]
4000e270:	e58d3098 	str	r3, [sp, #152]	; 0x98
4000e274:	e58d409c 	str	r4, [sp, #156]	; 0x9c
4000e278:	d28aa008 	addle	sl, sl, #8
4000e27c:	dafffff3 	ble	4000e250 <_svfprintf_r+0x128c>
4000e280:	e28d2094 	add	r2, sp, #148	; 0x94
4000e284:	e1a0100b 	mov	r1, fp
4000e288:	e1a00007 	mov	r0, r7
4000e28c:	eb001a11 	bl	40014ad8 <__ssprint_r>
4000e290:	e3500000 	cmp	r0, #0
4000e294:	1afffc0f 	bne	4000d2d8 <_svfprintf_r+0x314>
4000e298:	e28d3098 	add	r3, sp, #152	; 0x98
4000e29c:	e28da0c8 	add	sl, sp, #200	; 0xc8
4000e2a0:	e8930018 	ldm	r3, {r3, r4}
4000e2a4:	eaffffe9 	b	4000e250 <_svfprintf_r+0x128c>
4000e2a8:	e59d304c 	ldr	r3, [sp, #76]	; 0x4c
4000e2ac:	e2436001 	sub	r6, r3, #1
4000e2b0:	e3560000 	cmp	r6, #0
4000e2b4:	daffff78 	ble	4000e09c <_svfprintf_r+0x10d8>
4000e2b8:	e3560010 	cmp	r6, #16
4000e2bc:	da00001f 	ble	4000e340 <_svfprintf_r+0x137c>
4000e2c0:	e58d9024 	str	r9, [sp, #36]	; 0x24
4000e2c4:	e1a09006 	mov	r9, r6
4000e2c8:	e28d6028 	add	r6, sp, #40	; 0x28
4000e2cc:	e3a07010 	mov	r7, #16
4000e2d0:	e8960840 	ldm	r6, {r6, fp}
4000e2d4:	ea000002 	b	4000e2e4 <_svfprintf_r+0x1320>
4000e2d8:	e2499010 	sub	r9, r9, #16
4000e2dc:	e3590010 	cmp	r9, #16
4000e2e0:	da000014 	ble	4000e338 <_svfprintf_r+0x1374>
4000e2e4:	e2855001 	add	r5, r5, #1
4000e2e8:	e3550007 	cmp	r5, #7
4000e2ec:	e2844010 	add	r4, r4, #16
4000e2f0:	e58a8000 	str	r8, [sl]
4000e2f4:	e58a7004 	str	r7, [sl, #4]
4000e2f8:	e58d5098 	str	r5, [sp, #152]	; 0x98
4000e2fc:	e58d409c 	str	r4, [sp, #156]	; 0x9c
4000e300:	d28aa008 	addle	sl, sl, #8
4000e304:	dafffff3 	ble	4000e2d8 <_svfprintf_r+0x1314>
4000e308:	e28d2094 	add	r2, sp, #148	; 0x94
4000e30c:	e1a01006 	mov	r1, r6
4000e310:	e1a0000b 	mov	r0, fp
4000e314:	eb0019ef 	bl	40014ad8 <__ssprint_r>
4000e318:	e3500000 	cmp	r0, #0
4000e31c:	1afffbed 	bne	4000d2d8 <_svfprintf_r+0x314>
4000e320:	e2499010 	sub	r9, r9, #16
4000e324:	e3590010 	cmp	r9, #16
4000e328:	e28da0c8 	add	sl, sp, #200	; 0xc8
4000e32c:	e59d409c 	ldr	r4, [sp, #156]	; 0x9c
4000e330:	e59d5098 	ldr	r5, [sp, #152]	; 0x98
4000e334:	caffffea 	bgt	4000e2e4 <_svfprintf_r+0x1320>
4000e338:	e1a06009 	mov	r6, r9
4000e33c:	e59d9024 	ldr	r9, [sp, #36]	; 0x24
4000e340:	e2855001 	add	r5, r5, #1
4000e344:	e0844006 	add	r4, r4, r6
4000e348:	e3550007 	cmp	r5, #7
4000e34c:	e58d5098 	str	r5, [sp, #152]	; 0x98
4000e350:	e58d409c 	str	r4, [sp, #156]	; 0x9c
4000e354:	e58a8000 	str	r8, [sl]
4000e358:	e58a6004 	str	r6, [sl, #4]
4000e35c:	daffff4d 	ble	4000e098 <_svfprintf_r+0x10d4>
4000e360:	e28d2094 	add	r2, sp, #148	; 0x94
4000e364:	e59d1028 	ldr	r1, [sp, #40]	; 0x28
4000e368:	e59d002c 	ldr	r0, [sp, #44]	; 0x2c
4000e36c:	eb0019d9 	bl	40014ad8 <__ssprint_r>
4000e370:	e3500000 	cmp	r0, #0
4000e374:	1afffbd7 	bne	4000d2d8 <_svfprintf_r+0x314>
4000e378:	e59d409c 	ldr	r4, [sp, #156]	; 0x9c
4000e37c:	e59d5098 	ldr	r5, [sp, #152]	; 0x98
4000e380:	e28da0c8 	add	sl, sp, #200	; 0xc8
4000e384:	eaffff44 	b	4000e09c <_svfprintf_r+0x10d8>
4000e388:	e2822004 	add	r2, r2, #4
4000e38c:	e5936000 	ldr	r6, [r3]
4000e390:	e3a07000 	mov	r7, #0
4000e394:	e3a03001 	mov	r3, #1
4000e398:	e58d2038 	str	r2, [sp, #56]	; 0x38
4000e39c:	eafffbe5 	b	4000d338 <_svfprintf_r+0x374>
4000e3a0:	e5926000 	ldr	r6, [r2]
4000e3a4:	e2822004 	add	r2, r2, #4
4000e3a8:	e1a03005 	mov	r3, r5
4000e3ac:	e58d2038 	str	r2, [sp, #56]	; 0x38
4000e3b0:	e3a07000 	mov	r7, #0
4000e3b4:	eafffbdf 	b	4000d338 <_svfprintf_r+0x374>
4000e3b8:	e2833001 	add	r3, r3, #1
4000e3bc:	e3530007 	cmp	r3, #7
4000e3c0:	e0844005 	add	r4, r4, r5
4000e3c4:	e58a8000 	str	r8, [sl]
4000e3c8:	e58a5004 	str	r5, [sl, #4]
4000e3cc:	e58d3098 	str	r3, [sp, #152]	; 0x98
4000e3d0:	e58d409c 	str	r4, [sp, #156]	; 0x9c
4000e3d4:	d28aa008 	addle	sl, sl, #8
4000e3d8:	da000007 	ble	4000e3fc <_svfprintf_r+0x1438>
4000e3dc:	e28d2094 	add	r2, sp, #148	; 0x94
4000e3e0:	e59d1028 	ldr	r1, [sp, #40]	; 0x28
4000e3e4:	e59d002c 	ldr	r0, [sp, #44]	; 0x2c
4000e3e8:	eb0019ba 	bl	40014ad8 <__ssprint_r>
4000e3ec:	e3500000 	cmp	r0, #0
4000e3f0:	1afffbb8 	bne	4000d2d8 <_svfprintf_r+0x314>
4000e3f4:	e59d409c 	ldr	r4, [sp, #156]	; 0x9c
4000e3f8:	e28da0c8 	add	sl, sp, #200	; 0xc8
4000e3fc:	e59d207c 	ldr	r2, [sp, #124]	; 0x7c
4000e400:	e59d304c 	ldr	r3, [sp, #76]	; 0x4c
4000e404:	e1520003 	cmp	r2, r3
4000e408:	ba000038 	blt	4000e4f0 <_svfprintf_r+0x152c>
4000e40c:	e59d3018 	ldr	r3, [sp, #24]
4000e410:	e3130001 	tst	r3, #1
4000e414:	1a000035 	bne	4000e4f0 <_svfprintf_r+0x152c>
4000e418:	e59d304c 	ldr	r3, [sp, #76]	; 0x4c
4000e41c:	e59d0048 	ldr	r0, [sp, #72]	; 0x48
4000e420:	e0432002 	sub	r2, r3, r2
4000e424:	e0435000 	sub	r5, r3, r0
4000e428:	e1550002 	cmp	r5, r2
4000e42c:	a1a05002 	movge	r5, r2
4000e430:	e3550000 	cmp	r5, #0
4000e434:	da00000b 	ble	4000e468 <_svfprintf_r+0x14a4>
4000e438:	e59d1098 	ldr	r1, [sp, #152]	; 0x98
4000e43c:	e59dc040 	ldr	ip, [sp, #64]	; 0x40
4000e440:	e2811001 	add	r1, r1, #1
4000e444:	e08c3000 	add	r3, ip, r0
4000e448:	e0844005 	add	r4, r4, r5
4000e44c:	e3510007 	cmp	r1, #7
4000e450:	e58a3000 	str	r3, [sl]
4000e454:	e58a5004 	str	r5, [sl, #4]
4000e458:	e58d409c 	str	r4, [sp, #156]	; 0x9c
4000e45c:	e58d1098 	str	r1, [sp, #152]	; 0x98
4000e460:	d28aa008 	addle	sl, sl, #8
4000e464:	ca000254 	bgt	4000edbc <_svfprintf_r+0x1df8>
4000e468:	e3550000 	cmp	r5, #0
4000e46c:	b1a05002 	movlt	r5, r2
4000e470:	a0425005 	subge	r5, r2, r5
4000e474:	e3550000 	cmp	r5, #0
4000e478:	dafffdef 	ble	4000dc3c <_svfprintf_r+0xc78>
4000e47c:	e3550010 	cmp	r5, #16
4000e480:	daffff3e 	ble	4000e180 <_svfprintf_r+0x11bc>
4000e484:	e3a06010 	mov	r6, #16
4000e488:	e59d3098 	ldr	r3, [sp, #152]	; 0x98
4000e48c:	e59d702c 	ldr	r7, [sp, #44]	; 0x2c
4000e490:	e59db028 	ldr	fp, [sp, #40]	; 0x28
4000e494:	ea000002 	b	4000e4a4 <_svfprintf_r+0x14e0>
4000e498:	e2455010 	sub	r5, r5, #16
4000e49c:	e3550010 	cmp	r5, #16
4000e4a0:	daffff37 	ble	4000e184 <_svfprintf_r+0x11c0>
4000e4a4:	e2833001 	add	r3, r3, #1
4000e4a8:	e3530007 	cmp	r3, #7
4000e4ac:	e2844010 	add	r4, r4, #16
4000e4b0:	e58a8000 	str	r8, [sl]
4000e4b4:	e58a6004 	str	r6, [sl, #4]
4000e4b8:	e58d3098 	str	r3, [sp, #152]	; 0x98
4000e4bc:	e58d409c 	str	r4, [sp, #156]	; 0x9c
4000e4c0:	d28aa008 	addle	sl, sl, #8
4000e4c4:	dafffff3 	ble	4000e498 <_svfprintf_r+0x14d4>
4000e4c8:	e28d2094 	add	r2, sp, #148	; 0x94
4000e4cc:	e1a0100b 	mov	r1, fp
4000e4d0:	e1a00007 	mov	r0, r7
4000e4d4:	eb00197f 	bl	40014ad8 <__ssprint_r>
4000e4d8:	e3500000 	cmp	r0, #0
4000e4dc:	1afffb7d 	bne	4000d2d8 <_svfprintf_r+0x314>
4000e4e0:	e28d3098 	add	r3, sp, #152	; 0x98
4000e4e4:	e28da0c8 	add	sl, sp, #200	; 0xc8
4000e4e8:	e8930018 	ldm	r3, {r3, r4}
4000e4ec:	eaffffe9 	b	4000e498 <_svfprintf_r+0x14d4>
4000e4f0:	e59d3098 	ldr	r3, [sp, #152]	; 0x98
4000e4f4:	e59d1060 	ldr	r1, [sp, #96]	; 0x60
4000e4f8:	e2833001 	add	r3, r3, #1
4000e4fc:	e59d0068 	ldr	r0, [sp, #104]	; 0x68
4000e500:	e0844001 	add	r4, r4, r1
4000e504:	e3530007 	cmp	r3, #7
4000e508:	e88a0003 	stm	sl, {r0, r1}
4000e50c:	e58d409c 	str	r4, [sp, #156]	; 0x9c
4000e510:	e58d3098 	str	r3, [sp, #152]	; 0x98
4000e514:	d28aa008 	addle	sl, sl, #8
4000e518:	daffffbe 	ble	4000e418 <_svfprintf_r+0x1454>
4000e51c:	e28d2094 	add	r2, sp, #148	; 0x94
4000e520:	e59d1028 	ldr	r1, [sp, #40]	; 0x28
4000e524:	e59d002c 	ldr	r0, [sp, #44]	; 0x2c
4000e528:	eb00196a 	bl	40014ad8 <__ssprint_r>
4000e52c:	e3500000 	cmp	r0, #0
4000e530:	1afffb68 	bne	4000d2d8 <_svfprintf_r+0x314>
4000e534:	e28da0c8 	add	sl, sp, #200	; 0xc8
4000e538:	e59d207c 	ldr	r2, [sp, #124]	; 0x7c
4000e53c:	e59d409c 	ldr	r4, [sp, #156]	; 0x9c
4000e540:	eaffffb4 	b	4000e418 <_svfprintf_r+0x1454>
4000e544:	e59d3018 	ldr	r3, [sp, #24]
4000e548:	e3130001 	tst	r3, #1
4000e54c:	1afffeaa 	bne	4000dffc <_svfprintf_r+0x1038>
4000e550:	e3a03001 	mov	r3, #1
4000e554:	e59d5098 	ldr	r5, [sp, #152]	; 0x98
4000e558:	e59d2040 	ldr	r2, [sp, #64]	; 0x40
4000e55c:	e0855003 	add	r5, r5, r3
4000e560:	e0844003 	add	r4, r4, r3
4000e564:	e3550007 	cmp	r5, #7
4000e568:	e58d409c 	str	r4, [sp, #156]	; 0x9c
4000e56c:	e58a2000 	str	r2, [sl]
4000e570:	e58d5098 	str	r5, [sp, #152]	; 0x98
4000e574:	e58a3004 	str	r3, [sl, #4]
4000e578:	dafffec6 	ble	4000e098 <_svfprintf_r+0x10d4>
4000e57c:	e28d2094 	add	r2, sp, #148	; 0x94
4000e580:	e59d1028 	ldr	r1, [sp, #40]	; 0x28
4000e584:	e59d002c 	ldr	r0, [sp, #44]	; 0x2c
4000e588:	eb001952 	bl	40014ad8 <__ssprint_r>
4000e58c:	e3500000 	cmp	r0, #0
4000e590:	1afffb50 	bne	4000d2d8 <_svfprintf_r+0x314>
4000e594:	e28da0c8 	add	sl, sp, #200	; 0xc8
4000e598:	e59d409c 	ldr	r4, [sp, #156]	; 0x9c
4000e59c:	e59d5098 	ldr	r5, [sp, #152]	; 0x98
4000e5a0:	eafffebd 	b	4000e09c <_svfprintf_r+0x10d8>
4000e5a4:	e28d2094 	add	r2, sp, #148	; 0x94
4000e5a8:	e59d1028 	ldr	r1, [sp, #40]	; 0x28
4000e5ac:	e59d002c 	ldr	r0, [sp, #44]	; 0x2c
4000e5b0:	eb001948 	bl	40014ad8 <__ssprint_r>
4000e5b4:	e3500000 	cmp	r0, #0
4000e5b8:	1afffb46 	bne	4000d2d8 <_svfprintf_r+0x314>
4000e5bc:	e28da0c8 	add	sl, sp, #200	; 0xc8
4000e5c0:	e59d409c 	ldr	r4, [sp, #156]	; 0x9c
4000e5c4:	e59d5098 	ldr	r5, [sp, #152]	; 0x98
4000e5c8:	eafffe97 	b	4000e02c <_svfprintf_r+0x1068>
4000e5cc:	e28d2094 	add	r2, sp, #148	; 0x94
4000e5d0:	e59d1028 	ldr	r1, [sp, #40]	; 0x28
4000e5d4:	e59d002c 	ldr	r0, [sp, #44]	; 0x2c
4000e5d8:	eb00193e 	bl	40014ad8 <__ssprint_r>
4000e5dc:	e3500000 	cmp	r0, #0
4000e5e0:	1afffb3c 	bne	4000d2d8 <_svfprintf_r+0x314>
4000e5e4:	e28da0c8 	add	sl, sp, #200	; 0xc8
4000e5e8:	e59d409c 	ldr	r4, [sp, #156]	; 0x9c
4000e5ec:	e59d5098 	ldr	r5, [sp, #152]	; 0x98
4000e5f0:	eafffe97 	b	4000e054 <_svfprintf_r+0x1090>
4000e5f4:	e28d30c8 	add	r3, sp, #200	; 0xc8
4000e5f8:	e58da018 	str	sl, [sp, #24]
4000e5fc:	e3a0400a 	mov	r4, #10
4000e600:	e1a0a009 	mov	sl, r9
4000e604:	e3a05000 	mov	r5, #0
4000e608:	e1a09003 	mov	r9, r3
4000e60c:	e1a00006 	mov	r0, r6
4000e610:	e1a01007 	mov	r1, r7
4000e614:	e1a02004 	mov	r2, r4
4000e618:	e1a03005 	mov	r3, r5
4000e61c:	ebffcfe4 	bl	400025b4 <__aeabi_uldivmod>
4000e620:	e2822030 	add	r2, r2, #48	; 0x30
4000e624:	e5692001 	strb	r2, [r9, #-1]!
4000e628:	e1a00006 	mov	r0, r6
4000e62c:	e1a01007 	mov	r1, r7
4000e630:	e1a03005 	mov	r3, r5
4000e634:	e1a02004 	mov	r2, r4
4000e638:	ebffcfdd 	bl	400025b4 <__aeabi_uldivmod>
4000e63c:	e1a06000 	mov	r6, r0
4000e640:	e1a07001 	mov	r7, r1
4000e644:	e1963007 	orrs	r3, r6, r7
4000e648:	1affffef 	bne	4000e60c <_svfprintf_r+0x1648>
4000e64c:	e1a03009 	mov	r3, r9
4000e650:	e28d20c8 	add	r2, sp, #200	; 0xc8
4000e654:	e58d9040 	str	r9, [sp, #64]	; 0x40
4000e658:	e0425003 	sub	r5, r2, r3
4000e65c:	e1a0900a 	mov	r9, sl
4000e660:	e59da018 	ldr	sl, [sp, #24]
4000e664:	e58db018 	str	fp, [sp, #24]
4000e668:	eafffb48 	b	4000d390 <_svfprintf_r+0x3cc>
4000e66c:	e59d1038 	ldr	r1, [sp, #56]	; 0x38
4000e670:	e5916000 	ldr	r6, [r1]
4000e674:	e2811004 	add	r1, r1, #4
4000e678:	e1a07fc6 	asr	r7, r6, #31
4000e67c:	e1a02006 	mov	r2, r6
4000e680:	e1a03007 	mov	r3, r7
4000e684:	e58d1038 	str	r1, [sp, #56]	; 0x38
4000e688:	eafffc1a 	b	4000d6f8 <_svfprintf_r+0x734>
4000e68c:	e59dc050 	ldr	ip, [sp, #80]	; 0x50
4000e690:	e1a0200c 	mov	r2, ip
4000e694:	e1a0000c 	mov	r0, ip
4000e698:	e59dc054 	ldr	ip, [sp, #84]	; 0x54
4000e69c:	e1a0300c 	mov	r3, ip
4000e6a0:	e1a0100c 	mov	r1, ip
4000e6a4:	ebffcf9d 	bl	40002520 <__aeabi_dcmpun>
4000e6a8:	e3500000 	cmp	r0, #0
4000e6ac:	1a000214 	bne	4000ef04 <_svfprintf_r+0x1f40>
4000e6b0:	e59d3024 	ldr	r3, [sp, #36]	; 0x24
4000e6b4:	e3730001 	cmn	r3, #1
4000e6b8:	e59d3044 	ldr	r3, [sp, #68]	; 0x44
4000e6bc:	e3c35020 	bic	r5, r3, #32
4000e6c0:	03a03006 	moveq	r3, #6
4000e6c4:	058d3024 	streq	r3, [sp, #36]	; 0x24
4000e6c8:	0a000023 	beq	4000e75c <_svfprintf_r+0x1798>
4000e6cc:	e59d3024 	ldr	r3, [sp, #36]	; 0x24
4000e6d0:	e3550047 	cmp	r5, #71	; 0x47
4000e6d4:	03530000 	cmpeq	r3, #0
4000e6d8:	1a00001f 	bne	4000e75c <_svfprintf_r+0x1798>
4000e6dc:	e59d3054 	ldr	r3, [sp, #84]	; 0x54
4000e6e0:	e2536000 	subs	r6, r3, #0
4000e6e4:	e38b3c01 	orr	r3, fp, #256	; 0x100
4000e6e8:	e58d3018 	str	r3, [sp, #24]
4000e6ec:	ba00012b 	blt	4000eba0 <_svfprintf_r+0x1bdc>
4000e6f0:	e3a03001 	mov	r3, #1
4000e6f4:	e3a05047 	mov	r5, #71	; 0x47
4000e6f8:	e58d0030 	str	r0, [sp, #48]	; 0x30
4000e6fc:	e59d7050 	ldr	r7, [sp, #80]	; 0x50
4000e700:	e58d3024 	str	r3, [sp, #36]	; 0x24
4000e704:	e3a00002 	mov	r0, #2
4000e708:	e59dc024 	ldr	ip, [sp, #36]	; 0x24
4000e70c:	e28d108c 	add	r1, sp, #140	; 0x8c
4000e710:	e88d1001 	stm	sp, {r0, ip}
4000e714:	e58d1010 	str	r1, [sp, #16]
4000e718:	e28d0080 	add	r0, sp, #128	; 0x80
4000e71c:	e28d107c 	add	r1, sp, #124	; 0x7c
4000e720:	e58d000c 	str	r0, [sp, #12]
4000e724:	e1a02007 	mov	r2, r7
4000e728:	e1a03006 	mov	r3, r6
4000e72c:	e58d1008 	str	r1, [sp, #8]
4000e730:	e59d002c 	ldr	r0, [sp, #44]	; 0x2c
4000e734:	eb000c79 	bl	40011920 <_dtoa_r>
4000e738:	e3550047 	cmp	r5, #71	; 0x47
4000e73c:	e58d0040 	str	r0, [sp, #64]	; 0x40
4000e740:	1a000221 	bne	4000efcc <_svfprintf_r+0x2008>
4000e744:	e31b0001 	tst	fp, #1
4000e748:	0a0001d0 	beq	4000ee90 <_svfprintf_r+0x1ecc>
4000e74c:	e59d3040 	ldr	r3, [sp, #64]	; 0x40
4000e750:	e59d2024 	ldr	r2, [sp, #36]	; 0x24
4000e754:	e0834002 	add	r4, r3, r2
4000e758:	ea00002e 	b	4000e818 <_svfprintf_r+0x1854>
4000e75c:	e59d3054 	ldr	r3, [sp, #84]	; 0x54
4000e760:	e2536000 	subs	r6, r3, #0
4000e764:	e38b3c01 	orr	r3, fp, #256	; 0x100
4000e768:	e58d3018 	str	r3, [sp, #24]
4000e76c:	ba00010e 	blt	4000ebac <_svfprintf_r+0x1be8>
4000e770:	e3a03000 	mov	r3, #0
4000e774:	e59d7050 	ldr	r7, [sp, #80]	; 0x50
4000e778:	e58d3030 	str	r3, [sp, #48]	; 0x30
4000e77c:	e3550046 	cmp	r5, #70	; 0x46
4000e780:	1a000137 	bne	4000ec64 <_svfprintf_r+0x1ca0>
4000e784:	e3a0e003 	mov	lr, #3
4000e788:	e59d4024 	ldr	r4, [sp, #36]	; 0x24
4000e78c:	e28dc08c 	add	ip, sp, #140	; 0x8c
4000e790:	e28d107c 	add	r1, sp, #124	; 0x7c
4000e794:	e28d0080 	add	r0, sp, #128	; 0x80
4000e798:	e1a02007 	mov	r2, r7
4000e79c:	e1a03006 	mov	r3, r6
4000e7a0:	e58d4004 	str	r4, [sp, #4]
4000e7a4:	e58de000 	str	lr, [sp]
4000e7a8:	e58dc010 	str	ip, [sp, #16]
4000e7ac:	e58d000c 	str	r0, [sp, #12]
4000e7b0:	e58d1008 	str	r1, [sp, #8]
4000e7b4:	e59d002c 	ldr	r0, [sp, #44]	; 0x2c
4000e7b8:	eb000c58 	bl	40011920 <_dtoa_r>
4000e7bc:	e1a0c000 	mov	ip, r0
4000e7c0:	e5dc4000 	ldrb	r4, [ip]
4000e7c4:	e244c030 	sub	ip, r4, #48	; 0x30
4000e7c8:	e27c4000 	rsbs	r4, ip, #0
4000e7cc:	e58d0040 	str	r0, [sp, #64]	; 0x40
4000e7d0:	e59d305c 	ldr	r3, [sp, #92]	; 0x5c
4000e7d4:	e59d2058 	ldr	r2, [sp, #88]	; 0x58
4000e7d8:	e1a00007 	mov	r0, r7
4000e7dc:	e1a01006 	mov	r1, r6
4000e7e0:	e0a4400c 	adc	r4, r4, ip
4000e7e4:	ebffcf2f 	bl	400024a8 <__aeabi_dcmpeq>
4000e7e8:	e3500000 	cmp	r0, #0
4000e7ec:	e3a03001 	mov	r3, #1
4000e7f0:	13a03000 	movne	r3, #0
4000e7f4:	e1140003 	tst	r4, r3
4000e7f8:	0a0001a2 	beq	4000ee88 <_svfprintf_r+0x1ec4>
4000e7fc:	e59d3024 	ldr	r3, [sp, #36]	; 0x24
4000e800:	e2633001 	rsb	r3, r3, #1
4000e804:	e58d307c 	str	r3, [sp, #124]	; 0x7c
4000e808:	e59d2024 	ldr	r2, [sp, #36]	; 0x24
4000e80c:	e0833002 	add	r3, r3, r2
4000e810:	e59d2040 	ldr	r2, [sp, #64]	; 0x40
4000e814:	e0824003 	add	r4, r2, r3
4000e818:	e59d305c 	ldr	r3, [sp, #92]	; 0x5c
4000e81c:	e59d2058 	ldr	r2, [sp, #88]	; 0x58
4000e820:	e1a00007 	mov	r0, r7
4000e824:	e1a01006 	mov	r1, r6
4000e828:	ebffcf1e 	bl	400024a8 <__aeabi_dcmpeq>
4000e82c:	e3500000 	cmp	r0, #0
4000e830:	11a03004 	movne	r3, r4
4000e834:	1a000009 	bne	4000e860 <_svfprintf_r+0x189c>
4000e838:	e59d308c 	ldr	r3, [sp, #140]	; 0x8c
4000e83c:	e1540003 	cmp	r4, r3
4000e840:	9a000006 	bls	4000e860 <_svfprintf_r+0x189c>
4000e844:	e3a01030 	mov	r1, #48	; 0x30
4000e848:	e2832001 	add	r2, r3, #1
4000e84c:	e58d208c 	str	r2, [sp, #140]	; 0x8c
4000e850:	e5c31000 	strb	r1, [r3]
4000e854:	e59d308c 	ldr	r3, [sp, #140]	; 0x8c
4000e858:	e1540003 	cmp	r4, r3
4000e85c:	8afffff9 	bhi	4000e848 <_svfprintf_r+0x1884>
4000e860:	e59d2040 	ldr	r2, [sp, #64]	; 0x40
4000e864:	e3550047 	cmp	r5, #71	; 0x47
4000e868:	e0433002 	sub	r3, r3, r2
4000e86c:	e58d304c 	str	r3, [sp, #76]	; 0x4c
4000e870:	1a000136 	bne	4000ed50 <_svfprintf_r+0x1d8c>
4000e874:	e59d307c 	ldr	r3, [sp, #124]	; 0x7c
4000e878:	e3730003 	cmn	r3, #3
4000e87c:	e1a02003 	mov	r2, r3
4000e880:	e58d3048 	str	r3, [sp, #72]	; 0x48
4000e884:	a3a03000 	movge	r3, #0
4000e888:	b3a03001 	movlt	r3, #1
4000e88c:	e59d1024 	ldr	r1, [sp, #36]	; 0x24
4000e890:	e1520001 	cmp	r2, r1
4000e894:	c3833001 	orrgt	r3, r3, #1
4000e898:	e3530000 	cmp	r3, #0
4000e89c:	0a000105 	beq	4000ecb8 <_svfprintf_r+0x1cf4>
4000e8a0:	e59d3044 	ldr	r3, [sp, #68]	; 0x44
4000e8a4:	e2433002 	sub	r3, r3, #2
4000e8a8:	e58d3044 	str	r3, [sp, #68]	; 0x44
4000e8ac:	e59d3048 	ldr	r3, [sp, #72]	; 0x48
4000e8b0:	e5dd2044 	ldrb	r2, [sp, #68]	; 0x44
4000e8b4:	e2433001 	sub	r3, r3, #1
4000e8b8:	e3530000 	cmp	r3, #0
4000e8bc:	e5cd2084 	strb	r2, [sp, #132]	; 0x84
4000e8c0:	b3a0202d 	movlt	r2, #45	; 0x2d
4000e8c4:	a3a0202b 	movge	r2, #43	; 0x2b
4000e8c8:	e58d307c 	str	r3, [sp, #124]	; 0x7c
4000e8cc:	b59d3048 	ldrlt	r3, [sp, #72]	; 0x48
4000e8d0:	b2633001 	rsblt	r3, r3, #1
4000e8d4:	e3530009 	cmp	r3, #9
4000e8d8:	c28dc093 	addgt	ip, sp, #147	; 0x93
4000e8dc:	e5cd2085 	strb	r2, [sp, #133]	; 0x85
4000e8e0:	c1a0000c 	movgt	r0, ip
4000e8e4:	ca000075 	bgt	4000eac0 <_svfprintf_r+0x1afc>
4000e8e8:	e3a02030 	mov	r2, #48	; 0x30
4000e8ec:	e0833002 	add	r3, r3, r2
4000e8f0:	e5cd2086 	strb	r2, [sp, #134]	; 0x86
4000e8f4:	e5cd3087 	strb	r3, [sp, #135]	; 0x87
4000e8f8:	e28d3088 	add	r3, sp, #136	; 0x88
4000e8fc:	e59d104c 	ldr	r1, [sp, #76]	; 0x4c
4000e900:	e28d2084 	add	r2, sp, #132	; 0x84
4000e904:	e0433002 	sub	r3, r3, r2
4000e908:	e3510001 	cmp	r1, #1
4000e90c:	e58d306c 	str	r3, [sp, #108]	; 0x6c
4000e910:	e0815003 	add	r5, r1, r3
4000e914:	da00018c 	ble	4000ef4c <_svfprintf_r+0x1f88>
4000e918:	e59d3060 	ldr	r3, [sp, #96]	; 0x60
4000e91c:	e0855003 	add	r5, r5, r3
4000e920:	e1c53fc5 	bic	r3, r5, r5, asr #31
4000e924:	e58d301c 	str	r3, [sp, #28]
4000e928:	e3a03000 	mov	r3, #0
4000e92c:	e58d3048 	str	r3, [sp, #72]	; 0x48
4000e930:	e59d3030 	ldr	r3, [sp, #48]	; 0x30
4000e934:	e3530000 	cmp	r3, #0
4000e938:	1a0000fb 	bne	4000ed2c <_svfprintf_r+0x1d68>
4000e93c:	e58d3024 	str	r3, [sp, #36]	; 0x24
4000e940:	e5dd3077 	ldrb	r3, [sp, #119]	; 0x77
4000e944:	e58d3030 	str	r3, [sp, #48]	; 0x30
4000e948:	eafffa96 	b	4000d3a8 <_svfprintf_r+0x3e4>
4000e94c:	e3c44007 	bic	r4, r4, #7
4000e950:	e5943000 	ldr	r3, [r4]
4000e954:	e58d3050 	str	r3, [sp, #80]	; 0x50
4000e958:	e5943004 	ldr	r3, [r4, #4]
4000e95c:	e58d3054 	str	r3, [sp, #84]	; 0x54
4000e960:	e2843008 	add	r3, r4, #8
4000e964:	e58d3038 	str	r3, [sp, #56]	; 0x38
4000e968:	eafffbd1 	b	4000d8b4 <_svfprintf_r+0x8f0>
4000e96c:	e59d2038 	ldr	r2, [sp, #56]	; 0x38
4000e970:	e5923000 	ldr	r3, [r2]
4000e974:	e2822004 	add	r2, r2, #4
4000e978:	e58d2038 	str	r2, [sp, #56]	; 0x38
4000e97c:	e59d2020 	ldr	r2, [sp, #32]
4000e980:	e5832000 	str	r2, [r3]
4000e984:	eafff9af 	b	4000d048 <_svfprintf_r+0x84>
4000e988:	e59d3038 	ldr	r3, [sp, #56]	; 0x38
4000e98c:	e5936000 	ldr	r6, [r3]
4000e990:	eafffb53 	b	4000d6e4 <_svfprintf_r+0x720>
4000e994:	e5936000 	ldr	r6, [r3]
4000e998:	e2833004 	add	r3, r3, #4
4000e99c:	e58d3038 	str	r3, [sp, #56]	; 0x38
4000e9a0:	e3a07000 	mov	r7, #0
4000e9a4:	eafffb26 	b	4000d644 <_svfprintf_r+0x680>
4000e9a8:	e28d2094 	add	r2, sp, #148	; 0x94
4000e9ac:	e59d1028 	ldr	r1, [sp, #40]	; 0x28
4000e9b0:	e59d002c 	ldr	r0, [sp, #44]	; 0x2c
4000e9b4:	eb001847 	bl	40014ad8 <__ssprint_r>
4000e9b8:	e3500000 	cmp	r0, #0
4000e9bc:	1afffa45 	bne	4000d2d8 <_svfprintf_r+0x314>
4000e9c0:	e28da0c8 	add	sl, sp, #200	; 0xc8
4000e9c4:	eafffcf4 	b	4000dd9c <_svfprintf_r+0xdd8>
4000e9c8:	e28d30c8 	add	r3, sp, #200	; 0xc8
4000e9cc:	e58db018 	str	fp, [sp, #24]
4000e9d0:	e0435002 	sub	r5, r3, r2
4000e9d4:	e58d2040 	str	r2, [sp, #64]	; 0x40
4000e9d8:	eafffa6c 	b	4000d390 <_svfprintf_r+0x3cc>
4000e9dc:	e3a02001 	mov	r2, #1
4000e9e0:	e59d3098 	ldr	r3, [sp, #152]	; 0x98
4000e9e4:	e51f1a10 	ldr	r1, [pc, #-2576]	; 4000dfdc <_svfprintf_r+0x1018>
4000e9e8:	e0833002 	add	r3, r3, r2
4000e9ec:	e0844002 	add	r4, r4, r2
4000e9f0:	e3530007 	cmp	r3, #7
4000e9f4:	e58a1000 	str	r1, [sl]
4000e9f8:	e58a2004 	str	r2, [sl, #4]
4000e9fc:	e58d409c 	str	r4, [sp, #156]	; 0x9c
4000ea00:	e58d3098 	str	r3, [sp, #152]	; 0x98
4000ea04:	d28aa008 	addle	sl, sl, #8
4000ea08:	ca00005a 	bgt	4000eb78 <_svfprintf_r+0x1bb4>
4000ea0c:	e59d304c 	ldr	r3, [sp, #76]	; 0x4c
4000ea10:	e1933005 	orrs	r3, r3, r5
4000ea14:	0a000053 	beq	4000eb68 <_svfprintf_r+0x1ba4>
4000ea18:	e59d3098 	ldr	r3, [sp, #152]	; 0x98
4000ea1c:	e59d2060 	ldr	r2, [sp, #96]	; 0x60
4000ea20:	e2833001 	add	r3, r3, #1
4000ea24:	e59d1068 	ldr	r1, [sp, #104]	; 0x68
4000ea28:	e0824004 	add	r4, r2, r4
4000ea2c:	e3530007 	cmp	r3, #7
4000ea30:	e88a0006 	stm	sl, {r1, r2}
4000ea34:	e58d409c 	str	r4, [sp, #156]	; 0x9c
4000ea38:	e58d3098 	str	r3, [sp, #152]	; 0x98
4000ea3c:	d28aa008 	addle	sl, sl, #8
4000ea40:	ca00005f 	bgt	4000ebc4 <_svfprintf_r+0x1c00>
4000ea44:	e3550000 	cmp	r5, #0
4000ea48:	ba000068 	blt	4000ebf0 <_svfprintf_r+0x1c2c>
4000ea4c:	e2833001 	add	r3, r3, #1
4000ea50:	e59d204c 	ldr	r2, [sp, #76]	; 0x4c
4000ea54:	e3530007 	cmp	r3, #7
4000ea58:	e58d3098 	str	r3, [sp, #152]	; 0x98
4000ea5c:	e59d3040 	ldr	r3, [sp, #64]	; 0x40
4000ea60:	e0824004 	add	r4, r2, r4
4000ea64:	e58d409c 	str	r4, [sp, #156]	; 0x9c
4000ea68:	e58a3000 	str	r3, [sl]
4000ea6c:	e58a2004 	str	r2, [sl, #4]
4000ea70:	dafffc70 	ble	4000dc38 <_svfprintf_r+0xc74>
4000ea74:	eafffdca 	b	4000e1a4 <_svfprintf_r+0x11e0>
4000ea78:	e59d3038 	ldr	r3, [sp, #56]	; 0x38
4000ea7c:	e59d2020 	ldr	r2, [sp, #32]
4000ea80:	e5931000 	ldr	r1, [r3]
4000ea84:	e2833004 	add	r3, r3, #4
4000ea88:	e58d3038 	str	r3, [sp, #56]	; 0x38
4000ea8c:	e1a03fc2 	asr	r3, r2, #31
4000ea90:	e881000c 	stm	r1, {r2, r3}
4000ea94:	eafff96b 	b	4000d048 <_svfprintf_r+0x84>
4000ea98:	e28d2094 	add	r2, sp, #148	; 0x94
4000ea9c:	e59d1028 	ldr	r1, [sp, #40]	; 0x28
4000eaa0:	e59d002c 	ldr	r0, [sp, #44]	; 0x2c
4000eaa4:	eb00180b 	bl	40014ad8 <__ssprint_r>
4000eaa8:	e3500000 	cmp	r0, #0
4000eaac:	1afffa09 	bne	4000d2d8 <_svfprintf_r+0x314>
4000eab0:	e28da0c8 	add	sl, sp, #200	; 0xc8
4000eab4:	e59d409c 	ldr	r4, [sp, #156]	; 0x9c
4000eab8:	eafffcca 	b	4000dde8 <_svfprintf_r+0xe24>
4000eabc:	e1a00002 	mov	r0, r2
4000eac0:	e51f2ae8 	ldr	r2, [pc, #-2792]	; 4000dfe0 <_svfprintf_r+0x101c>
4000eac4:	e0c21293 	smull	r1, r2, r3, r2
4000eac8:	e1a01fc3 	asr	r1, r3, #31
4000eacc:	e0611142 	rsb	r1, r1, r2, asr #2
4000ead0:	e0812101 	add	r2, r1, r1, lsl #2
4000ead4:	e0432082 	sub	r2, r3, r2, lsl #1
4000ead8:	e2822030 	add	r2, r2, #48	; 0x30
4000eadc:	e3510009 	cmp	r1, #9
4000eae0:	e5402001 	strb	r2, [r0, #-1]
4000eae4:	e1a03001 	mov	r3, r1
4000eae8:	e2402001 	sub	r2, r0, #1
4000eaec:	cafffff2 	bgt	4000eabc <_svfprintf_r+0x1af8>
4000eaf0:	e2813030 	add	r3, r1, #48	; 0x30
4000eaf4:	e2400002 	sub	r0, r0, #2
4000eaf8:	e20310ff 	and	r1, r3, #255	; 0xff
4000eafc:	e15c0000 	cmp	ip, r0
4000eb00:	e5421001 	strb	r1, [r2, #-1]
4000eb04:	9a000138 	bls	4000efec <_svfprintf_r+0x2028>
4000eb08:	e28d0086 	add	r0, sp, #134	; 0x86
4000eb0c:	e1a03002 	mov	r3, r2
4000eb10:	ea000000 	b	4000eb18 <_svfprintf_r+0x1b54>
4000eb14:	e4d31001 	ldrb	r1, [r3], #1
4000eb18:	e153000c 	cmp	r3, ip
4000eb1c:	e4c01001 	strb	r1, [r0], #1
4000eb20:	1afffffb 	bne	4000eb14 <_svfprintf_r+0x1b50>
4000eb24:	e2833001 	add	r3, r3, #1
4000eb28:	e0433002 	sub	r3, r3, r2
4000eb2c:	e28d2086 	add	r2, sp, #134	; 0x86
4000eb30:	e0823003 	add	r3, r2, r3
4000eb34:	eaffff70 	b	4000e8fc <_svfprintf_r+0x1938>
4000eb38:	e3a01040 	mov	r1, #64	; 0x40
4000eb3c:	e59d002c 	ldr	r0, [sp, #44]	; 0x2c
4000eb40:	ebfff278 	bl	4000b528 <_malloc_r>
4000eb44:	e59d3028 	ldr	r3, [sp, #40]	; 0x28
4000eb48:	e3500000 	cmp	r0, #0
4000eb4c:	e5830000 	str	r0, [r3]
4000eb50:	e5830010 	str	r0, [r3, #16]
4000eb54:	0a00011e 	beq	4000efd4 <_svfprintf_r+0x2010>
4000eb58:	e3a03040 	mov	r3, #64	; 0x40
4000eb5c:	e59d2028 	ldr	r2, [sp, #40]	; 0x28
4000eb60:	e5823014 	str	r3, [r2, #20]
4000eb64:	eafff929 	b	4000d010 <_svfprintf_r+0x4c>
4000eb68:	e59d3018 	ldr	r3, [sp, #24]
4000eb6c:	e3130001 	tst	r3, #1
4000eb70:	0afffc31 	beq	4000dc3c <_svfprintf_r+0xc78>
4000eb74:	eaffffa7 	b	4000ea18 <_svfprintf_r+0x1a54>
4000eb78:	e28d2094 	add	r2, sp, #148	; 0x94
4000eb7c:	e59d1028 	ldr	r1, [sp, #40]	; 0x28
4000eb80:	e59d002c 	ldr	r0, [sp, #44]	; 0x2c
4000eb84:	eb0017d3 	bl	40014ad8 <__ssprint_r>
4000eb88:	e3500000 	cmp	r0, #0
4000eb8c:	1afff9d1 	bne	4000d2d8 <_svfprintf_r+0x314>
4000eb90:	e28da0c8 	add	sl, sp, #200	; 0xc8
4000eb94:	e59d507c 	ldr	r5, [sp, #124]	; 0x7c
4000eb98:	e59d409c 	ldr	r4, [sp, #156]	; 0x9c
4000eb9c:	eaffff9a 	b	4000ea0c <_svfprintf_r+0x1a48>
4000eba0:	e3a03001 	mov	r3, #1
4000eba4:	e3a05047 	mov	r5, #71	; 0x47
4000eba8:	e58d3024 	str	r3, [sp, #36]	; 0x24
4000ebac:	e59d3054 	ldr	r3, [sp, #84]	; 0x54
4000ebb0:	e2836102 	add	r6, r3, #-2147483648	; 0x80000000
4000ebb4:	e3a0302d 	mov	r3, #45	; 0x2d
4000ebb8:	e59d7050 	ldr	r7, [sp, #80]	; 0x50
4000ebbc:	e58d3030 	str	r3, [sp, #48]	; 0x30
4000ebc0:	eafffeed 	b	4000e77c <_svfprintf_r+0x17b8>
4000ebc4:	e28d2094 	add	r2, sp, #148	; 0x94
4000ebc8:	e59d1028 	ldr	r1, [sp, #40]	; 0x28
4000ebcc:	e59d002c 	ldr	r0, [sp, #44]	; 0x2c
4000ebd0:	eb0017c0 	bl	40014ad8 <__ssprint_r>
4000ebd4:	e3500000 	cmp	r0, #0
4000ebd8:	1afff9be 	bne	4000d2d8 <_svfprintf_r+0x314>
4000ebdc:	e28d3098 	add	r3, sp, #152	; 0x98
4000ebe0:	e28da0c8 	add	sl, sp, #200	; 0xc8
4000ebe4:	e59d507c 	ldr	r5, [sp, #124]	; 0x7c
4000ebe8:	e8930018 	ldm	r3, {r3, r4}
4000ebec:	eaffff94 	b	4000ea44 <_svfprintf_r+0x1a80>
4000ebf0:	e3750010 	cmn	r5, #16
4000ebf4:	e2655000 	rsb	r5, r5, #0
4000ebf8:	aa0000a6 	bge	4000ee98 <_svfprintf_r+0x1ed4>
4000ebfc:	e3a06010 	mov	r6, #16
4000ec00:	e59d702c 	ldr	r7, [sp, #44]	; 0x2c
4000ec04:	e59db028 	ldr	fp, [sp, #40]	; 0x28
4000ec08:	ea000002 	b	4000ec18 <_svfprintf_r+0x1c54>
4000ec0c:	e2455010 	sub	r5, r5, #16
4000ec10:	e3550010 	cmp	r5, #16
4000ec14:	da00009f 	ble	4000ee98 <_svfprintf_r+0x1ed4>
4000ec18:	e2833001 	add	r3, r3, #1
4000ec1c:	e3530007 	cmp	r3, #7
4000ec20:	e2844010 	add	r4, r4, #16
4000ec24:	e58a8000 	str	r8, [sl]
4000ec28:	e58a6004 	str	r6, [sl, #4]
4000ec2c:	e58d3098 	str	r3, [sp, #152]	; 0x98
4000ec30:	e58d409c 	str	r4, [sp, #156]	; 0x9c
4000ec34:	d28aa008 	addle	sl, sl, #8
4000ec38:	dafffff3 	ble	4000ec0c <_svfprintf_r+0x1c48>
4000ec3c:	e28d2094 	add	r2, sp, #148	; 0x94
4000ec40:	e1a0100b 	mov	r1, fp
4000ec44:	e1a00007 	mov	r0, r7
4000ec48:	eb0017a2 	bl	40014ad8 <__ssprint_r>
4000ec4c:	e3500000 	cmp	r0, #0
4000ec50:	1afff9a0 	bne	4000d2d8 <_svfprintf_r+0x314>
4000ec54:	e28d3098 	add	r3, sp, #152	; 0x98
4000ec58:	e28da0c8 	add	sl, sp, #200	; 0xc8
4000ec5c:	e8930018 	ldm	r3, {r3, r4}
4000ec60:	eaffffe9 	b	4000ec0c <_svfprintf_r+0x1c48>
4000ec64:	e3550045 	cmp	r5, #69	; 0x45
4000ec68:	1afffea5 	bne	4000e704 <_svfprintf_r+0x1740>
4000ec6c:	e3a00002 	mov	r0, #2
4000ec70:	e59d1024 	ldr	r1, [sp, #36]	; 0x24
4000ec74:	e2814001 	add	r4, r1, #1
4000ec78:	e28d108c 	add	r1, sp, #140	; 0x8c
4000ec7c:	e58d0000 	str	r0, [sp]
4000ec80:	e58d1010 	str	r1, [sp, #16]
4000ec84:	e28d0080 	add	r0, sp, #128	; 0x80
4000ec88:	e28d107c 	add	r1, sp, #124	; 0x7c
4000ec8c:	e58d000c 	str	r0, [sp, #12]
4000ec90:	e1a02007 	mov	r2, r7
4000ec94:	e1a03006 	mov	r3, r6
4000ec98:	e58d4004 	str	r4, [sp, #4]
4000ec9c:	e58d1008 	str	r1, [sp, #8]
4000eca0:	e59d002c 	ldr	r0, [sp, #44]	; 0x2c
4000eca4:	eb000b1d 	bl	40011920 <_dtoa_r>
4000eca8:	e58d0040 	str	r0, [sp, #64]	; 0x40
4000ecac:	e59d3040 	ldr	r3, [sp, #64]	; 0x40
4000ecb0:	e0834004 	add	r4, r3, r4
4000ecb4:	eafffed7 	b	4000e818 <_svfprintf_r+0x1854>
4000ecb8:	e59d204c 	ldr	r2, [sp, #76]	; 0x4c
4000ecbc:	e59d3048 	ldr	r3, [sp, #72]	; 0x48
4000ecc0:	e1520003 	cmp	r2, r3
4000ecc4:	ca000058 	bgt	4000ee2c <_svfprintf_r+0x1e68>
4000ecc8:	e31b0001 	tst	fp, #1
4000eccc:	159d3048 	ldrne	r3, [sp, #72]	; 0x48
4000ecd0:	159d2060 	ldrne	r2, [sp, #96]	; 0x60
4000ecd4:	10835002 	addne	r5, r3, r2
4000ecd8:	11c53fc5 	bicne	r3, r5, r5, asr #31
4000ecdc:	01c32fc3 	biceq	r2, r3, r3, asr #31
4000ece0:	01a05003 	moveq	r5, r3
4000ece4:	158d301c 	strne	r3, [sp, #28]
4000ece8:	e3a03067 	mov	r3, #103	; 0x67
4000ecec:	058d201c 	streq	r2, [sp, #28]
4000ecf0:	e58d3044 	str	r3, [sp, #68]	; 0x44
4000ecf4:	eaffff0d 	b	4000e930 <_svfprintf_r+0x196c>
4000ecf8:	e59d0040 	ldr	r0, [sp, #64]	; 0x40
4000ecfc:	e58d5024 	str	r5, [sp, #36]	; 0x24
4000ed00:	ebfff853 	bl	4000ce54 <strlen>
4000ed04:	e1a06005 	mov	r6, r5
4000ed08:	e1c03fc0 	bic	r3, r0, r0, asr #31
4000ed0c:	e58d301c 	str	r3, [sp, #28]
4000ed10:	e5dd3077 	ldrb	r3, [sp, #119]	; 0x77
4000ed14:	e1a05000 	mov	r5, r0
4000ed18:	e58d4038 	str	r4, [sp, #56]	; 0x38
4000ed1c:	e58db018 	str	fp, [sp, #24]
4000ed20:	e58d6048 	str	r6, [sp, #72]	; 0x48
4000ed24:	e58d3030 	str	r3, [sp, #48]	; 0x30
4000ed28:	eafff99e 	b	4000d3a8 <_svfprintf_r+0x3e4>
4000ed2c:	e3a0b02d 	mov	fp, #45	; 0x2d
4000ed30:	e3a03000 	mov	r3, #0
4000ed34:	e5cdb077 	strb	fp, [sp, #119]	; 0x77
4000ed38:	e58d3024 	str	r3, [sp, #36]	; 0x24
4000ed3c:	e58db030 	str	fp, [sp, #48]	; 0x30
4000ed40:	eafff99b 	b	4000d3b4 <_svfprintf_r+0x3f0>
4000ed44:	e28d2098 	add	r2, sp, #152	; 0x98
4000ed48:	e8920014 	ldm	r2, {r2, r4}
4000ed4c:	eafff9d1 	b	4000d498 <_svfprintf_r+0x4d4>
4000ed50:	e59d3044 	ldr	r3, [sp, #68]	; 0x44
4000ed54:	e3530065 	cmp	r3, #101	; 0x65
4000ed58:	da000098 	ble	4000efc0 <_svfprintf_r+0x1ffc>
4000ed5c:	e59d3044 	ldr	r3, [sp, #68]	; 0x44
4000ed60:	e3530066 	cmp	r3, #102	; 0x66
4000ed64:	e59d307c 	ldr	r3, [sp, #124]	; 0x7c
4000ed68:	e58d3048 	str	r3, [sp, #72]	; 0x48
4000ed6c:	1affffd1 	bne	4000ecb8 <_svfprintf_r+0x1cf4>
4000ed70:	e3530000 	cmp	r3, #0
4000ed74:	da000078 	ble	4000ef5c <_svfprintf_r+0x1f98>
4000ed78:	e59d2024 	ldr	r2, [sp, #36]	; 0x24
4000ed7c:	e3520000 	cmp	r2, #0
4000ed80:	1a000057 	bne	4000eee4 <_svfprintf_r+0x1f20>
4000ed84:	e31b0001 	tst	fp, #1
4000ed88:	1a000055 	bne	4000eee4 <_svfprintf_r+0x1f20>
4000ed8c:	e58d301c 	str	r3, [sp, #28]
4000ed90:	e1a05003 	mov	r5, r3
4000ed94:	eafffee5 	b	4000e930 <_svfprintf_r+0x196c>
4000ed98:	e28d2094 	add	r2, sp, #148	; 0x94
4000ed9c:	e59d1028 	ldr	r1, [sp, #40]	; 0x28
4000eda0:	e59d002c 	ldr	r0, [sp, #44]	; 0x2c
4000eda4:	eb00174b 	bl	40014ad8 <__ssprint_r>
4000eda8:	e3500000 	cmp	r0, #0
4000edac:	1afff949 	bne	4000d2d8 <_svfprintf_r+0x314>
4000edb0:	e28da0c8 	add	sl, sp, #200	; 0xc8
4000edb4:	e59d409c 	ldr	r4, [sp, #156]	; 0x9c
4000edb8:	eafffd16 	b	4000e218 <_svfprintf_r+0x1254>
4000edbc:	e28d2094 	add	r2, sp, #148	; 0x94
4000edc0:	e59d1028 	ldr	r1, [sp, #40]	; 0x28
4000edc4:	e59d002c 	ldr	r0, [sp, #44]	; 0x2c
4000edc8:	eb001742 	bl	40014ad8 <__ssprint_r>
4000edcc:	e3500000 	cmp	r0, #0
4000edd0:	1afff940 	bne	4000d2d8 <_svfprintf_r+0x314>
4000edd4:	e59d207c 	ldr	r2, [sp, #124]	; 0x7c
4000edd8:	e59d304c 	ldr	r3, [sp, #76]	; 0x4c
4000eddc:	e28da0c8 	add	sl, sp, #200	; 0xc8
4000ede0:	e59d409c 	ldr	r4, [sp, #156]	; 0x9c
4000ede4:	e0432002 	sub	r2, r3, r2
4000ede8:	eafffd9e 	b	4000e468 <_svfprintf_r+0x14a4>
4000edec:	e3530006 	cmp	r3, #6
4000edf0:	23a03006 	movcs	r3, #6
4000edf4:	e1a05003 	mov	r5, r3
4000edf8:	e58d301c 	str	r3, [sp, #28]
4000edfc:	e51f3e20 	ldr	r3, [pc, #-3616]	; 4000dfe4 <_svfprintf_r+0x1020>
4000ee00:	e58d2024 	str	r2, [sp, #36]	; 0x24
4000ee04:	e58d4038 	str	r4, [sp, #56]	; 0x38
4000ee08:	e58db018 	str	fp, [sp, #24]
4000ee0c:	e58d2030 	str	r2, [sp, #48]	; 0x30
4000ee10:	e58d2048 	str	r2, [sp, #72]	; 0x48
4000ee14:	e58d3040 	str	r3, [sp, #64]	; 0x40
4000ee18:	eafff962 	b	4000d3a8 <_svfprintf_r+0x3e4>
4000ee1c:	e3a0302d 	mov	r3, #45	; 0x2d
4000ee20:	e58d3030 	str	r3, [sp, #48]	; 0x30
4000ee24:	e5cd3077 	strb	r3, [sp, #119]	; 0x77
4000ee28:	eafffab9 	b	4000d914 <_svfprintf_r+0x950>
4000ee2c:	e59d3048 	ldr	r3, [sp, #72]	; 0x48
4000ee30:	e59d2060 	ldr	r2, [sp, #96]	; 0x60
4000ee34:	e3530000 	cmp	r3, #0
4000ee38:	e59d304c 	ldr	r3, [sp, #76]	; 0x4c
4000ee3c:	e0835002 	add	r5, r3, r2
4000ee40:	d59d3048 	ldrle	r3, [sp, #72]	; 0x48
4000ee44:	d2633001 	rsble	r3, r3, #1
4000ee48:	d0855003 	addle	r5, r5, r3
4000ee4c:	e1c53fc5 	bic	r3, r5, r5, asr #31
4000ee50:	e58d301c 	str	r3, [sp, #28]
4000ee54:	e3a03067 	mov	r3, #103	; 0x67
4000ee58:	e58d3044 	str	r3, [sp, #68]	; 0x44
4000ee5c:	eafffeb3 	b	4000e930 <_svfprintf_r+0x196c>
4000ee60:	e59d3024 	ldr	r3, [sp, #36]	; 0x24
4000ee64:	e58d301c 	str	r3, [sp, #28]
4000ee68:	e1a05003 	mov	r5, r3
4000ee6c:	e5dd3077 	ldrb	r3, [sp, #119]	; 0x77
4000ee70:	e58d0024 	str	r0, [sp, #36]	; 0x24
4000ee74:	e58d4038 	str	r4, [sp, #56]	; 0x38
4000ee78:	e58db018 	str	fp, [sp, #24]
4000ee7c:	e58d0048 	str	r0, [sp, #72]	; 0x48
4000ee80:	e58d3030 	str	r3, [sp, #48]	; 0x30
4000ee84:	eafff947 	b	4000d3a8 <_svfprintf_r+0x3e4>
4000ee88:	e59d307c 	ldr	r3, [sp, #124]	; 0x7c
4000ee8c:	eafffe5d 	b	4000e808 <_svfprintf_r+0x1844>
4000ee90:	e59d308c 	ldr	r3, [sp, #140]	; 0x8c
4000ee94:	eafffe71 	b	4000e860 <_svfprintf_r+0x189c>
4000ee98:	e2833001 	add	r3, r3, #1
4000ee9c:	e0844005 	add	r4, r4, r5
4000eea0:	e3530007 	cmp	r3, #7
4000eea4:	e58a8000 	str	r8, [sl]
4000eea8:	e58a5004 	str	r5, [sl, #4]
4000eeac:	e58d3098 	str	r3, [sp, #152]	; 0x98
4000eeb0:	e58d409c 	str	r4, [sp, #156]	; 0x9c
4000eeb4:	e28aa008 	add	sl, sl, #8
4000eeb8:	dafffee3 	ble	4000ea4c <_svfprintf_r+0x1a88>
4000eebc:	e28d2094 	add	r2, sp, #148	; 0x94
4000eec0:	e59d1028 	ldr	r1, [sp, #40]	; 0x28
4000eec4:	e59d002c 	ldr	r0, [sp, #44]	; 0x2c
4000eec8:	eb001702 	bl	40014ad8 <__ssprint_r>
4000eecc:	e3500000 	cmp	r0, #0
4000eed0:	1afff900 	bne	4000d2d8 <_svfprintf_r+0x314>
4000eed4:	e28d3098 	add	r3, sp, #152	; 0x98
4000eed8:	e28da0c8 	add	sl, sp, #200	; 0xc8
4000eedc:	e8930018 	ldm	r3, {r3, r4}
4000eee0:	eafffed9 	b	4000ea4c <_svfprintf_r+0x1a88>
4000eee4:	e59d3048 	ldr	r3, [sp, #72]	; 0x48
4000eee8:	e59d2060 	ldr	r2, [sp, #96]	; 0x60
4000eeec:	e0835002 	add	r5, r3, r2
4000eef0:	e59d3024 	ldr	r3, [sp, #36]	; 0x24
4000eef4:	e0855003 	add	r5, r5, r3
4000eef8:	e1c53fc5 	bic	r3, r5, r5, asr #31
4000eefc:	e58d301c 	str	r3, [sp, #28]
4000ef00:	eafffe8a 	b	4000e930 <_svfprintf_r+0x196c>
4000ef04:	e3a03003 	mov	r3, #3
4000ef08:	e1a05003 	mov	r5, r3
4000ef0c:	e58d301c 	str	r3, [sp, #28]
4000ef10:	e3a03000 	mov	r3, #0
4000ef14:	e1a01003 	mov	r1, r3
4000ef18:	e58d1048 	str	r1, [sp, #72]	; 0x48
4000ef1c:	e59d1044 	ldr	r1, [sp, #68]	; 0x44
4000ef20:	e58d3024 	str	r3, [sp, #36]	; 0x24
4000ef24:	e51f3f44 	ldr	r3, [pc, #-3908]	; 4000dfe8 <_svfprintf_r+0x1024>
4000ef28:	e3510047 	cmp	r1, #71	; 0x47
4000ef2c:	e51f2f48 	ldr	r2, [pc, #-3912]	; 4000dfec <_svfprintf_r+0x1028>
4000ef30:	d1a02003 	movle	r2, r3
4000ef34:	e5dd3077 	ldrb	r3, [sp, #119]	; 0x77
4000ef38:	e3cb0080 	bic	r0, fp, #128	; 0x80
4000ef3c:	e58d0018 	str	r0, [sp, #24]
4000ef40:	e58d2040 	str	r2, [sp, #64]	; 0x40
4000ef44:	e58d3030 	str	r3, [sp, #48]	; 0x30
4000ef48:	eafff916 	b	4000d3a8 <_svfprintf_r+0x3e4>
4000ef4c:	e21b3001 	ands	r3, fp, #1
4000ef50:	e58d3048 	str	r3, [sp, #72]	; 0x48
4000ef54:	0affffe7 	beq	4000eef8 <_svfprintf_r+0x1f34>
4000ef58:	eafffe6e 	b	4000e918 <_svfprintf_r+0x1954>
4000ef5c:	e59d3024 	ldr	r3, [sp, #36]	; 0x24
4000ef60:	e3530000 	cmp	r3, #0
4000ef64:	1a000001 	bne	4000ef70 <_svfprintf_r+0x1fac>
4000ef68:	e31b0001 	tst	fp, #1
4000ef6c:	0a000006 	beq	4000ef8c <_svfprintf_r+0x1fc8>
4000ef70:	e59d3060 	ldr	r3, [sp, #96]	; 0x60
4000ef74:	e2835001 	add	r5, r3, #1
4000ef78:	e59d3024 	ldr	r3, [sp, #36]	; 0x24
4000ef7c:	e0855003 	add	r5, r5, r3
4000ef80:	e1c53fc5 	bic	r3, r5, r5, asr #31
4000ef84:	e58d301c 	str	r3, [sp, #28]
4000ef88:	eafffe68 	b	4000e930 <_svfprintf_r+0x196c>
4000ef8c:	e3a03001 	mov	r3, #1
4000ef90:	eaffff7d 	b	4000ed8c <_svfprintf_r+0x1dc8>
4000ef94:	e59d2038 	ldr	r2, [sp, #56]	; 0x38
4000ef98:	e5927000 	ldr	r7, [r2]
4000ef9c:	e1570006 	cmp	r7, r6
4000efa0:	b1a07006 	movlt	r7, r6
4000efa4:	e5d92001 	ldrb	r2, [r9, #1]
4000efa8:	e1a09001 	mov	r9, r1
4000efac:	e59d1038 	ldr	r1, [sp, #56]	; 0x38
4000efb0:	e2811004 	add	r1, r1, #4
4000efb4:	e58d7024 	str	r7, [sp, #36]	; 0x24
4000efb8:	e58d1038 	str	r1, [sp, #56]	; 0x38
4000efbc:	eafff84c 	b	4000d0f4 <_svfprintf_r+0x130>
4000efc0:	e59d307c 	ldr	r3, [sp, #124]	; 0x7c
4000efc4:	e58d3048 	str	r3, [sp, #72]	; 0x48
4000efc8:	eafffe37 	b	4000e8ac <_svfprintf_r+0x18e8>
4000efcc:	e59d4024 	ldr	r4, [sp, #36]	; 0x24
4000efd0:	eaffff35 	b	4000ecac <_svfprintf_r+0x1ce8>
4000efd4:	e3e02000 	mvn	r2, #0
4000efd8:	e3a0300c 	mov	r3, #12
4000efdc:	e58d2020 	str	r2, [sp, #32]
4000efe0:	e59d202c 	ldr	r2, [sp, #44]	; 0x2c
4000efe4:	e5823000 	str	r3, [r2]
4000efe8:	eafff8c0 	b	4000d2f0 <_svfprintf_r+0x32c>
4000efec:	e28d3086 	add	r3, sp, #134	; 0x86
4000eff0:	eafffe41 	b	4000e8fc <_svfprintf_r+0x1938>

Disassembly of section .text.write:

4000eff4 <write>:
4000eff4:	e92d4010 	push	{r4, lr}
4000eff8:	e59fc018 	ldr	ip, [pc, #24]	; 4000f018 <write+0x24>
4000effc:	e1a03002 	mov	r3, r2
4000f000:	e1a02001 	mov	r2, r1
4000f004:	e1a01000 	mov	r1, r0
4000f008:	e59c0000 	ldr	r0, [ip]
4000f00c:	ebffc7bb 	bl	40000f00 <_write_r>
4000f010:	e8bd4010 	pop	{r4, lr}
4000f014:	e12fff1e 	bx	lr
4000f018:	40019b60 	.word	0x40019b60

Disassembly of section .text._vfprintf_r:

4000f01c <_vfprintf_r>:
4000f01c:	e92d4ff0 	push	{r4, r5, r6, r7, r8, r9, sl, fp, lr}
4000f020:	e24ddf43 	sub	sp, sp, #268	; 0x10c
4000f024:	e1a05003 	mov	r5, r3
4000f028:	e58d1018 	str	r1, [sp, #24]
4000f02c:	e1a0a002 	mov	sl, r2
4000f030:	e1a04000 	mov	r4, r0
4000f034:	e58d0028 	str	r0, [sp, #40]	; 0x28
4000f038:	eb00128f 	bl	40013a7c <_localeconv_r>
4000f03c:	e5903000 	ldr	r3, [r0]
4000f040:	e1a00003 	mov	r0, r3
4000f044:	e58d3068 	str	r3, [sp, #104]	; 0x68
4000f048:	ebfff781 	bl	4000ce54 <strlen>
4000f04c:	e3540000 	cmp	r4, #0
4000f050:	e58d0060 	str	r0, [sp, #96]	; 0x60
4000f054:	e58d5038 	str	r5, [sp, #56]	; 0x38
4000f058:	0a000002 	beq	4000f068 <_vfprintf_r+0x4c>
4000f05c:	e5943038 	ldr	r3, [r4, #56]	; 0x38
4000f060:	e3530000 	cmp	r3, #0
4000f064:	0a0000e6 	beq	4000f404 <_vfprintf_r+0x3e8>
4000f068:	e59d1018 	ldr	r1, [sp, #24]
4000f06c:	e1d120fc 	ldrsh	r2, [r1, #12]
4000f070:	e1a03802 	lsl	r3, r2, #16
4000f074:	e3130202 	tst	r3, #536870912	; 0x20000000
4000f078:	e1a03823 	lsr	r3, r3, #16
4000f07c:	1a000006 	bne	4000f09c <_vfprintf_r+0x80>
4000f080:	e5913064 	ldr	r3, [r1, #100]	; 0x64
4000f084:	e3822a02 	orr	r2, r2, #8192	; 0x2000
4000f088:	e3c33a02 	bic	r3, r3, #8192	; 0x2000
4000f08c:	e1c120bc 	strh	r2, [r1, #12]
4000f090:	e1a02802 	lsl	r2, r2, #16
4000f094:	e5813064 	str	r3, [r1, #100]	; 0x64
4000f098:	e1a03822 	lsr	r3, r2, #16
4000f09c:	e3130008 	tst	r3, #8
4000f0a0:	0a0000aa 	beq	4000f350 <_vfprintf_r+0x334>
4000f0a4:	e59d2018 	ldr	r2, [sp, #24]
4000f0a8:	e5922010 	ldr	r2, [r2, #16]
4000f0ac:	e3520000 	cmp	r2, #0
4000f0b0:	0a0000a6 	beq	4000f350 <_vfprintf_r+0x334>
4000f0b4:	e203301a 	and	r3, r3, #26
4000f0b8:	e353000a 	cmp	r3, #10
4000f0bc:	0a0000ad 	beq	4000f378 <_vfprintf_r+0x35c>
4000f0c0:	e3a03000 	mov	r3, #0
4000f0c4:	e28d90c8 	add	r9, sp, #200	; 0xc8
4000f0c8:	e58d3050 	str	r3, [sp, #80]	; 0x50
4000f0cc:	e58d304c 	str	r3, [sp, #76]	; 0x4c
4000f0d0:	e58d3054 	str	r3, [sp, #84]	; 0x54
4000f0d4:	e58d3064 	str	r3, [sp, #100]	; 0x64
4000f0d8:	e58d306c 	str	r3, [sp, #108]	; 0x6c
4000f0dc:	e58d302c 	str	r3, [sp, #44]	; 0x2c
4000f0e0:	e58d3058 	str	r3, [sp, #88]	; 0x58
4000f0e4:	e58d305c 	str	r3, [sp, #92]	; 0x5c
4000f0e8:	e58d309c 	str	r3, [sp, #156]	; 0x9c
4000f0ec:	e58d3098 	str	r3, [sp, #152]	; 0x98
4000f0f0:	e58d9094 	str	r9, [sp, #148]	; 0x94
4000f0f4:	e59f8fcc 	ldr	r8, [pc, #4044]	; 400100c8 <_vfprintf_r+0x10ac>
4000f0f8:	e5da3000 	ldrb	r3, [sl]
4000f0fc:	e3530000 	cmp	r3, #0
4000f100:	13530025 	cmpne	r3, #37	; 0x25
4000f104:	e1a0400a 	mov	r4, sl
4000f108:	0a000013 	beq	4000f15c <_vfprintf_r+0x140>
4000f10c:	e5f43001 	ldrb	r3, [r4, #1]!
4000f110:	e3530000 	cmp	r3, #0
4000f114:	13530025 	cmpne	r3, #37	; 0x25
4000f118:	1afffffb 	bne	4000f10c <_vfprintf_r+0xf0>
4000f11c:	e054500a 	subs	r5, r4, sl
4000f120:	0a00000d 	beq	4000f15c <_vfprintf_r+0x140>
4000f124:	e59d3098 	ldr	r3, [sp, #152]	; 0x98
4000f128:	e59d209c 	ldr	r2, [sp, #156]	; 0x9c
4000f12c:	e2833001 	add	r3, r3, #1
4000f130:	e3530007 	cmp	r3, #7
4000f134:	e0822005 	add	r2, r2, r5
4000f138:	e589a000 	str	sl, [r9]
4000f13c:	e5895004 	str	r5, [r9, #4]
4000f140:	e58d3098 	str	r3, [sp, #152]	; 0x98
4000f144:	e58d209c 	str	r2, [sp, #156]	; 0x9c
4000f148:	d2899008 	addle	r9, r9, #8
4000f14c:	ca000096 	bgt	4000f3ac <_vfprintf_r+0x390>
4000f150:	e59d302c 	ldr	r3, [sp, #44]	; 0x2c
4000f154:	e0833005 	add	r3, r3, r5
4000f158:	e58d302c 	str	r3, [sp, #44]	; 0x2c
4000f15c:	e5d43000 	ldrb	r3, [r4]
4000f160:	e3530000 	cmp	r3, #0
4000f164:	0a000098 	beq	4000f3cc <_vfprintf_r+0x3b0>
4000f168:	e3a02000 	mov	r2, #0
4000f16c:	e3e03000 	mvn	r3, #0
4000f170:	e5cd2077 	strb	r2, [sp, #119]	; 0x77
4000f174:	e1a06003 	mov	r6, r3
4000f178:	e58d3024 	str	r3, [sp, #36]	; 0x24
4000f17c:	e1a00002 	mov	r0, r2
4000f180:	e1a03002 	mov	r3, r2
4000f184:	e58d2034 	str	r2, [sp, #52]	; 0x34
4000f188:	e1a0b002 	mov	fp, r2
4000f18c:	e1a05002 	mov	r5, r2
4000f190:	e284a001 	add	sl, r4, #1
4000f194:	e5d42001 	ldrb	r2, [r4, #1]
4000f198:	e3a0c001 	mov	ip, #1
4000f19c:	e3a0e02b 	mov	lr, #43	; 0x2b
4000f1a0:	e3a04020 	mov	r4, #32
4000f1a4:	e28aa001 	add	sl, sl, #1
4000f1a8:	e2421020 	sub	r1, r2, #32
4000f1ac:	e3510058 	cmp	r1, #88	; 0x58
4000f1b0:	979ff101 	ldrls	pc, [pc, r1, lsl #2]
4000f1b4:	ea00025a 	b	4000fb24 <_vfprintf_r+0xb08>
4000f1b8:	4000f628 	.word	0x4000f628
4000f1bc:	4000fb24 	.word	0x4000fb24
4000f1c0:	4000fb24 	.word	0x4000fb24
4000f1c4:	4000f60c 	.word	0x4000f60c
4000f1c8:	4000fb24 	.word	0x4000fb24
4000f1cc:	4000fb24 	.word	0x4000fb24
4000f1d0:	4000fb24 	.word	0x4000fb24
4000f1d4:	4000fb24 	.word	0x4000fb24
4000f1d8:	4000fb24 	.word	0x4000fb24
4000f1dc:	4000fb24 	.word	0x4000fb24
4000f1e0:	4000f31c 	.word	0x4000f31c
4000f1e4:	4000f618 	.word	0x4000f618
4000f1e8:	4000fb24 	.word	0x4000fb24
4000f1ec:	4000f344 	.word	0x4000f344
4000f1f0:	4000f958 	.word	0x4000f958
4000f1f4:	4000fb24 	.word	0x4000fb24
4000f1f8:	4000f9a0 	.word	0x4000f9a0
4000f1fc:	4000fafc 	.word	0x4000fafc
4000f200:	4000fafc 	.word	0x4000fafc
4000f204:	4000fafc 	.word	0x4000fafc
4000f208:	4000fafc 	.word	0x4000fafc
4000f20c:	4000fafc 	.word	0x4000fafc
4000f210:	4000fafc 	.word	0x4000fafc
4000f214:	4000fafc 	.word	0x4000fafc
4000f218:	4000fafc 	.word	0x4000fafc
4000f21c:	4000fafc 	.word	0x4000fafc
4000f220:	4000fb24 	.word	0x4000fb24
4000f224:	4000fb24 	.word	0x4000fb24
4000f228:	4000fb24 	.word	0x4000fb24
4000f22c:	4000fb24 	.word	0x4000fb24
4000f230:	4000fb24 	.word	0x4000fb24
4000f234:	4000fb24 	.word	0x4000fb24
4000f238:	4000fb24 	.word	0x4000fb24
4000f23c:	4000fb24 	.word	0x4000fb24
4000f240:	4000fb24 	.word	0x4000fb24
4000f244:	4000fb24 	.word	0x4000fb24
4000f248:	4000f9ac 	.word	0x4000f9ac
4000f24c:	4000f9e8 	.word	0x4000f9e8
4000f250:	4000fb24 	.word	0x4000fb24
4000f254:	4000f9e8 	.word	0x4000f9e8
4000f258:	4000fb24 	.word	0x4000fb24
4000f25c:	4000fb24 	.word	0x4000fb24
4000f260:	4000fb24 	.word	0x4000fb24
4000f264:	4000fb24 	.word	0x4000fb24
4000f268:	4000fac0 	.word	0x4000fac0
4000f26c:	4000fb24 	.word	0x4000fb24
4000f270:	4000fb24 	.word	0x4000fb24
4000f274:	4000facc 	.word	0x4000facc
4000f278:	4000fb24 	.word	0x4000fb24
4000f27c:	4000fb24 	.word	0x4000fb24
4000f280:	4000fb24 	.word	0x4000fb24
4000f284:	4000fb24 	.word	0x4000fb24
4000f288:	4000fb24 	.word	0x4000fb24
4000f28c:	4000f738 	.word	0x4000f738
4000f290:	4000fb24 	.word	0x4000fb24
4000f294:	4000fb24 	.word	0x4000fb24
4000f298:	4000f768 	.word	0x4000f768
4000f29c:	4000fb24 	.word	0x4000fb24
4000f2a0:	4000fb24 	.word	0x4000fb24
4000f2a4:	4000fb24 	.word	0x4000fb24
4000f2a8:	4000fb24 	.word	0x4000fb24
4000f2ac:	4000fb24 	.word	0x4000fb24
4000f2b0:	4000fb24 	.word	0x4000fb24
4000f2b4:	4000fb24 	.word	0x4000fb24
4000f2b8:	4000fb24 	.word	0x4000fb24
4000f2bc:	4000fb24 	.word	0x4000fb24
4000f2c0:	4000fb24 	.word	0x4000fb24
4000f2c4:	4000f7ac 	.word	0x4000f7ac
4000f2c8:	4000f7f4 	.word	0x4000f7f4
4000f2cc:	4000f9e8 	.word	0x4000f9e8
4000f2d0:	4000f9e8 	.word	0x4000f9e8
4000f2d4:	4000f9e8 	.word	0x4000f9e8
4000f2d8:	4000f8b8 	.word	0x4000f8b8
4000f2dc:	4000f7f4 	.word	0x4000f7f4
4000f2e0:	4000fb24 	.word	0x4000fb24
4000f2e4:	4000fb24 	.word	0x4000fb24
4000f2e8:	4000f8c4 	.word	0x4000f8c4
4000f2ec:	4000fb24 	.word	0x4000fb24
4000f2f0:	4000f8e0 	.word	0x4000f8e0
4000f2f4:	4000f5d8 	.word	0x4000f5d8
4000f2f8:	4000f91c 	.word	0x4000f91c
4000f2fc:	4000f6b4 	.word	0x4000f6b4
4000f300:	4000fb24 	.word	0x4000fb24
4000f304:	4000f6c0 	.word	0x4000f6c0
4000f308:	4000fb24 	.word	0x4000fb24
4000f30c:	4000f410 	.word	0x4000f410
4000f310:	4000fb24 	.word	0x4000fb24
4000f314:	4000fb24 	.word	0x4000fb24
4000f318:	4000f63c 	.word	0x4000f63c
4000f31c:	e59d2038 	ldr	r2, [sp, #56]	; 0x38
4000f320:	e5921000 	ldr	r1, [r2]
4000f324:	e2822004 	add	r2, r2, #4
4000f328:	e3510000 	cmp	r1, #0
4000f32c:	e58d1034 	str	r1, [sp, #52]	; 0x34
4000f330:	e58d2038 	str	r2, [sp, #56]	; 0x38
4000f334:	aa000003 	bge	4000f348 <_vfprintf_r+0x32c>
4000f338:	e59d2034 	ldr	r2, [sp, #52]	; 0x34
4000f33c:	e2622000 	rsb	r2, r2, #0
4000f340:	e58d2034 	str	r2, [sp, #52]	; 0x34
4000f344:	e38bb004 	orr	fp, fp, #4
4000f348:	e5da2000 	ldrb	r2, [sl]
4000f34c:	eaffff94 	b	4000f1a4 <_vfprintf_r+0x188>
4000f350:	e59d4018 	ldr	r4, [sp, #24]
4000f354:	e59d0028 	ldr	r0, [sp, #40]	; 0x28
4000f358:	e1a01004 	mov	r1, r4
4000f35c:	eb0007ff 	bl	40011360 <__swsetup_r>
4000f360:	e3500000 	cmp	r0, #0
4000f364:	1a000615 	bne	40010bc0 <_vfprintf_r+0x1ba4>
4000f368:	e1d430bc 	ldrh	r3, [r4, #12]
4000f36c:	e203301a 	and	r3, r3, #26
4000f370:	e353000a 	cmp	r3, #10
4000f374:	1affff51 	bne	4000f0c0 <_vfprintf_r+0xa4>
4000f378:	e59d1018 	ldr	r1, [sp, #24]
4000f37c:	e1d130fe 	ldrsh	r3, [r1, #14]
4000f380:	e3530000 	cmp	r3, #0
4000f384:	baffff4d 	blt	4000f0c0 <_vfprintf_r+0xa4>
4000f388:	e1a03005 	mov	r3, r5
4000f38c:	e1a0200a 	mov	r2, sl
4000f390:	e59d0028 	ldr	r0, [sp, #40]	; 0x28
4000f394:	eb000748 	bl	400110bc <__sbprintf>
4000f398:	e58d002c 	str	r0, [sp, #44]	; 0x2c
4000f39c:	e59d002c 	ldr	r0, [sp, #44]	; 0x2c
4000f3a0:	e28ddf43 	add	sp, sp, #268	; 0x10c
4000f3a4:	e8bd4ff0 	pop	{r4, r5, r6, r7, r8, r9, sl, fp, lr}
4000f3a8:	e12fff1e 	bx	lr
4000f3ac:	e28d2094 	add	r2, sp, #148	; 0x94
4000f3b0:	e59d1018 	ldr	r1, [sp, #24]
4000f3b4:	e59d0028 	ldr	r0, [sp, #40]	; 0x28
4000f3b8:	eb001a6b 	bl	40015d6c <__sprint_r>
4000f3bc:	e3500000 	cmp	r0, #0
4000f3c0:	1a000007 	bne	4000f3e4 <_vfprintf_r+0x3c8>
4000f3c4:	e28d90c8 	add	r9, sp, #200	; 0xc8
4000f3c8:	eaffff60 	b	4000f150 <_vfprintf_r+0x134>
4000f3cc:	e59d309c 	ldr	r3, [sp, #156]	; 0x9c
4000f3d0:	e3530000 	cmp	r3, #0
4000f3d4:	159d0028 	ldrne	r0, [sp, #40]	; 0x28
4000f3d8:	128d2094 	addne	r2, sp, #148	; 0x94
4000f3dc:	159d1018 	ldrne	r1, [sp, #24]
4000f3e0:	1b001a61 	blne	40015d6c <__sprint_r>
4000f3e4:	e59d3018 	ldr	r3, [sp, #24]
4000f3e8:	e1d330bc 	ldrh	r3, [r3, #12]
4000f3ec:	e3130040 	tst	r3, #64	; 0x40
4000f3f0:	1a0005f2 	bne	40010bc0 <_vfprintf_r+0x1ba4>
4000f3f4:	e59d002c 	ldr	r0, [sp, #44]	; 0x2c
4000f3f8:	e28ddf43 	add	sp, sp, #268	; 0x10c
4000f3fc:	e8bd4ff0 	pop	{r4, r5, r6, r7, r8, r9, sl, fp, lr}
4000f400:	e12fff1e 	bx	lr
4000f404:	e59d0028 	ldr	r0, [sp, #40]	; 0x28
4000f408:	eb001043 	bl	4001351c <__sinit>
4000f40c:	eaffff15 	b	4000f068 <_vfprintf_r+0x4c>
4000f410:	e31b0020 	tst	fp, #32
4000f414:	e58d2044 	str	r2, [sp, #68]	; 0x44
4000f418:	1a0000ca 	bne	4000f748 <_vfprintf_r+0x72c>
4000f41c:	e59d2038 	ldr	r2, [sp, #56]	; 0x38
4000f420:	e31b0010 	tst	fp, #16
4000f424:	e1a03002 	mov	r3, r2
4000f428:	1a000445 	bne	40010544 <_vfprintf_r+0x1528>
4000f42c:	e31b0040 	tst	fp, #64	; 0x40
4000f430:	0a000443 	beq	40010544 <_vfprintf_r+0x1528>
4000f434:	e3a03001 	mov	r3, #1
4000f438:	e3a07000 	mov	r7, #0
4000f43c:	e1d260b0 	ldrh	r6, [r2]
4000f440:	e2822004 	add	r2, r2, #4
4000f444:	e58d2038 	str	r2, [sp, #56]	; 0x38
4000f448:	e3a02000 	mov	r2, #0
4000f44c:	e58d2030 	str	r2, [sp, #48]	; 0x30
4000f450:	e5cd2077 	strb	r2, [sp, #119]	; 0x77
4000f454:	e59d2024 	ldr	r2, [sp, #36]	; 0x24
4000f458:	e3720001 	cmn	r2, #1
4000f45c:	0a0000fd 	beq	4000f858 <_vfprintf_r+0x83c>
4000f460:	e1865007 	orr	r5, r6, r7
4000f464:	e3550000 	cmp	r5, #0
4000f468:	03520000 	cmpeq	r2, #0
4000f46c:	e3cb2080 	bic	r2, fp, #128	; 0x80
4000f470:	13a05001 	movne	r5, #1
4000f474:	03a05000 	moveq	r5, #0
4000f478:	e58d201c 	str	r2, [sp, #28]
4000f47c:	1a000362 	bne	4001020c <_vfprintf_r+0x11f0>
4000f480:	e3530000 	cmp	r3, #0
4000f484:	1a0002d3 	bne	4000ffd8 <_vfprintf_r+0xfbc>
4000f488:	e21b5001 	ands	r5, fp, #1
4000f48c:	0a0002d1 	beq	4000ffd8 <_vfprintf_r+0xfbc>
4000f490:	e3a03030 	mov	r3, #48	; 0x30
4000f494:	e28d2f42 	add	r2, sp, #264	; 0x108
4000f498:	e5623041 	strb	r3, [r2, #-65]!	; 0xffffffbf
4000f49c:	e58d2040 	str	r2, [sp, #64]	; 0x40
4000f4a0:	e59d3024 	ldr	r3, [sp, #36]	; 0x24
4000f4a4:	e1530005 	cmp	r3, r5
4000f4a8:	b1a03005 	movlt	r3, r5
4000f4ac:	e58d3020 	str	r3, [sp, #32]
4000f4b0:	e3a03000 	mov	r3, #0
4000f4b4:	e58d3048 	str	r3, [sp, #72]	; 0x48
4000f4b8:	e59d3030 	ldr	r3, [sp, #48]	; 0x30
4000f4bc:	e3530000 	cmp	r3, #0
4000f4c0:	0a000002 	beq	4000f4d0 <_vfprintf_r+0x4b4>
4000f4c4:	e59d3020 	ldr	r3, [sp, #32]
4000f4c8:	e2833001 	add	r3, r3, #1
4000f4cc:	e58d3020 	str	r3, [sp, #32]
4000f4d0:	e59d301c 	ldr	r3, [sp, #28]
4000f4d4:	e2137002 	ands	r7, r3, #2
4000f4d8:	159d3020 	ldrne	r3, [sp, #32]
4000f4dc:	12833002 	addne	r3, r3, #2
4000f4e0:	158d3020 	strne	r3, [sp, #32]
4000f4e4:	e59d301c 	ldr	r3, [sp, #28]
4000f4e8:	e2133084 	ands	r3, r3, #132	; 0x84
4000f4ec:	e58d303c 	str	r3, [sp, #60]	; 0x3c
4000f4f0:	1a0001ae 	bne	4000fbb0 <_vfprintf_r+0xb94>
4000f4f4:	e59d3034 	ldr	r3, [sp, #52]	; 0x34
4000f4f8:	e59d2020 	ldr	r2, [sp, #32]
4000f4fc:	e0436002 	sub	r6, r3, r2
4000f500:	e3560000 	cmp	r6, #0
4000f504:	da0001a9 	ble	4000fbb0 <_vfprintf_r+0xb94>
4000f508:	e3560010 	cmp	r6, #16
4000f50c:	da00062f 	ble	40010dd0 <_vfprintf_r+0x1db4>
4000f510:	e28d2098 	add	r2, sp, #152	; 0x98
4000f514:	e8920014 	ldm	r2, {r2, r4}
4000f518:	e1a03009 	mov	r3, r9
4000f51c:	e1a01004 	mov	r1, r4
4000f520:	e1a09006 	mov	r9, r6
4000f524:	e3a0b010 	mov	fp, #16
4000f528:	e1a06005 	mov	r6, r5
4000f52c:	e59d4028 	ldr	r4, [sp, #40]	; 0x28
4000f530:	e59d5018 	ldr	r5, [sp, #24]
4000f534:	ea000002 	b	4000f544 <_vfprintf_r+0x528>
4000f538:	e2499010 	sub	r9, r9, #16
4000f53c:	e3590010 	cmp	r9, #16
4000f540:	da000014 	ble	4000f598 <_vfprintf_r+0x57c>
4000f544:	e2822001 	add	r2, r2, #1
4000f548:	e59f0b7c 	ldr	r0, [pc, #2940]	; 400100cc <_vfprintf_r+0x10b0>
4000f54c:	e3520007 	cmp	r2, #7
4000f550:	e2811010 	add	r1, r1, #16
4000f554:	e8830801 	stm	r3, {r0, fp}
4000f558:	e58d2098 	str	r2, [sp, #152]	; 0x98
4000f55c:	e58d109c 	str	r1, [sp, #156]	; 0x9c
4000f560:	d2833008 	addle	r3, r3, #8
4000f564:	dafffff3 	ble	4000f538 <_vfprintf_r+0x51c>
4000f568:	e28d2094 	add	r2, sp, #148	; 0x94
4000f56c:	e1a01005 	mov	r1, r5
4000f570:	e1a00004 	mov	r0, r4
4000f574:	eb0019fc 	bl	40015d6c <__sprint_r>
4000f578:	e3500000 	cmp	r0, #0
4000f57c:	1affff98 	bne	4000f3e4 <_vfprintf_r+0x3c8>
4000f580:	e2499010 	sub	r9, r9, #16
4000f584:	e3590010 	cmp	r9, #16
4000f588:	e28d30c8 	add	r3, sp, #200	; 0xc8
4000f58c:	e59d109c 	ldr	r1, [sp, #156]	; 0x9c
4000f590:	e59d2098 	ldr	r2, [sp, #152]	; 0x98
4000f594:	caffffea 	bgt	4000f544 <_vfprintf_r+0x528>
4000f598:	e1a05006 	mov	r5, r6
4000f59c:	e1a04001 	mov	r4, r1
4000f5a0:	e1a06009 	mov	r6, r9
4000f5a4:	e1a09003 	mov	r9, r3
4000f5a8:	e2822001 	add	r2, r2, #1
4000f5ac:	e59f3b18 	ldr	r3, [pc, #2840]	; 400100cc <_vfprintf_r+0x10b0>
4000f5b0:	e0864004 	add	r4, r6, r4
4000f5b4:	e3520007 	cmp	r2, #7
4000f5b8:	e58d2098 	str	r2, [sp, #152]	; 0x98
4000f5bc:	e58d409c 	str	r4, [sp, #156]	; 0x9c
4000f5c0:	e8890048 	stm	r9, {r3, r6}
4000f5c4:	ca000170 	bgt	4000fb8c <_vfprintf_r+0xb70>
4000f5c8:	e5dd3077 	ldrb	r3, [sp, #119]	; 0x77
4000f5cc:	e2899008 	add	r9, r9, #8
4000f5d0:	e58d3030 	str	r3, [sp, #48]	; 0x30
4000f5d4:	ea000176 	b	4000fbb4 <_vfprintf_r+0xb98>
4000f5d8:	e21b5020 	ands	r5, fp, #32
4000f5dc:	e58d2044 	str	r2, [sp, #68]	; 0x44
4000f5e0:	1a00013d 	bne	4000fadc <_vfprintf_r+0xac0>
4000f5e4:	e21b3010 	ands	r3, fp, #16
4000f5e8:	e59d2038 	ldr	r2, [sp, #56]	; 0x38
4000f5ec:	1a0003c4 	bne	40010504 <_vfprintf_r+0x14e8>
4000f5f0:	e21b5040 	ands	r5, fp, #64	; 0x40
4000f5f4:	0a0003c2 	beq	40010504 <_vfprintf_r+0x14e8>
4000f5f8:	e1d260b0 	ldrh	r6, [r2]
4000f5fc:	e2822004 	add	r2, r2, #4
4000f600:	e58d2038 	str	r2, [sp, #56]	; 0x38
4000f604:	e3a07000 	mov	r7, #0
4000f608:	eaffff8e 	b	4000f448 <_vfprintf_r+0x42c>
4000f60c:	e38bb001 	orr	fp, fp, #1
4000f610:	e5da2000 	ldrb	r2, [sl]
4000f614:	eafffee2 	b	4000f1a4 <_vfprintf_r+0x188>
4000f618:	e5da2000 	ldrb	r2, [sl]
4000f61c:	e1a0300c 	mov	r3, ip
4000f620:	e1a0000e 	mov	r0, lr
4000f624:	eafffede 	b	4000f1a4 <_vfprintf_r+0x188>
4000f628:	e3500000 	cmp	r0, #0
4000f62c:	e5da2000 	ldrb	r2, [sl]
4000f630:	01a0300c 	moveq	r3, ip
4000f634:	01a00004 	moveq	r0, r4
4000f638:	eafffed9 	b	4000f1a4 <_vfprintf_r+0x188>
4000f63c:	e3530000 	cmp	r3, #0
4000f640:	e59f3a88 	ldr	r3, [pc, #2696]	; 400100d0 <_vfprintf_r+0x10b4>
4000f644:	15cd0077 	strbne	r0, [sp, #119]	; 0x77
4000f648:	e31b0020 	tst	fp, #32
4000f64c:	e58d3064 	str	r3, [sp, #100]	; 0x64
4000f650:	e58d2044 	str	r2, [sp, #68]	; 0x44
4000f654:	e59d3038 	ldr	r3, [sp, #56]	; 0x38
4000f658:	1a00004a 	bne	4000f788 <_vfprintf_r+0x76c>
4000f65c:	e31b0010 	tst	fp, #16
4000f660:	1a000541 	bne	40010b6c <_vfprintf_r+0x1b50>
4000f664:	e31b0040 	tst	fp, #64	; 0x40
4000f668:	13a07000 	movne	r7, #0
4000f66c:	03a07000 	moveq	r7, #0
4000f670:	11d360b0 	ldrhne	r6, [r3]
4000f674:	05936000 	ldreq	r6, [r3]
4000f678:	12833004 	addne	r3, r3, #4
4000f67c:	02833004 	addeq	r3, r3, #4
4000f680:	158d3038 	strne	r3, [sp, #56]	; 0x38
4000f684:	058d3038 	streq	r3, [sp, #56]	; 0x38
4000f688:	e31b0001 	tst	fp, #1
4000f68c:	0a000044 	beq	4000f7a4 <_vfprintf_r+0x788>
4000f690:	e1963007 	orrs	r3, r6, r7
4000f694:	0a000042 	beq	4000f7a4 <_vfprintf_r+0x788>
4000f698:	e3a03030 	mov	r3, #48	; 0x30
4000f69c:	e5dd2044 	ldrb	r2, [sp, #68]	; 0x44
4000f6a0:	e5cd3078 	strb	r3, [sp, #120]	; 0x78
4000f6a4:	e5cd2079 	strb	r2, [sp, #121]	; 0x79
4000f6a8:	e38bb002 	orr	fp, fp, #2
4000f6ac:	e3a03002 	mov	r3, #2
4000f6b0:	eaffff64 	b	4000f448 <_vfprintf_r+0x42c>
4000f6b4:	e38bb020 	orr	fp, fp, #32
4000f6b8:	e5da2000 	ldrb	r2, [sl]
4000f6bc:	eafffeb8 	b	4000f1a4 <_vfprintf_r+0x188>
4000f6c0:	e3a05000 	mov	r5, #0
4000f6c4:	e59d3038 	ldr	r3, [sp, #56]	; 0x38
4000f6c8:	e58d2044 	str	r2, [sp, #68]	; 0x44
4000f6cc:	e5932000 	ldr	r2, [r3]
4000f6d0:	e1520005 	cmp	r2, r5
4000f6d4:	e2834004 	add	r4, r3, #4
4000f6d8:	e58d2040 	str	r2, [sp, #64]	; 0x40
4000f6dc:	e5cd5077 	strb	r5, [sp, #119]	; 0x77
4000f6e0:	e59d3024 	ldr	r3, [sp, #36]	; 0x24
4000f6e4:	0a0005d1 	beq	40010e30 <_vfprintf_r+0x1e14>
4000f6e8:	e3730001 	cmn	r3, #1
4000f6ec:	0a000598 	beq	40010d54 <_vfprintf_r+0x1d38>
4000f6f0:	e1a02003 	mov	r2, r3
4000f6f4:	e1a01005 	mov	r1, r5
4000f6f8:	e59d0040 	ldr	r0, [sp, #64]	; 0x40
4000f6fc:	ebfff16c 	bl	4000bcb4 <memchr>
4000f700:	e3500000 	cmp	r0, #0
4000f704:	0a0005e8 	beq	40010eac <_vfprintf_r+0x1e90>
4000f708:	e1a03005 	mov	r3, r5
4000f70c:	e59d2040 	ldr	r2, [sp, #64]	; 0x40
4000f710:	e58d5024 	str	r5, [sp, #36]	; 0x24
4000f714:	e58d3048 	str	r3, [sp, #72]	; 0x48
4000f718:	e0405002 	sub	r5, r0, r2
4000f71c:	e5dd3077 	ldrb	r3, [sp, #119]	; 0x77
4000f720:	e1c52fc5 	bic	r2, r5, r5, asr #31
4000f724:	e58d4038 	str	r4, [sp, #56]	; 0x38
4000f728:	e58db01c 	str	fp, [sp, #28]
4000f72c:	e58d2020 	str	r2, [sp, #32]
4000f730:	e58d3030 	str	r3, [sp, #48]	; 0x30
4000f734:	eaffff5f 	b	4000f4b8 <_vfprintf_r+0x49c>
4000f738:	e38bb010 	orr	fp, fp, #16
4000f73c:	e31b0020 	tst	fp, #32
4000f740:	e58d2044 	str	r2, [sp, #68]	; 0x44
4000f744:	0affff34 	beq	4000f41c <_vfprintf_r+0x400>
4000f748:	e59d3038 	ldr	r3, [sp, #56]	; 0x38
4000f74c:	e2834007 	add	r4, r3, #7
4000f750:	e3c43007 	bic	r3, r4, #7
4000f754:	e2832008 	add	r2, r3, #8
4000f758:	e89300c0 	ldm	r3, {r6, r7}
4000f75c:	e58d2038 	str	r2, [sp, #56]	; 0x38
4000f760:	e3a03001 	mov	r3, #1
4000f764:	eaffff37 	b	4000f448 <_vfprintf_r+0x42c>
4000f768:	e3530000 	cmp	r3, #0
4000f76c:	e59f3960 	ldr	r3, [pc, #2400]	; 400100d4 <_vfprintf_r+0x10b8>
4000f770:	15cd0077 	strbne	r0, [sp, #119]	; 0x77
4000f774:	e31b0020 	tst	fp, #32
4000f778:	e58d3064 	str	r3, [sp, #100]	; 0x64
4000f77c:	e58d2044 	str	r2, [sp, #68]	; 0x44
4000f780:	e59d3038 	ldr	r3, [sp, #56]	; 0x38
4000f784:	0affffb4 	beq	4000f65c <_vfprintf_r+0x640>
4000f788:	e2834007 	add	r4, r3, #7
4000f78c:	e3c43007 	bic	r3, r4, #7
4000f790:	e2832008 	add	r2, r3, #8
4000f794:	e31b0001 	tst	fp, #1
4000f798:	e58d2038 	str	r2, [sp, #56]	; 0x38
4000f79c:	e89300c0 	ldm	r3, {r6, r7}
4000f7a0:	1affffba 	bne	4000f690 <_vfprintf_r+0x674>
4000f7a4:	e3a03002 	mov	r3, #2
4000f7a8:	eaffff26 	b	4000f448 <_vfprintf_r+0x42c>
4000f7ac:	e3a03000 	mov	r3, #0
4000f7b0:	e58d2044 	str	r2, [sp, #68]	; 0x44
4000f7b4:	e3a02001 	mov	r2, #1
4000f7b8:	e59d0038 	ldr	r0, [sp, #56]	; 0x38
4000f7bc:	e1a05002 	mov	r5, r2
4000f7c0:	e58d2020 	str	r2, [sp, #32]
4000f7c4:	e58d3030 	str	r3, [sp, #48]	; 0x30
4000f7c8:	e5902000 	ldr	r2, [r0]
4000f7cc:	e5cd3077 	strb	r3, [sp, #119]	; 0x77
4000f7d0:	e58d3024 	str	r3, [sp, #36]	; 0x24
4000f7d4:	e58d3048 	str	r3, [sp, #72]	; 0x48
4000f7d8:	e2803004 	add	r3, r0, #4
4000f7dc:	e58d3038 	str	r3, [sp, #56]	; 0x38
4000f7e0:	e28d30a0 	add	r3, sp, #160	; 0xa0
4000f7e4:	e58db01c 	str	fp, [sp, #28]
4000f7e8:	e5cd20a0 	strb	r2, [sp, #160]	; 0xa0
4000f7ec:	e58d3040 	str	r3, [sp, #64]	; 0x40
4000f7f0:	eaffff36 	b	4000f4d0 <_vfprintf_r+0x4b4>
4000f7f4:	e3530000 	cmp	r3, #0
4000f7f8:	15cd0077 	strbne	r0, [sp, #119]	; 0x77
4000f7fc:	e31b0020 	tst	fp, #32
4000f800:	e58d2044 	str	r2, [sp, #68]	; 0x44
4000f804:	1a00006e 	bne	4000f9c4 <_vfprintf_r+0x9a8>
4000f808:	e31b0010 	tst	fp, #16
4000f80c:	1a0004db 	bne	40010b80 <_vfprintf_r+0x1b64>
4000f810:	e31b0040 	tst	fp, #64	; 0x40
4000f814:	0a000416 	beq	40010874 <_vfprintf_r+0x1858>
4000f818:	e59d3038 	ldr	r3, [sp, #56]	; 0x38
4000f81c:	e1d360f0 	ldrsh	r6, [r3]
4000f820:	e2833004 	add	r3, r3, #4
4000f824:	e1a07fc6 	asr	r7, r6, #31
4000f828:	e58d3038 	str	r3, [sp, #56]	; 0x38
4000f82c:	e1a02006 	mov	r2, r6
4000f830:	e1a03007 	mov	r3, r7
4000f834:	e3520000 	cmp	r2, #0
4000f838:	e2d33000 	sbcs	r3, r3, #0
4000f83c:	ba000405 	blt	40010858 <_vfprintf_r+0x183c>
4000f840:	e59d2024 	ldr	r2, [sp, #36]	; 0x24
4000f844:	e5dd3077 	ldrb	r3, [sp, #119]	; 0x77
4000f848:	e3720001 	cmn	r2, #1
4000f84c:	e58d3030 	str	r3, [sp, #48]	; 0x30
4000f850:	e3a03001 	mov	r3, #1
4000f854:	1affff01 	bne	4000f460 <_vfprintf_r+0x444>
4000f858:	e3530001 	cmp	r3, #1
4000f85c:	0a00026d 	beq	40010218 <_vfprintf_r+0x11fc>
4000f860:	e3530002 	cmp	r3, #2
4000f864:	128d10c8 	addne	r1, sp, #200	; 0xc8
4000f868:	1a0001c2 	bne	4000ff78 <_vfprintf_r+0xf5c>
4000f86c:	e28d30c8 	add	r3, sp, #200	; 0xc8
4000f870:	e1a02003 	mov	r2, r3
4000f874:	e59dc064 	ldr	ip, [sp, #100]	; 0x64
4000f878:	e1a03226 	lsr	r3, r6, #4
4000f87c:	e1833e07 	orr	r3, r3, r7, lsl #28
4000f880:	e1a00227 	lsr	r0, r7, #4
4000f884:	e206100f 	and	r1, r6, #15
4000f888:	e1a07000 	mov	r7, r0
4000f88c:	e1a06003 	mov	r6, r3
4000f890:	e7dc3001 	ldrb	r3, [ip, r1]
4000f894:	e1961007 	orrs	r1, r6, r7
4000f898:	e5623001 	strb	r3, [r2, #-1]!
4000f89c:	1afffff5 	bne	4000f878 <_vfprintf_r+0x85c>
4000f8a0:	e1a03002 	mov	r3, r2
4000f8a4:	e58d2040 	str	r2, [sp, #64]	; 0x40
4000f8a8:	e28d20c8 	add	r2, sp, #200	; 0xc8
4000f8ac:	e58db01c 	str	fp, [sp, #28]
4000f8b0:	e0425003 	sub	r5, r2, r3
4000f8b4:	eafffef9 	b	4000f4a0 <_vfprintf_r+0x484>
4000f8b8:	e38bb040 	orr	fp, fp, #64	; 0x40
4000f8bc:	e5da2000 	ldrb	r2, [sl]
4000f8c0:	eafffe37 	b	4000f1a4 <_vfprintf_r+0x188>
4000f8c4:	e5da2000 	ldrb	r2, [sl]
4000f8c8:	e352006c 	cmp	r2, #108	; 0x6c
4000f8cc:	05da2001 	ldrbeq	r2, [sl, #1]
4000f8d0:	038bb020 	orreq	fp, fp, #32
4000f8d4:	028aa001 	addeq	sl, sl, #1
4000f8d8:	138bb010 	orrne	fp, fp, #16
4000f8dc:	eafffe30 	b	4000f1a4 <_vfprintf_r+0x188>
4000f8e0:	e3530000 	cmp	r3, #0
4000f8e4:	15cd0077 	strbne	r0, [sp, #119]	; 0x77
4000f8e8:	e31b0020 	tst	fp, #32
4000f8ec:	1a0004b6 	bne	40010bcc <_vfprintf_r+0x1bb0>
4000f8f0:	e31b0010 	tst	fp, #16
4000f8f4:	1a00009d 	bne	4000fb70 <_vfprintf_r+0xb54>
4000f8f8:	e31b0040 	tst	fp, #64	; 0x40
4000f8fc:	0a00009b 	beq	4000fb70 <_vfprintf_r+0xb54>
4000f900:	e59d2038 	ldr	r2, [sp, #56]	; 0x38
4000f904:	e5923000 	ldr	r3, [r2]
4000f908:	e2822004 	add	r2, r2, #4
4000f90c:	e58d2038 	str	r2, [sp, #56]	; 0x38
4000f910:	e1dd22bc 	ldrh	r2, [sp, #44]	; 0x2c
4000f914:	e1c320b0 	strh	r2, [r3]
4000f918:	eafffdf6 	b	4000f0f8 <_vfprintf_r+0xdc>
4000f91c:	e3a03078 	mov	r3, #120	; 0x78
4000f920:	e3a02030 	mov	r2, #48	; 0x30
4000f924:	e59d1038 	ldr	r1, [sp, #56]	; 0x38
4000f928:	e5cd3079 	strb	r3, [sp, #121]	; 0x79
4000f92c:	e58d3044 	str	r3, [sp, #68]	; 0x44
4000f930:	e2813004 	add	r3, r1, #4
4000f934:	e58d3038 	str	r3, [sp, #56]	; 0x38
4000f938:	e59f3790 	ldr	r3, [pc, #1936]	; 400100d0 <_vfprintf_r+0x10b4>
4000f93c:	e5916000 	ldr	r6, [r1]
4000f940:	e58d3064 	str	r3, [sp, #100]	; 0x64
4000f944:	e38bb002 	orr	fp, fp, #2
4000f948:	e5cd2078 	strb	r2, [sp, #120]	; 0x78
4000f94c:	e3a07000 	mov	r7, #0
4000f950:	e3a03002 	mov	r3, #2
4000f954:	eafffebb 	b	4000f448 <_vfprintf_r+0x42c>
4000f958:	e5da2000 	ldrb	r2, [sl]
4000f95c:	e352002a 	cmp	r2, #42	; 0x2a
4000f960:	e28a1001 	add	r1, sl, #1
4000f964:	0a0005bb 	beq	40011058 <_vfprintf_r+0x203c>
4000f968:	e2427030 	sub	r7, r2, #48	; 0x30
4000f96c:	e3570009 	cmp	r7, #9
4000f970:	e1a0a001 	mov	sl, r1
4000f974:	858d5024 	strhi	r5, [sp, #36]	; 0x24
4000f978:	8afffe0a 	bhi	4000f1a8 <_vfprintf_r+0x18c>
4000f97c:	e1a01005 	mov	r1, r5
4000f980:	e4da2001 	ldrb	r2, [sl], #1
4000f984:	e0811101 	add	r1, r1, r1, lsl #2
4000f988:	e0871081 	add	r1, r7, r1, lsl #1
4000f98c:	e2427030 	sub	r7, r2, #48	; 0x30
4000f990:	e3570009 	cmp	r7, #9
4000f994:	9afffff9 	bls	4000f980 <_vfprintf_r+0x964>
4000f998:	e58d1024 	str	r1, [sp, #36]	; 0x24
4000f99c:	eafffe01 	b	4000f1a8 <_vfprintf_r+0x18c>
4000f9a0:	e38bb080 	orr	fp, fp, #128	; 0x80
4000f9a4:	e5da2000 	ldrb	r2, [sl]
4000f9a8:	eafffdfd 	b	4000f1a4 <_vfprintf_r+0x188>
4000f9ac:	e3530000 	cmp	r3, #0
4000f9b0:	e38bb010 	orr	fp, fp, #16
4000f9b4:	15cd0077 	strbne	r0, [sp, #119]	; 0x77
4000f9b8:	e31b0020 	tst	fp, #32
4000f9bc:	e58d2044 	str	r2, [sp, #68]	; 0x44
4000f9c0:	0affff90 	beq	4000f808 <_vfprintf_r+0x7ec>
4000f9c4:	e59d3038 	ldr	r3, [sp, #56]	; 0x38
4000f9c8:	e2834007 	add	r4, r3, #7
4000f9cc:	e3c44007 	bic	r4, r4, #7
4000f9d0:	e894000c 	ldm	r4, {r2, r3}
4000f9d4:	e2841008 	add	r1, r4, #8
4000f9d8:	e58d1038 	str	r1, [sp, #56]	; 0x38
4000f9dc:	e1a06002 	mov	r6, r2
4000f9e0:	e1a07003 	mov	r7, r3
4000f9e4:	eaffff92 	b	4000f834 <_vfprintf_r+0x818>
4000f9e8:	e3530000 	cmp	r3, #0
4000f9ec:	e59d3038 	ldr	r3, [sp, #56]	; 0x38
4000f9f0:	15cd0077 	strbne	r0, [sp, #119]	; 0x77
4000f9f4:	e31b0008 	tst	fp, #8
4000f9f8:	e58d2044 	str	r2, [sp, #68]	; 0x44
4000f9fc:	e2834007 	add	r4, r3, #7
4000fa00:	0a000451 	beq	40010b4c <_vfprintf_r+0x1b30>
4000fa04:	e3c43007 	bic	r3, r4, #7
4000fa08:	e2832008 	add	r2, r3, #8
4000fa0c:	e58d2038 	str	r2, [sp, #56]	; 0x38
4000fa10:	e5932000 	ldr	r2, [r3]
4000fa14:	e5933004 	ldr	r3, [r3, #4]
4000fa18:	e58d2050 	str	r2, [sp, #80]	; 0x50
4000fa1c:	e58d3054 	str	r3, [sp, #84]	; 0x54
4000fa20:	e59d3054 	ldr	r3, [sp, #84]	; 0x54
4000fa24:	e59d5050 	ldr	r5, [sp, #80]	; 0x50
4000fa28:	e3c34102 	bic	r4, r3, #-2147483648	; 0x80000000
4000fa2c:	e1a00005 	mov	r0, r5
4000fa30:	e1a01004 	mov	r1, r4
4000fa34:	e3e02000 	mvn	r2, #0
4000fa38:	e59f3698 	ldr	r3, [pc, #1688]	; 400100d8 <_vfprintf_r+0x10bc>
4000fa3c:	ebffcab7 	bl	40002520 <__aeabi_dcmpun>
4000fa40:	e3500000 	cmp	r0, #0
4000fa44:	1a000392 	bne	40010894 <_vfprintf_r+0x1878>
4000fa48:	e1a00005 	mov	r0, r5
4000fa4c:	e1a01004 	mov	r1, r4
4000fa50:	e3e02000 	mvn	r2, #0
4000fa54:	e59f367c 	ldr	r3, [pc, #1660]	; 400100d8 <_vfprintf_r+0x10bc>
4000fa58:	ebffca9e 	bl	400024d8 <__aeabi_dcmple>
4000fa5c:	e3500000 	cmp	r0, #0
4000fa60:	1a00038b 	bne	40010894 <_vfprintf_r+0x1878>
4000fa64:	e28d0050 	add	r0, sp, #80	; 0x50
4000fa68:	e890000f 	ldm	r0, {r0, r1, r2, r3}
4000fa6c:	ebffca93 	bl	400024c0 <__aeabi_dcmplt>
4000fa70:	e3500000 	cmp	r0, #0
4000fa74:	1a0004f9 	bne	40010e60 <_vfprintf_r+0x1e44>
4000fa78:	e5dd3077 	ldrb	r3, [sp, #119]	; 0x77
4000fa7c:	e58d3030 	str	r3, [sp, #48]	; 0x30
4000fa80:	e3a03003 	mov	r3, #3
4000fa84:	e1a05003 	mov	r5, r3
4000fa88:	e58d3020 	str	r3, [sp, #32]
4000fa8c:	e3a03000 	mov	r3, #0
4000fa90:	e1a01003 	mov	r1, r3
4000fa94:	e58d1048 	str	r1, [sp, #72]	; 0x48
4000fa98:	e59d1044 	ldr	r1, [sp, #68]	; 0x44
4000fa9c:	e58d3024 	str	r3, [sp, #36]	; 0x24
4000faa0:	e59f3634 	ldr	r3, [pc, #1588]	; 400100dc <_vfprintf_r+0x10c0>
4000faa4:	e3510047 	cmp	r1, #71	; 0x47
4000faa8:	e59f2630 	ldr	r2, [pc, #1584]	; 400100e0 <_vfprintf_r+0x10c4>
4000faac:	d1a02003 	movle	r2, r3
4000fab0:	e3cb0080 	bic	r0, fp, #128	; 0x80
4000fab4:	e58d001c 	str	r0, [sp, #28]
4000fab8:	e58d2040 	str	r2, [sp, #64]	; 0x40
4000fabc:	eafffe7d 	b	4000f4b8 <_vfprintf_r+0x49c>
4000fac0:	e38bb008 	orr	fp, fp, #8
4000fac4:	e5da2000 	ldrb	r2, [sl]
4000fac8:	eafffdb5 	b	4000f1a4 <_vfprintf_r+0x188>
4000facc:	e38bb010 	orr	fp, fp, #16
4000fad0:	e21b5020 	ands	r5, fp, #32
4000fad4:	e58d2044 	str	r2, [sp, #68]	; 0x44
4000fad8:	0afffec1 	beq	4000f5e4 <_vfprintf_r+0x5c8>
4000fadc:	e59d3038 	ldr	r3, [sp, #56]	; 0x38
4000fae0:	e2834007 	add	r4, r3, #7
4000fae4:	e3c43007 	bic	r3, r4, #7
4000fae8:	e2832008 	add	r2, r3, #8
4000faec:	e89300c0 	ldm	r3, {r6, r7}
4000faf0:	e58d2038 	str	r2, [sp, #56]	; 0x38
4000faf4:	e3a03000 	mov	r3, #0
4000faf8:	eafffe52 	b	4000f448 <_vfprintf_r+0x42c>
4000fafc:	e3a01000 	mov	r1, #0
4000fb00:	e2427030 	sub	r7, r2, #48	; 0x30
4000fb04:	e4da2001 	ldrb	r2, [sl], #1
4000fb08:	e0811101 	add	r1, r1, r1, lsl #2
4000fb0c:	e0871081 	add	r1, r7, r1, lsl #1
4000fb10:	e2427030 	sub	r7, r2, #48	; 0x30
4000fb14:	e3570009 	cmp	r7, #9
4000fb18:	9afffff9 	bls	4000fb04 <_vfprintf_r+0xae8>
4000fb1c:	e58d1034 	str	r1, [sp, #52]	; 0x34
4000fb20:	eafffda0 	b	4000f1a8 <_vfprintf_r+0x18c>
4000fb24:	e58d2044 	str	r2, [sp, #68]	; 0x44
4000fb28:	e59d1044 	ldr	r1, [sp, #68]	; 0x44
4000fb2c:	e3530000 	cmp	r3, #0
4000fb30:	15cd0077 	strbne	r0, [sp, #119]	; 0x77
4000fb34:	e3510000 	cmp	r1, #0
4000fb38:	0afffe23 	beq	4000f3cc <_vfprintf_r+0x3b0>
4000fb3c:	e3a03000 	mov	r3, #0
4000fb40:	e3a02001 	mov	r2, #1
4000fb44:	e58d3030 	str	r3, [sp, #48]	; 0x30
4000fb48:	e5cd3077 	strb	r3, [sp, #119]	; 0x77
4000fb4c:	e58d3024 	str	r3, [sp, #36]	; 0x24
4000fb50:	e58d3048 	str	r3, [sp, #72]	; 0x48
4000fb54:	e28d30a0 	add	r3, sp, #160	; 0xa0
4000fb58:	e1a05002 	mov	r5, r2
4000fb5c:	e58d2020 	str	r2, [sp, #32]
4000fb60:	e5cd10a0 	strb	r1, [sp, #160]	; 0xa0
4000fb64:	e58db01c 	str	fp, [sp, #28]
4000fb68:	e58d3040 	str	r3, [sp, #64]	; 0x40
4000fb6c:	eafffe57 	b	4000f4d0 <_vfprintf_r+0x4b4>
4000fb70:	e59d2038 	ldr	r2, [sp, #56]	; 0x38
4000fb74:	e5923000 	ldr	r3, [r2]
4000fb78:	e2822004 	add	r2, r2, #4
4000fb7c:	e58d2038 	str	r2, [sp, #56]	; 0x38
4000fb80:	e59d202c 	ldr	r2, [sp, #44]	; 0x2c
4000fb84:	e5832000 	str	r2, [r3]
4000fb88:	eafffd5a 	b	4000f0f8 <_vfprintf_r+0xdc>
4000fb8c:	e28d2094 	add	r2, sp, #148	; 0x94
4000fb90:	e59d1018 	ldr	r1, [sp, #24]
4000fb94:	e59d0028 	ldr	r0, [sp, #40]	; 0x28
4000fb98:	eb001873 	bl	40015d6c <__sprint_r>
4000fb9c:	e3500000 	cmp	r0, #0
4000fba0:	1afffe0f 	bne	4000f3e4 <_vfprintf_r+0x3c8>
4000fba4:	e5dd3077 	ldrb	r3, [sp, #119]	; 0x77
4000fba8:	e58d3030 	str	r3, [sp, #48]	; 0x30
4000fbac:	e28d90c8 	add	r9, sp, #200	; 0xc8
4000fbb0:	e59d409c 	ldr	r4, [sp, #156]	; 0x9c
4000fbb4:	e59d3030 	ldr	r3, [sp, #48]	; 0x30
4000fbb8:	e3530000 	cmp	r3, #0
4000fbbc:	0a00000b 	beq	4000fbf0 <_vfprintf_r+0xbd4>
4000fbc0:	e3a02001 	mov	r2, #1
4000fbc4:	e59d3098 	ldr	r3, [sp, #152]	; 0x98
4000fbc8:	e0833002 	add	r3, r3, r2
4000fbcc:	e3530007 	cmp	r3, #7
4000fbd0:	e0844002 	add	r4, r4, r2
4000fbd4:	e58d3098 	str	r3, [sp, #152]	; 0x98
4000fbd8:	e28d3077 	add	r3, sp, #119	; 0x77
4000fbdc:	e5892004 	str	r2, [r9, #4]
4000fbe0:	e5893000 	str	r3, [r9]
4000fbe4:	e58d409c 	str	r4, [sp, #156]	; 0x9c
4000fbe8:	d2899008 	addle	r9, r9, #8
4000fbec:	ca000193 	bgt	40010240 <_vfprintf_r+0x1224>
4000fbf0:	e3570000 	cmp	r7, #0
4000fbf4:	0a00000b 	beq	4000fc28 <_vfprintf_r+0xc0c>
4000fbf8:	e3a02002 	mov	r2, #2
4000fbfc:	e59d3098 	ldr	r3, [sp, #152]	; 0x98
4000fc00:	e2833001 	add	r3, r3, #1
4000fc04:	e3530007 	cmp	r3, #7
4000fc08:	e0844002 	add	r4, r4, r2
4000fc0c:	e58d3098 	str	r3, [sp, #152]	; 0x98
4000fc10:	e28d3078 	add	r3, sp, #120	; 0x78
4000fc14:	e5892004 	str	r2, [r9, #4]
4000fc18:	e5893000 	str	r3, [r9]
4000fc1c:	e58d409c 	str	r4, [sp, #156]	; 0x9c
4000fc20:	d2899008 	addle	r9, r9, #8
4000fc24:	ca00018e 	bgt	40010264 <_vfprintf_r+0x1248>
4000fc28:	e59d303c 	ldr	r3, [sp, #60]	; 0x3c
4000fc2c:	e3530080 	cmp	r3, #128	; 0x80
4000fc30:	0a0000eb 	beq	4000ffe4 <_vfprintf_r+0xfc8>
4000fc34:	e59d3024 	ldr	r3, [sp, #36]	; 0x24
4000fc38:	e0436005 	sub	r6, r3, r5
4000fc3c:	e3560000 	cmp	r6, #0
4000fc40:	da000032 	ble	4000fd10 <_vfprintf_r+0xcf4>
4000fc44:	e3560010 	cmp	r6, #16
4000fc48:	d59d3098 	ldrle	r3, [sp, #152]	; 0x98
4000fc4c:	da00001e 	ble	4000fccc <_vfprintf_r+0xcb0>
4000fc50:	e1a02004 	mov	r2, r4
4000fc54:	e3a07010 	mov	r7, #16
4000fc58:	e59d3098 	ldr	r3, [sp, #152]	; 0x98
4000fc5c:	e59db028 	ldr	fp, [sp, #40]	; 0x28
4000fc60:	e59d4018 	ldr	r4, [sp, #24]
4000fc64:	ea000002 	b	4000fc74 <_vfprintf_r+0xc58>
4000fc68:	e2466010 	sub	r6, r6, #16
4000fc6c:	e3560010 	cmp	r6, #16
4000fc70:	da000014 	ble	4000fcc8 <_vfprintf_r+0xcac>
4000fc74:	e2833001 	add	r3, r3, #1
4000fc78:	e3530007 	cmp	r3, #7
4000fc7c:	e2822010 	add	r2, r2, #16
4000fc80:	e5898000 	str	r8, [r9]
4000fc84:	e5897004 	str	r7, [r9, #4]
4000fc88:	e58d3098 	str	r3, [sp, #152]	; 0x98
4000fc8c:	e58d209c 	str	r2, [sp, #156]	; 0x9c
4000fc90:	d2899008 	addle	r9, r9, #8
4000fc94:	dafffff3 	ble	4000fc68 <_vfprintf_r+0xc4c>
4000fc98:	e28d2094 	add	r2, sp, #148	; 0x94
4000fc9c:	e1a01004 	mov	r1, r4
4000fca0:	e1a0000b 	mov	r0, fp
4000fca4:	eb001830 	bl	40015d6c <__sprint_r>
4000fca8:	e3500000 	cmp	r0, #0
4000fcac:	1afffdcc 	bne	4000f3e4 <_vfprintf_r+0x3c8>
4000fcb0:	e2466010 	sub	r6, r6, #16
4000fcb4:	e3560010 	cmp	r6, #16
4000fcb8:	e28d90c8 	add	r9, sp, #200	; 0xc8
4000fcbc:	e59d209c 	ldr	r2, [sp, #156]	; 0x9c
4000fcc0:	e59d3098 	ldr	r3, [sp, #152]	; 0x98
4000fcc4:	caffffea 	bgt	4000fc74 <_vfprintf_r+0xc58>
4000fcc8:	e1a04002 	mov	r4, r2
4000fccc:	e2833001 	add	r3, r3, #1
4000fcd0:	e3530007 	cmp	r3, #7
4000fcd4:	e0844006 	add	r4, r4, r6
4000fcd8:	e5898000 	str	r8, [r9]
4000fcdc:	e5896004 	str	r6, [r9, #4]
4000fce0:	e58d3098 	str	r3, [sp, #152]	; 0x98
4000fce4:	e58d409c 	str	r4, [sp, #156]	; 0x9c
4000fce8:	d2899008 	addle	r9, r9, #8
4000fcec:	da000007 	ble	4000fd10 <_vfprintf_r+0xcf4>
4000fcf0:	e28d2094 	add	r2, sp, #148	; 0x94
4000fcf4:	e59d1018 	ldr	r1, [sp, #24]
4000fcf8:	e59d0028 	ldr	r0, [sp, #40]	; 0x28
4000fcfc:	eb00181a 	bl	40015d6c <__sprint_r>
4000fd00:	e3500000 	cmp	r0, #0
4000fd04:	1afffdb6 	bne	4000f3e4 <_vfprintf_r+0x3c8>
4000fd08:	e59d409c 	ldr	r4, [sp, #156]	; 0x9c
4000fd0c:	e28d90c8 	add	r9, sp, #200	; 0xc8
4000fd10:	e59d301c 	ldr	r3, [sp, #28]
4000fd14:	e3130c01 	tst	r3, #256	; 0x100
4000fd18:	1a00004d 	bne	4000fe54 <_vfprintf_r+0xe38>
4000fd1c:	e59d3098 	ldr	r3, [sp, #152]	; 0x98
4000fd20:	e59d2040 	ldr	r2, [sp, #64]	; 0x40
4000fd24:	e2833001 	add	r3, r3, #1
4000fd28:	e0844005 	add	r4, r4, r5
4000fd2c:	e3530007 	cmp	r3, #7
4000fd30:	e58d409c 	str	r4, [sp, #156]	; 0x9c
4000fd34:	e8890024 	stm	r9, {r2, r5}
4000fd38:	e58d3098 	str	r3, [sp, #152]	; 0x98
4000fd3c:	ca00018d 	bgt	40010378 <_vfprintf_r+0x135c>
4000fd40:	e2899008 	add	r9, r9, #8
4000fd44:	e59d301c 	ldr	r3, [sp, #28]
4000fd48:	e3130004 	tst	r3, #4
4000fd4c:	0a000033 	beq	4000fe20 <_vfprintf_r+0xe04>
4000fd50:	e59d3034 	ldr	r3, [sp, #52]	; 0x34
4000fd54:	e59d2020 	ldr	r2, [sp, #32]
4000fd58:	e0435002 	sub	r5, r3, r2
4000fd5c:	e3550000 	cmp	r5, #0
4000fd60:	da00002e 	ble	4000fe20 <_vfprintf_r+0xe04>
4000fd64:	e3550010 	cmp	r5, #16
4000fd68:	d59d3098 	ldrle	r3, [sp, #152]	; 0x98
4000fd6c:	da00001c 	ble	4000fde4 <_vfprintf_r+0xdc8>
4000fd70:	e3a06010 	mov	r6, #16
4000fd74:	e59d3098 	ldr	r3, [sp, #152]	; 0x98
4000fd78:	e59d7028 	ldr	r7, [sp, #40]	; 0x28
4000fd7c:	e59db018 	ldr	fp, [sp, #24]
4000fd80:	ea000002 	b	4000fd90 <_vfprintf_r+0xd74>
4000fd84:	e2455010 	sub	r5, r5, #16
4000fd88:	e3550010 	cmp	r5, #16
4000fd8c:	da000014 	ble	4000fde4 <_vfprintf_r+0xdc8>
4000fd90:	e2833001 	add	r3, r3, #1
4000fd94:	e59f2330 	ldr	r2, [pc, #816]	; 400100cc <_vfprintf_r+0x10b0>
4000fd98:	e3530007 	cmp	r3, #7
4000fd9c:	e2844010 	add	r4, r4, #16
4000fda0:	e8890044 	stm	r9, {r2, r6}
4000fda4:	e58d3098 	str	r3, [sp, #152]	; 0x98
4000fda8:	e58d409c 	str	r4, [sp, #156]	; 0x9c
4000fdac:	d2899008 	addle	r9, r9, #8
4000fdb0:	dafffff3 	ble	4000fd84 <_vfprintf_r+0xd68>
4000fdb4:	e28d2094 	add	r2, sp, #148	; 0x94
4000fdb8:	e1a0100b 	mov	r1, fp
4000fdbc:	e1a00007 	mov	r0, r7
4000fdc0:	eb0017e9 	bl	40015d6c <__sprint_r>
4000fdc4:	e3500000 	cmp	r0, #0
4000fdc8:	1afffd85 	bne	4000f3e4 <_vfprintf_r+0x3c8>
4000fdcc:	e2455010 	sub	r5, r5, #16
4000fdd0:	e28d3098 	add	r3, sp, #152	; 0x98
4000fdd4:	e3550010 	cmp	r5, #16
4000fdd8:	e28d90c8 	add	r9, sp, #200	; 0xc8
4000fddc:	e8930018 	ldm	r3, {r3, r4}
4000fde0:	caffffea 	bgt	4000fd90 <_vfprintf_r+0xd74>
4000fde4:	e2833001 	add	r3, r3, #1
4000fde8:	e3530007 	cmp	r3, #7
4000fdec:	e58d3098 	str	r3, [sp, #152]	; 0x98
4000fdf0:	e59f32d4 	ldr	r3, [pc, #724]	; 400100cc <_vfprintf_r+0x10b0>
4000fdf4:	e0844005 	add	r4, r4, r5
4000fdf8:	e58d409c 	str	r4, [sp, #156]	; 0x9c
4000fdfc:	e8890028 	stm	r9, {r3, r5}
4000fe00:	da000006 	ble	4000fe20 <_vfprintf_r+0xe04>
4000fe04:	e28d2094 	add	r2, sp, #148	; 0x94
4000fe08:	e59d1018 	ldr	r1, [sp, #24]
4000fe0c:	e59d0028 	ldr	r0, [sp, #40]	; 0x28
4000fe10:	eb0017d5 	bl	40015d6c <__sprint_r>
4000fe14:	e3500000 	cmp	r0, #0
4000fe18:	1afffd71 	bne	4000f3e4 <_vfprintf_r+0x3c8>
4000fe1c:	e59d409c 	ldr	r4, [sp, #156]	; 0x9c
4000fe20:	e59d302c 	ldr	r3, [sp, #44]	; 0x2c
4000fe24:	e59d2034 	ldr	r2, [sp, #52]	; 0x34
4000fe28:	e59d1020 	ldr	r1, [sp, #32]
4000fe2c:	e1520001 	cmp	r2, r1
4000fe30:	a0833002 	addge	r3, r3, r2
4000fe34:	b0833001 	addlt	r3, r3, r1
4000fe38:	e3540000 	cmp	r4, #0
4000fe3c:	e58d302c 	str	r3, [sp, #44]	; 0x2c
4000fe40:	1a0000ea 	bne	400101f0 <_vfprintf_r+0x11d4>
4000fe44:	e3a03000 	mov	r3, #0
4000fe48:	e28d90c8 	add	r9, sp, #200	; 0xc8
4000fe4c:	e58d3098 	str	r3, [sp, #152]	; 0x98
4000fe50:	eafffca8 	b	4000f0f8 <_vfprintf_r+0xdc>
4000fe54:	e59d3044 	ldr	r3, [sp, #68]	; 0x44
4000fe58:	e3530065 	cmp	r3, #101	; 0x65
4000fe5c:	da0000a5 	ble	400100f8 <_vfprintf_r+0x10dc>
4000fe60:	e28d0050 	add	r0, sp, #80	; 0x50
4000fe64:	e890000f 	ldm	r0, {r0, r1, r2, r3}
4000fe68:	ebffc98e 	bl	400024a8 <__aeabi_dcmpeq>
4000fe6c:	e3500000 	cmp	r0, #0
4000fe70:	0a000149 	beq	4001039c <_vfprintf_r+0x1380>
4000fe74:	e3a02001 	mov	r2, #1
4000fe78:	e59d3098 	ldr	r3, [sp, #152]	; 0x98
4000fe7c:	e59f1260 	ldr	r1, [pc, #608]	; 400100e4 <_vfprintf_r+0x10c8>
4000fe80:	e0833002 	add	r3, r3, r2
4000fe84:	e0844002 	add	r4, r4, r2
4000fe88:	e3530007 	cmp	r3, #7
4000fe8c:	e5891000 	str	r1, [r9]
4000fe90:	e5892004 	str	r2, [r9, #4]
4000fe94:	e58d409c 	str	r4, [sp, #156]	; 0x9c
4000fe98:	e58d3098 	str	r3, [sp, #152]	; 0x98
4000fe9c:	d2899008 	addle	r9, r9, #8
4000fea0:	ca000339 	bgt	40010b8c <_vfprintf_r+0x1b70>
4000fea4:	e59d307c 	ldr	r3, [sp, #124]	; 0x7c
4000fea8:	e59d204c 	ldr	r2, [sp, #76]	; 0x4c
4000feac:	e1530002 	cmp	r3, r2
4000feb0:	ba000002 	blt	4000fec0 <_vfprintf_r+0xea4>
4000feb4:	e59d301c 	ldr	r3, [sp, #28]
4000feb8:	e3130001 	tst	r3, #1
4000febc:	0a0000c9 	beq	400101e8 <_vfprintf_r+0x11cc>
4000fec0:	e28d3098 	add	r3, sp, #152	; 0x98
4000fec4:	e8930018 	ldm	r3, {r3, r4}
4000fec8:	e59d2060 	ldr	r2, [sp, #96]	; 0x60
4000fecc:	e2833001 	add	r3, r3, #1
4000fed0:	e59d1068 	ldr	r1, [sp, #104]	; 0x68
4000fed4:	e3530007 	cmp	r3, #7
4000fed8:	e0824004 	add	r4, r2, r4
4000fedc:	e8890006 	stm	r9, {r1, r2}
4000fee0:	e58d3098 	str	r3, [sp, #152]	; 0x98
4000fee4:	e58d409c 	str	r4, [sp, #156]	; 0x9c
4000fee8:	d2899008 	addle	r9, r9, #8
4000feec:	ca000366 	bgt	40010c8c <_vfprintf_r+0x1c70>
4000fef0:	e59d304c 	ldr	r3, [sp, #76]	; 0x4c
4000fef4:	e2435001 	sub	r5, r3, #1
4000fef8:	e3550000 	cmp	r5, #0
4000fefc:	daffff90 	ble	4000fd44 <_vfprintf_r+0xd28>
4000ff00:	e3550010 	cmp	r5, #16
4000ff04:	da000184 	ble	4001051c <_vfprintf_r+0x1500>
4000ff08:	e3a06010 	mov	r6, #16
4000ff0c:	e59d3098 	ldr	r3, [sp, #152]	; 0x98
4000ff10:	e59d7028 	ldr	r7, [sp, #40]	; 0x28
4000ff14:	e59db018 	ldr	fp, [sp, #24]
4000ff18:	ea000002 	b	4000ff28 <_vfprintf_r+0xf0c>
4000ff1c:	e2455010 	sub	r5, r5, #16
4000ff20:	e3550010 	cmp	r5, #16
4000ff24:	da00017d 	ble	40010520 <_vfprintf_r+0x1504>
4000ff28:	e2833001 	add	r3, r3, #1
4000ff2c:	e3530007 	cmp	r3, #7
4000ff30:	e2844010 	add	r4, r4, #16
4000ff34:	e5898000 	str	r8, [r9]
4000ff38:	e5896004 	str	r6, [r9, #4]
4000ff3c:	e58d3098 	str	r3, [sp, #152]	; 0x98
4000ff40:	e58d409c 	str	r4, [sp, #156]	; 0x9c
4000ff44:	d2899008 	addle	r9, r9, #8
4000ff48:	dafffff3 	ble	4000ff1c <_vfprintf_r+0xf00>
4000ff4c:	e28d2094 	add	r2, sp, #148	; 0x94
4000ff50:	e1a0100b 	mov	r1, fp
4000ff54:	e1a00007 	mov	r0, r7
4000ff58:	eb001783 	bl	40015d6c <__sprint_r>
4000ff5c:	e3500000 	cmp	r0, #0
4000ff60:	1afffd1f 	bne	4000f3e4 <_vfprintf_r+0x3c8>
4000ff64:	e28d3098 	add	r3, sp, #152	; 0x98
4000ff68:	e28d90c8 	add	r9, sp, #200	; 0xc8
4000ff6c:	e8930018 	ldm	r3, {r3, r4}
4000ff70:	eaffffe9 	b	4000ff1c <_vfprintf_r+0xf00>
4000ff74:	e1a01002 	mov	r1, r2
4000ff78:	e1a021a6 	lsr	r2, r6, #3
4000ff7c:	e1822e87 	orr	r2, r2, r7, lsl #29
4000ff80:	e1a001a7 	lsr	r0, r7, #3
4000ff84:	e2063007 	and	r3, r6, #7
4000ff88:	e1a07000 	mov	r7, r0
4000ff8c:	e1a06002 	mov	r6, r2
4000ff90:	e2833030 	add	r3, r3, #48	; 0x30
4000ff94:	e1962007 	orrs	r2, r6, r7
4000ff98:	e5413001 	strb	r3, [r1, #-1]
4000ff9c:	e2412001 	sub	r2, r1, #1
4000ffa0:	1afffff3 	bne	4000ff74 <_vfprintf_r+0xf58>
4000ffa4:	e3530030 	cmp	r3, #48	; 0x30
4000ffa8:	03a03000 	moveq	r3, #0
4000ffac:	120b3001 	andne	r3, fp, #1
4000ffb0:	e3530000 	cmp	r3, #0
4000ffb4:	0a0002fc 	beq	40010bac <_vfprintf_r+0x1b90>
4000ffb8:	e3a03030 	mov	r3, #48	; 0x30
4000ffbc:	e2411002 	sub	r1, r1, #2
4000ffc0:	e28d00c8 	add	r0, sp, #200	; 0xc8
4000ffc4:	e58d1040 	str	r1, [sp, #64]	; 0x40
4000ffc8:	e58db01c 	str	fp, [sp, #28]
4000ffcc:	e0405001 	sub	r5, r0, r1
4000ffd0:	e5423001 	strb	r3, [r2, #-1]
4000ffd4:	eafffd31 	b	4000f4a0 <_vfprintf_r+0x484>
4000ffd8:	e28d30c8 	add	r3, sp, #200	; 0xc8
4000ffdc:	e58d3040 	str	r3, [sp, #64]	; 0x40
4000ffe0:	eafffd2e 	b	4000f4a0 <_vfprintf_r+0x484>
4000ffe4:	e59d3034 	ldr	r3, [sp, #52]	; 0x34
4000ffe8:	e59d2020 	ldr	r2, [sp, #32]
4000ffec:	e0436002 	sub	r6, r3, r2
4000fff0:	e3560000 	cmp	r6, #0
4000fff4:	daffff0e 	ble	4000fc34 <_vfprintf_r+0xc18>
4000fff8:	e3560010 	cmp	r6, #16
4000fffc:	d59d3098 	ldrle	r3, [sp, #152]	; 0x98
40010000:	da00001e 	ble	40010080 <_vfprintf_r+0x1064>
40010004:	e1a02004 	mov	r2, r4
40010008:	e3a07010 	mov	r7, #16
4001000c:	e59d3098 	ldr	r3, [sp, #152]	; 0x98
40010010:	e59db028 	ldr	fp, [sp, #40]	; 0x28
40010014:	e59d4018 	ldr	r4, [sp, #24]
40010018:	ea000002 	b	40010028 <_vfprintf_r+0x100c>
4001001c:	e2466010 	sub	r6, r6, #16
40010020:	e3560010 	cmp	r6, #16
40010024:	da000014 	ble	4001007c <_vfprintf_r+0x1060>
40010028:	e2833001 	add	r3, r3, #1
4001002c:	e3530007 	cmp	r3, #7
40010030:	e2822010 	add	r2, r2, #16
40010034:	e5898000 	str	r8, [r9]
40010038:	e5897004 	str	r7, [r9, #4]
4001003c:	e58d3098 	str	r3, [sp, #152]	; 0x98
40010040:	e58d209c 	str	r2, [sp, #156]	; 0x9c
40010044:	d2899008 	addle	r9, r9, #8
40010048:	dafffff3 	ble	4001001c <_vfprintf_r+0x1000>
4001004c:	e28d2094 	add	r2, sp, #148	; 0x94
40010050:	e1a01004 	mov	r1, r4
40010054:	e1a0000b 	mov	r0, fp
40010058:	eb001743 	bl	40015d6c <__sprint_r>
4001005c:	e3500000 	cmp	r0, #0
40010060:	1afffcdf 	bne	4000f3e4 <_vfprintf_r+0x3c8>
40010064:	e2466010 	sub	r6, r6, #16
40010068:	e3560010 	cmp	r6, #16
4001006c:	e28d90c8 	add	r9, sp, #200	; 0xc8
40010070:	e59d209c 	ldr	r2, [sp, #156]	; 0x9c
40010074:	e59d3098 	ldr	r3, [sp, #152]	; 0x98
40010078:	caffffea 	bgt	40010028 <_vfprintf_r+0x100c>
4001007c:	e1a04002 	mov	r4, r2
40010080:	e2833001 	add	r3, r3, #1
40010084:	e3530007 	cmp	r3, #7
40010088:	e0844006 	add	r4, r4, r6
4001008c:	e5898000 	str	r8, [r9]
40010090:	e5896004 	str	r6, [r9, #4]
40010094:	e58d3098 	str	r3, [sp, #152]	; 0x98
40010098:	e58d409c 	str	r4, [sp, #156]	; 0x9c
4001009c:	d2899008 	addle	r9, r9, #8
400100a0:	dafffee3 	ble	4000fc34 <_vfprintf_r+0xc18>
400100a4:	e28d2094 	add	r2, sp, #148	; 0x94
400100a8:	e59d1018 	ldr	r1, [sp, #24]
400100ac:	e59d0028 	ldr	r0, [sp, #40]	; 0x28
400100b0:	eb00172d 	bl	40015d6c <__sprint_r>
400100b4:	e3500000 	cmp	r0, #0
400100b8:	1afffcc9 	bne	4000f3e4 <_vfprintf_r+0x3c8>
400100bc:	e28d90c8 	add	r9, sp, #200	; 0xc8
400100c0:	e59d409c 	ldr	r4, [sp, #156]	; 0x9c
400100c4:	eafffeda 	b	4000fc34 <_vfprintf_r+0xc18>
400100c8:	40019854 	.word	0x40019854
400100cc:	40019844 	.word	0x40019844
400100d0:	40019824 	.word	0x40019824
400100d4:	40019810 	.word	0x40019810
400100d8:	7fefffff 	.word	0x7fefffff
400100dc:	40019800 	.word	0x40019800
400100e0:	40019804 	.word	0x40019804
400100e4:	40019840 	.word	0x40019840
400100e8:	66666667 	.word	0x66666667
400100ec:	40019838 	.word	0x40019838
400100f0:	40019808 	.word	0x40019808
400100f4:	4001980c 	.word	0x4001980c
400100f8:	e59d304c 	ldr	r3, [sp, #76]	; 0x4c
400100fc:	e3530001 	cmp	r3, #1
40010100:	da000178 	ble	400106e8 <_vfprintf_r+0x16cc>
40010104:	e3a03001 	mov	r3, #1
40010108:	e59d5098 	ldr	r5, [sp, #152]	; 0x98
4001010c:	e59d2040 	ldr	r2, [sp, #64]	; 0x40
40010110:	e0855003 	add	r5, r5, r3
40010114:	e0844003 	add	r4, r4, r3
40010118:	e3550007 	cmp	r5, #7
4001011c:	e5892000 	str	r2, [r9]
40010120:	e5893004 	str	r3, [r9, #4]
40010124:	e58d409c 	str	r4, [sp, #156]	; 0x9c
40010128:	e58d5098 	str	r5, [sp, #152]	; 0x98
4001012c:	d2899008 	addle	r9, r9, #8
40010130:	ca000184 	bgt	40010748 <_vfprintf_r+0x172c>
40010134:	e59d3060 	ldr	r3, [sp, #96]	; 0x60
40010138:	e2855001 	add	r5, r5, #1
4001013c:	e59d2068 	ldr	r2, [sp, #104]	; 0x68
40010140:	e3550007 	cmp	r5, #7
40010144:	e0834004 	add	r4, r3, r4
40010148:	e889000c 	stm	r9, {r2, r3}
4001014c:	e58d5098 	str	r5, [sp, #152]	; 0x98
40010150:	e58d409c 	str	r4, [sp, #156]	; 0x9c
40010154:	d2899008 	addle	r9, r9, #8
40010158:	ca000198 	bgt	400107c0 <_vfprintf_r+0x17a4>
4001015c:	e28d0050 	add	r0, sp, #80	; 0x50
40010160:	e890000f 	ldm	r0, {r0, r1, r2, r3}
40010164:	ebffc8cf 	bl	400024a8 <__aeabi_dcmpeq>
40010168:	e3500000 	cmp	r0, #0
4001016c:	1a0000c2 	bne	4001047c <_vfprintf_r+0x1460>
40010170:	e59d304c 	ldr	r3, [sp, #76]	; 0x4c
40010174:	e59d2040 	ldr	r2, [sp, #64]	; 0x40
40010178:	e2855001 	add	r5, r5, #1
4001017c:	e2433001 	sub	r3, r3, #1
40010180:	e2822001 	add	r2, r2, #1
40010184:	e0844003 	add	r4, r4, r3
40010188:	e3550007 	cmp	r5, #7
4001018c:	e58d5098 	str	r5, [sp, #152]	; 0x98
40010190:	e5892000 	str	r2, [r9]
40010194:	e58d409c 	str	r4, [sp, #156]	; 0x9c
40010198:	e5893004 	str	r3, [r9, #4]
4001019c:	ca00017d 	bgt	40010798 <_vfprintf_r+0x177c>
400101a0:	e2899008 	add	r9, r9, #8
400101a4:	e59d206c 	ldr	r2, [sp, #108]	; 0x6c
400101a8:	e2855001 	add	r5, r5, #1
400101ac:	e0824004 	add	r4, r2, r4
400101b0:	e28d3084 	add	r3, sp, #132	; 0x84
400101b4:	e3550007 	cmp	r5, #7
400101b8:	e58d5098 	str	r5, [sp, #152]	; 0x98
400101bc:	e58d409c 	str	r4, [sp, #156]	; 0x9c
400101c0:	e5892004 	str	r2, [r9, #4]
400101c4:	e5893000 	str	r3, [r9]
400101c8:	dafffedc 	ble	4000fd40 <_vfprintf_r+0xd24>
400101cc:	e28d2094 	add	r2, sp, #148	; 0x94
400101d0:	e59d1018 	ldr	r1, [sp, #24]
400101d4:	e59d0028 	ldr	r0, [sp, #40]	; 0x28
400101d8:	eb0016e3 	bl	40015d6c <__sprint_r>
400101dc:	e3500000 	cmp	r0, #0
400101e0:	1afffc7f 	bne	4000f3e4 <_vfprintf_r+0x3c8>
400101e4:	e28d90c8 	add	r9, sp, #200	; 0xc8
400101e8:	e59d409c 	ldr	r4, [sp, #156]	; 0x9c
400101ec:	eafffed4 	b	4000fd44 <_vfprintf_r+0xd28>
400101f0:	e28d2094 	add	r2, sp, #148	; 0x94
400101f4:	e59d1018 	ldr	r1, [sp, #24]
400101f8:	e59d0028 	ldr	r0, [sp, #40]	; 0x28
400101fc:	eb0016da 	bl	40015d6c <__sprint_r>
40010200:	e3500000 	cmp	r0, #0
40010204:	0affff0e 	beq	4000fe44 <_vfprintf_r+0xe28>
40010208:	eafffc75 	b	4000f3e4 <_vfprintf_r+0x3c8>
4001020c:	e3530001 	cmp	r3, #1
40010210:	e1a0b002 	mov	fp, r2
40010214:	1afffd91 	bne	4000f860 <_vfprintf_r+0x844>
40010218:	e3570000 	cmp	r7, #0
4001021c:	03560009 	cmpeq	r6, #9
40010220:	8a000170 	bhi	400107e8 <_vfprintf_r+0x17cc>
40010224:	e28d2f42 	add	r2, sp, #264	; 0x108
40010228:	e2866030 	add	r6, r6, #48	; 0x30
4001022c:	e5626041 	strb	r6, [r2, #-65]!	; 0xffffffbf
40010230:	e58db01c 	str	fp, [sp, #28]
40010234:	e1a05003 	mov	r5, r3
40010238:	e58d2040 	str	r2, [sp, #64]	; 0x40
4001023c:	eafffc97 	b	4000f4a0 <_vfprintf_r+0x484>
40010240:	e28d2094 	add	r2, sp, #148	; 0x94
40010244:	e59d1018 	ldr	r1, [sp, #24]
40010248:	e59d0028 	ldr	r0, [sp, #40]	; 0x28
4001024c:	eb0016c6 	bl	40015d6c <__sprint_r>
40010250:	e3500000 	cmp	r0, #0
40010254:	1afffc62 	bne	4000f3e4 <_vfprintf_r+0x3c8>
40010258:	e28d90c8 	add	r9, sp, #200	; 0xc8
4001025c:	e59d409c 	ldr	r4, [sp, #156]	; 0x9c
40010260:	eafffe62 	b	4000fbf0 <_vfprintf_r+0xbd4>
40010264:	e28d2094 	add	r2, sp, #148	; 0x94
40010268:	e59d1018 	ldr	r1, [sp, #24]
4001026c:	e59d0028 	ldr	r0, [sp, #40]	; 0x28
40010270:	eb0016bd 	bl	40015d6c <__sprint_r>
40010274:	e3500000 	cmp	r0, #0
40010278:	1afffc59 	bne	4000f3e4 <_vfprintf_r+0x3c8>
4001027c:	e28d90c8 	add	r9, sp, #200	; 0xc8
40010280:	e59d409c 	ldr	r4, [sp, #156]	; 0x9c
40010284:	eafffe67 	b	4000fc28 <_vfprintf_r+0xc0c>
40010288:	e3a02001 	mov	r2, #1
4001028c:	e59d3098 	ldr	r3, [sp, #152]	; 0x98
40010290:	e51f11b4 	ldr	r1, [pc, #-436]	; 400100e4 <_vfprintf_r+0x10c8>
40010294:	e0833002 	add	r3, r3, r2
40010298:	e0844002 	add	r4, r4, r2
4001029c:	e3530007 	cmp	r3, #7
400102a0:	e5891000 	str	r1, [r9]
400102a4:	e5892004 	str	r2, [r9, #4]
400102a8:	e58d409c 	str	r4, [sp, #156]	; 0x9c
400102ac:	e58d3098 	str	r3, [sp, #152]	; 0x98
400102b0:	d2899008 	addle	r9, r9, #8
400102b4:	da000008 	ble	400102dc <_vfprintf_r+0x12c0>
400102b8:	e28d2094 	add	r2, sp, #148	; 0x94
400102bc:	e59d1018 	ldr	r1, [sp, #24]
400102c0:	e59d0028 	ldr	r0, [sp, #40]	; 0x28
400102c4:	eb0016a8 	bl	40015d6c <__sprint_r>
400102c8:	e3500000 	cmp	r0, #0
400102cc:	1afffc44 	bne	4000f3e4 <_vfprintf_r+0x3c8>
400102d0:	e59d507c 	ldr	r5, [sp, #124]	; 0x7c
400102d4:	e59d409c 	ldr	r4, [sp, #156]	; 0x9c
400102d8:	e28d90c8 	add	r9, sp, #200	; 0xc8
400102dc:	e59d304c 	ldr	r3, [sp, #76]	; 0x4c
400102e0:	e1933005 	orrs	r3, r3, r5
400102e4:	1a000002 	bne	400102f4 <_vfprintf_r+0x12d8>
400102e8:	e59d301c 	ldr	r3, [sp, #28]
400102ec:	e3130001 	tst	r3, #1
400102f0:	0afffe93 	beq	4000fd44 <_vfprintf_r+0xd28>
400102f4:	e59d3098 	ldr	r3, [sp, #152]	; 0x98
400102f8:	e59d2060 	ldr	r2, [sp, #96]	; 0x60
400102fc:	e2833001 	add	r3, r3, #1
40010300:	e59d1068 	ldr	r1, [sp, #104]	; 0x68
40010304:	e0824004 	add	r4, r2, r4
40010308:	e3530007 	cmp	r3, #7
4001030c:	e8890006 	stm	r9, {r1, r2}
40010310:	e58d409c 	str	r4, [sp, #156]	; 0x9c
40010314:	e58d3098 	str	r3, [sp, #152]	; 0x98
40010318:	d2899008 	addle	r9, r9, #8
4001031c:	da000009 	ble	40010348 <_vfprintf_r+0x132c>
40010320:	e28d2094 	add	r2, sp, #148	; 0x94
40010324:	e59d1018 	ldr	r1, [sp, #24]
40010328:	e59d0028 	ldr	r0, [sp, #40]	; 0x28
4001032c:	eb00168e 	bl	40015d6c <__sprint_r>
40010330:	e3500000 	cmp	r0, #0
40010334:	1afffc2a 	bne	4000f3e4 <_vfprintf_r+0x3c8>
40010338:	e28d3098 	add	r3, sp, #152	; 0x98
4001033c:	e59d507c 	ldr	r5, [sp, #124]	; 0x7c
40010340:	e8930018 	ldm	r3, {r3, r4}
40010344:	e28d90c8 	add	r9, sp, #200	; 0xc8
40010348:	e3550000 	cmp	r5, #0
4001034c:	ba0002e0 	blt	40010ed4 <_vfprintf_r+0x1eb8>
40010350:	e2833001 	add	r3, r3, #1
40010354:	e59d204c 	ldr	r2, [sp, #76]	; 0x4c
40010358:	e3530007 	cmp	r3, #7
4001035c:	e58d3098 	str	r3, [sp, #152]	; 0x98
40010360:	e59d3040 	ldr	r3, [sp, #64]	; 0x40
40010364:	e0824004 	add	r4, r2, r4
40010368:	e58d409c 	str	r4, [sp, #156]	; 0x9c
4001036c:	e5893000 	str	r3, [r9]
40010370:	e5892004 	str	r2, [r9, #4]
40010374:	dafffe71 	ble	4000fd40 <_vfprintf_r+0xd24>
40010378:	e28d2094 	add	r2, sp, #148	; 0x94
4001037c:	e59d1018 	ldr	r1, [sp, #24]
40010380:	e59d0028 	ldr	r0, [sp, #40]	; 0x28
40010384:	eb001678 	bl	40015d6c <__sprint_r>
40010388:	e3500000 	cmp	r0, #0
4001038c:	1afffc14 	bne	4000f3e4 <_vfprintf_r+0x3c8>
40010390:	e59d409c 	ldr	r4, [sp, #156]	; 0x9c
40010394:	e28d90c8 	add	r9, sp, #200	; 0xc8
40010398:	eafffe69 	b	4000fd44 <_vfprintf_r+0xd28>
4001039c:	e59d507c 	ldr	r5, [sp, #124]	; 0x7c
400103a0:	e3550000 	cmp	r5, #0
400103a4:	daffffb7 	ble	40010288 <_vfprintf_r+0x126c>
400103a8:	e59d3048 	ldr	r3, [sp, #72]	; 0x48
400103ac:	e59d204c 	ldr	r2, [sp, #76]	; 0x4c
400103b0:	e1530002 	cmp	r3, r2
400103b4:	b1a05003 	movlt	r5, r3
400103b8:	a1a05002 	movge	r5, r2
400103bc:	e3550000 	cmp	r5, #0
400103c0:	da000009 	ble	400103ec <_vfprintf_r+0x13d0>
400103c4:	e59d3098 	ldr	r3, [sp, #152]	; 0x98
400103c8:	e59d2040 	ldr	r2, [sp, #64]	; 0x40
400103cc:	e2833001 	add	r3, r3, #1
400103d0:	e0844005 	add	r4, r4, r5
400103d4:	e3530007 	cmp	r3, #7
400103d8:	e8890024 	stm	r9, {r2, r5}
400103dc:	e58d409c 	str	r4, [sp, #156]	; 0x9c
400103e0:	e58d3098 	str	r3, [sp, #152]	; 0x98
400103e4:	d2899008 	addle	r9, r9, #8
400103e8:	ca00027b 	bgt	40010ddc <_vfprintf_r+0x1dc0>
400103ec:	e59d3048 	ldr	r3, [sp, #72]	; 0x48
400103f0:	e3550000 	cmp	r5, #0
400103f4:	a0433005 	subge	r3, r3, r5
400103f8:	e3530000 	cmp	r3, #0
400103fc:	e1a05003 	mov	r5, r3
40010400:	da000066 	ble	400105a0 <_vfprintf_r+0x1584>
40010404:	e3530010 	cmp	r3, #16
40010408:	d59d3098 	ldrle	r3, [sp, #152]	; 0x98
4001040c:	da000052 	ble	4001055c <_vfprintf_r+0x1540>
40010410:	e3a06010 	mov	r6, #16
40010414:	e59d3098 	ldr	r3, [sp, #152]	; 0x98
40010418:	e59d7028 	ldr	r7, [sp, #40]	; 0x28
4001041c:	e59db018 	ldr	fp, [sp, #24]
40010420:	ea000002 	b	40010430 <_vfprintf_r+0x1414>
40010424:	e2455010 	sub	r5, r5, #16
40010428:	e3550010 	cmp	r5, #16
4001042c:	da00004a 	ble	4001055c <_vfprintf_r+0x1540>
40010430:	e2833001 	add	r3, r3, #1
40010434:	e3530007 	cmp	r3, #7
40010438:	e2844010 	add	r4, r4, #16
4001043c:	e5898000 	str	r8, [r9]
40010440:	e5896004 	str	r6, [r9, #4]
40010444:	e58d3098 	str	r3, [sp, #152]	; 0x98
40010448:	e58d409c 	str	r4, [sp, #156]	; 0x9c
4001044c:	d2899008 	addle	r9, r9, #8
40010450:	dafffff3 	ble	40010424 <_vfprintf_r+0x1408>
40010454:	e28d2094 	add	r2, sp, #148	; 0x94
40010458:	e1a0100b 	mov	r1, fp
4001045c:	e1a00007 	mov	r0, r7
40010460:	eb001641 	bl	40015d6c <__sprint_r>
40010464:	e3500000 	cmp	r0, #0
40010468:	1afffbdd 	bne	4000f3e4 <_vfprintf_r+0x3c8>
4001046c:	e28d3098 	add	r3, sp, #152	; 0x98
40010470:	e28d90c8 	add	r9, sp, #200	; 0xc8
40010474:	e8930018 	ldm	r3, {r3, r4}
40010478:	eaffffe9 	b	40010424 <_vfprintf_r+0x1408>
4001047c:	e59d304c 	ldr	r3, [sp, #76]	; 0x4c
40010480:	e2436001 	sub	r6, r3, #1
40010484:	e3560000 	cmp	r6, #0
40010488:	daffff45 	ble	400101a4 <_vfprintf_r+0x1188>
4001048c:	e3560010 	cmp	r6, #16
40010490:	da0000b8 	ble	40010778 <_vfprintf_r+0x175c>
40010494:	e58da024 	str	sl, [sp, #36]	; 0x24
40010498:	e3a07010 	mov	r7, #16
4001049c:	e1a0a006 	mov	sl, r6
400104a0:	e59db028 	ldr	fp, [sp, #40]	; 0x28
400104a4:	e59d6018 	ldr	r6, [sp, #24]
400104a8:	ea000002 	b	400104b8 <_vfprintf_r+0x149c>
400104ac:	e24aa010 	sub	sl, sl, #16
400104b0:	e35a0010 	cmp	sl, #16
400104b4:	da0000ad 	ble	40010770 <_vfprintf_r+0x1754>
400104b8:	e2855001 	add	r5, r5, #1
400104bc:	e3550007 	cmp	r5, #7
400104c0:	e2844010 	add	r4, r4, #16
400104c4:	e5898000 	str	r8, [r9]
400104c8:	e5897004 	str	r7, [r9, #4]
400104cc:	e58d5098 	str	r5, [sp, #152]	; 0x98
400104d0:	e58d409c 	str	r4, [sp, #156]	; 0x9c
400104d4:	d2899008 	addle	r9, r9, #8
400104d8:	dafffff3 	ble	400104ac <_vfprintf_r+0x1490>
400104dc:	e28d2094 	add	r2, sp, #148	; 0x94
400104e0:	e1a01006 	mov	r1, r6
400104e4:	e1a0000b 	mov	r0, fp
400104e8:	eb00161f 	bl	40015d6c <__sprint_r>
400104ec:	e3500000 	cmp	r0, #0
400104f0:	1afffbbb 	bne	4000f3e4 <_vfprintf_r+0x3c8>
400104f4:	e28d90c8 	add	r9, sp, #200	; 0xc8
400104f8:	e59d409c 	ldr	r4, [sp, #156]	; 0x9c
400104fc:	e59d5098 	ldr	r5, [sp, #152]	; 0x98
40010500:	eaffffe9 	b	400104ac <_vfprintf_r+0x1490>
40010504:	e5926000 	ldr	r6, [r2]
40010508:	e2822004 	add	r2, r2, #4
4001050c:	e1a03005 	mov	r3, r5
40010510:	e58d2038 	str	r2, [sp, #56]	; 0x38
40010514:	e3a07000 	mov	r7, #0
40010518:	eafffbca 	b	4000f448 <_vfprintf_r+0x42c>
4001051c:	e59d3098 	ldr	r3, [sp, #152]	; 0x98
40010520:	e2833001 	add	r3, r3, #1
40010524:	e0844005 	add	r4, r4, r5
40010528:	e3530007 	cmp	r3, #7
4001052c:	e58d3098 	str	r3, [sp, #152]	; 0x98
40010530:	e58d409c 	str	r4, [sp, #156]	; 0x9c
40010534:	e5898000 	str	r8, [r9]
40010538:	e5895004 	str	r5, [r9, #4]
4001053c:	dafffdff 	ble	4000fd40 <_vfprintf_r+0xd24>
40010540:	eaffff8c 	b	40010378 <_vfprintf_r+0x135c>
40010544:	e2822004 	add	r2, r2, #4
40010548:	e5936000 	ldr	r6, [r3]
4001054c:	e3a07000 	mov	r7, #0
40010550:	e3a03001 	mov	r3, #1
40010554:	e58d2038 	str	r2, [sp, #56]	; 0x38
40010558:	eafffbba 	b	4000f448 <_vfprintf_r+0x42c>
4001055c:	e2833001 	add	r3, r3, #1
40010560:	e3530007 	cmp	r3, #7
40010564:	e0844005 	add	r4, r4, r5
40010568:	e5898000 	str	r8, [r9]
4001056c:	e5895004 	str	r5, [r9, #4]
40010570:	e58d3098 	str	r3, [sp, #152]	; 0x98
40010574:	e58d409c 	str	r4, [sp, #156]	; 0x9c
40010578:	d2899008 	addle	r9, r9, #8
4001057c:	da000007 	ble	400105a0 <_vfprintf_r+0x1584>
40010580:	e28d2094 	add	r2, sp, #148	; 0x94
40010584:	e59d1018 	ldr	r1, [sp, #24]
40010588:	e59d0028 	ldr	r0, [sp, #40]	; 0x28
4001058c:	eb0015f6 	bl	40015d6c <__sprint_r>
40010590:	e3500000 	cmp	r0, #0
40010594:	1afffb92 	bne	4000f3e4 <_vfprintf_r+0x3c8>
40010598:	e59d409c 	ldr	r4, [sp, #156]	; 0x9c
4001059c:	e28d90c8 	add	r9, sp, #200	; 0xc8
400105a0:	e59d207c 	ldr	r2, [sp, #124]	; 0x7c
400105a4:	e59d304c 	ldr	r3, [sp, #76]	; 0x4c
400105a8:	e1520003 	cmp	r2, r3
400105ac:	ba000038 	blt	40010694 <_vfprintf_r+0x1678>
400105b0:	e59d301c 	ldr	r3, [sp, #28]
400105b4:	e3130001 	tst	r3, #1
400105b8:	1a000035 	bne	40010694 <_vfprintf_r+0x1678>
400105bc:	e59d304c 	ldr	r3, [sp, #76]	; 0x4c
400105c0:	e59d0048 	ldr	r0, [sp, #72]	; 0x48
400105c4:	e0432002 	sub	r2, r3, r2
400105c8:	e0435000 	sub	r5, r3, r0
400105cc:	e1550002 	cmp	r5, r2
400105d0:	a1a05002 	movge	r5, r2
400105d4:	e3550000 	cmp	r5, #0
400105d8:	da00000b 	ble	4001060c <_vfprintf_r+0x15f0>
400105dc:	e59d1098 	ldr	r1, [sp, #152]	; 0x98
400105e0:	e59dc040 	ldr	ip, [sp, #64]	; 0x40
400105e4:	e2811001 	add	r1, r1, #1
400105e8:	e08c3000 	add	r3, ip, r0
400105ec:	e0844005 	add	r4, r4, r5
400105f0:	e3510007 	cmp	r1, #7
400105f4:	e5893000 	str	r3, [r9]
400105f8:	e5895004 	str	r5, [r9, #4]
400105fc:	e58d409c 	str	r4, [sp, #156]	; 0x9c
40010600:	e58d1098 	str	r1, [sp, #152]	; 0x98
40010604:	d2899008 	addle	r9, r9, #8
40010608:	ca0001fc 	bgt	40010e00 <_vfprintf_r+0x1de4>
4001060c:	e3550000 	cmp	r5, #0
40010610:	b1a05002 	movlt	r5, r2
40010614:	a0425005 	subge	r5, r2, r5
40010618:	e3550000 	cmp	r5, #0
4001061c:	dafffdc8 	ble	4000fd44 <_vfprintf_r+0xd28>
40010620:	e3550010 	cmp	r5, #16
40010624:	daffffbc 	ble	4001051c <_vfprintf_r+0x1500>
40010628:	e3a06010 	mov	r6, #16
4001062c:	e59d3098 	ldr	r3, [sp, #152]	; 0x98
40010630:	e59d7028 	ldr	r7, [sp, #40]	; 0x28
40010634:	e59db018 	ldr	fp, [sp, #24]
40010638:	ea000002 	b	40010648 <_vfprintf_r+0x162c>
4001063c:	e2455010 	sub	r5, r5, #16
40010640:	e3550010 	cmp	r5, #16
40010644:	daffffb5 	ble	40010520 <_vfprintf_r+0x1504>
40010648:	e2833001 	add	r3, r3, #1
4001064c:	e3530007 	cmp	r3, #7
40010650:	e2844010 	add	r4, r4, #16
40010654:	e5898000 	str	r8, [r9]
40010658:	e5896004 	str	r6, [r9, #4]
4001065c:	e58d3098 	str	r3, [sp, #152]	; 0x98
40010660:	e58d409c 	str	r4, [sp, #156]	; 0x9c
40010664:	d2899008 	addle	r9, r9, #8
40010668:	dafffff3 	ble	4001063c <_vfprintf_r+0x1620>
4001066c:	e28d2094 	add	r2, sp, #148	; 0x94
40010670:	e1a0100b 	mov	r1, fp
40010674:	e1a00007 	mov	r0, r7
40010678:	eb0015bb 	bl	40015d6c <__sprint_r>
4001067c:	e3500000 	cmp	r0, #0
40010680:	1afffb57 	bne	4000f3e4 <_vfprintf_r+0x3c8>
40010684:	e28d3098 	add	r3, sp, #152	; 0x98
40010688:	e28d90c8 	add	r9, sp, #200	; 0xc8
4001068c:	e8930018 	ldm	r3, {r3, r4}
40010690:	eaffffe9 	b	4001063c <_vfprintf_r+0x1620>
40010694:	e59d3098 	ldr	r3, [sp, #152]	; 0x98
40010698:	e59d1060 	ldr	r1, [sp, #96]	; 0x60
4001069c:	e2833001 	add	r3, r3, #1
400106a0:	e59d0068 	ldr	r0, [sp, #104]	; 0x68
400106a4:	e0844001 	add	r4, r4, r1
400106a8:	e3530007 	cmp	r3, #7
400106ac:	e8890003 	stm	r9, {r0, r1}
400106b0:	e58d409c 	str	r4, [sp, #156]	; 0x9c
400106b4:	e58d3098 	str	r3, [sp, #152]	; 0x98
400106b8:	d2899008 	addle	r9, r9, #8
400106bc:	daffffbe 	ble	400105bc <_vfprintf_r+0x15a0>
400106c0:	e28d2094 	add	r2, sp, #148	; 0x94
400106c4:	e59d1018 	ldr	r1, [sp, #24]
400106c8:	e59d0028 	ldr	r0, [sp, #40]	; 0x28
400106cc:	eb0015a6 	bl	40015d6c <__sprint_r>
400106d0:	e3500000 	cmp	r0, #0
400106d4:	1afffb42 	bne	4000f3e4 <_vfprintf_r+0x3c8>
400106d8:	e28d90c8 	add	r9, sp, #200	; 0xc8
400106dc:	e59d207c 	ldr	r2, [sp, #124]	; 0x7c
400106e0:	e59d409c 	ldr	r4, [sp, #156]	; 0x9c
400106e4:	eaffffb4 	b	400105bc <_vfprintf_r+0x15a0>
400106e8:	e59d301c 	ldr	r3, [sp, #28]
400106ec:	e3130001 	tst	r3, #1
400106f0:	1afffe83 	bne	40010104 <_vfprintf_r+0x10e8>
400106f4:	e3a03001 	mov	r3, #1
400106f8:	e59d5098 	ldr	r5, [sp, #152]	; 0x98
400106fc:	e59d2040 	ldr	r2, [sp, #64]	; 0x40
40010700:	e0855003 	add	r5, r5, r3
40010704:	e0844003 	add	r4, r4, r3
40010708:	e3550007 	cmp	r5, #7
4001070c:	e58d409c 	str	r4, [sp, #156]	; 0x9c
40010710:	e5892000 	str	r2, [r9]
40010714:	e58d5098 	str	r5, [sp, #152]	; 0x98
40010718:	e5893004 	str	r3, [r9, #4]
4001071c:	dafffe9f 	ble	400101a0 <_vfprintf_r+0x1184>
40010720:	e28d2094 	add	r2, sp, #148	; 0x94
40010724:	e59d1018 	ldr	r1, [sp, #24]
40010728:	e59d0028 	ldr	r0, [sp, #40]	; 0x28
4001072c:	eb00158e 	bl	40015d6c <__sprint_r>
40010730:	e3500000 	cmp	r0, #0
40010734:	1afffb2a 	bne	4000f3e4 <_vfprintf_r+0x3c8>
40010738:	e28d90c8 	add	r9, sp, #200	; 0xc8
4001073c:	e59d409c 	ldr	r4, [sp, #156]	; 0x9c
40010740:	e59d5098 	ldr	r5, [sp, #152]	; 0x98
40010744:	eafffe96 	b	400101a4 <_vfprintf_r+0x1188>
40010748:	e28d2094 	add	r2, sp, #148	; 0x94
4001074c:	e59d1018 	ldr	r1, [sp, #24]
40010750:	e59d0028 	ldr	r0, [sp, #40]	; 0x28
40010754:	eb001584 	bl	40015d6c <__sprint_r>
40010758:	e3500000 	cmp	r0, #0
4001075c:	1afffb20 	bne	4000f3e4 <_vfprintf_r+0x3c8>
40010760:	e28d90c8 	add	r9, sp, #200	; 0xc8
40010764:	e59d409c 	ldr	r4, [sp, #156]	; 0x9c
40010768:	e59d5098 	ldr	r5, [sp, #152]	; 0x98
4001076c:	eafffe70 	b	40010134 <_vfprintf_r+0x1118>
40010770:	e1a0600a 	mov	r6, sl
40010774:	e59da024 	ldr	sl, [sp, #36]	; 0x24
40010778:	e2855001 	add	r5, r5, #1
4001077c:	e0844006 	add	r4, r4, r6
40010780:	e3550007 	cmp	r5, #7
40010784:	e58d5098 	str	r5, [sp, #152]	; 0x98
40010788:	e58d409c 	str	r4, [sp, #156]	; 0x9c
4001078c:	e5898000 	str	r8, [r9]
40010790:	e5896004 	str	r6, [r9, #4]
40010794:	dafffe81 	ble	400101a0 <_vfprintf_r+0x1184>
40010798:	e28d2094 	add	r2, sp, #148	; 0x94
4001079c:	e59d1018 	ldr	r1, [sp, #24]
400107a0:	e59d0028 	ldr	r0, [sp, #40]	; 0x28
400107a4:	eb001570 	bl	40015d6c <__sprint_r>
400107a8:	e3500000 	cmp	r0, #0
400107ac:	1afffb0c 	bne	4000f3e4 <_vfprintf_r+0x3c8>
400107b0:	e59d409c 	ldr	r4, [sp, #156]	; 0x9c
400107b4:	e59d5098 	ldr	r5, [sp, #152]	; 0x98
400107b8:	e28d90c8 	add	r9, sp, #200	; 0xc8
400107bc:	eafffe78 	b	400101a4 <_vfprintf_r+0x1188>
400107c0:	e28d2094 	add	r2, sp, #148	; 0x94
400107c4:	e59d1018 	ldr	r1, [sp, #24]
400107c8:	e59d0028 	ldr	r0, [sp, #40]	; 0x28
400107cc:	eb001566 	bl	40015d6c <__sprint_r>
400107d0:	e3500000 	cmp	r0, #0
400107d4:	1afffb02 	bne	4000f3e4 <_vfprintf_r+0x3c8>
400107d8:	e28d90c8 	add	r9, sp, #200	; 0xc8
400107dc:	e59d409c 	ldr	r4, [sp, #156]	; 0x9c
400107e0:	e59d5098 	ldr	r5, [sp, #152]	; 0x98
400107e4:	eafffe5c 	b	4001015c <_vfprintf_r+0x1140>
400107e8:	e28d30c8 	add	r3, sp, #200	; 0xc8
400107ec:	e58d901c 	str	r9, [sp, #28]
400107f0:	e3a0400a 	mov	r4, #10
400107f4:	e3a05000 	mov	r5, #0
400107f8:	e1a09003 	mov	r9, r3
400107fc:	e1a00006 	mov	r0, r6
40010800:	e1a01007 	mov	r1, r7
40010804:	e1a02004 	mov	r2, r4
40010808:	e1a03005 	mov	r3, r5
4001080c:	ebffc768 	bl	400025b4 <__aeabi_uldivmod>
40010810:	e2822030 	add	r2, r2, #48	; 0x30
40010814:	e5692001 	strb	r2, [r9, #-1]!
40010818:	e1a00006 	mov	r0, r6
4001081c:	e1a01007 	mov	r1, r7
40010820:	e1a03005 	mov	r3, r5
40010824:	e1a02004 	mov	r2, r4
40010828:	ebffc761 	bl	400025b4 <__aeabi_uldivmod>
4001082c:	e1a06000 	mov	r6, r0
40010830:	e1a07001 	mov	r7, r1
40010834:	e1963007 	orrs	r3, r6, r7
40010838:	1affffef 	bne	400107fc <_vfprintf_r+0x17e0>
4001083c:	e1a03009 	mov	r3, r9
40010840:	e28d20c8 	add	r2, sp, #200	; 0xc8
40010844:	e58d9040 	str	r9, [sp, #64]	; 0x40
40010848:	e0425003 	sub	r5, r2, r3
4001084c:	e59d901c 	ldr	r9, [sp, #28]
40010850:	e58db01c 	str	fp, [sp, #28]
40010854:	eafffb11 	b	4000f4a0 <_vfprintf_r+0x484>
40010858:	e3a0302d 	mov	r3, #45	; 0x2d
4001085c:	e2766000 	rsbs	r6, r6, #0
40010860:	e5cd3077 	strb	r3, [sp, #119]	; 0x77
40010864:	e58d3030 	str	r3, [sp, #48]	; 0x30
40010868:	e2e77000 	rsc	r7, r7, #0
4001086c:	e3a03001 	mov	r3, #1
40010870:	eafffaf7 	b	4000f454 <_vfprintf_r+0x438>
40010874:	e59d1038 	ldr	r1, [sp, #56]	; 0x38
40010878:	e5916000 	ldr	r6, [r1]
4001087c:	e2811004 	add	r1, r1, #4
40010880:	e1a07fc6 	asr	r7, r6, #31
40010884:	e1a02006 	mov	r2, r6
40010888:	e1a03007 	mov	r3, r7
4001088c:	e58d1038 	str	r1, [sp, #56]	; 0x38
40010890:	eafffbe7 	b	4000f834 <_vfprintf_r+0x818>
40010894:	e59dc050 	ldr	ip, [sp, #80]	; 0x50
40010898:	e1a0200c 	mov	r2, ip
4001089c:	e1a0000c 	mov	r0, ip
400108a0:	e59dc054 	ldr	ip, [sp, #84]	; 0x54
400108a4:	e1a0300c 	mov	r3, ip
400108a8:	e1a0100c 	mov	r1, ip
400108ac:	ebffc71b 	bl	40002520 <__aeabi_dcmpun>
400108b0:	e3500000 	cmp	r0, #0
400108b4:	1a0001c5 	bne	40010fd0 <_vfprintf_r+0x1fb4>
400108b8:	e59d3024 	ldr	r3, [sp, #36]	; 0x24
400108bc:	e3730001 	cmn	r3, #1
400108c0:	e59d3044 	ldr	r3, [sp, #68]	; 0x44
400108c4:	e3c35020 	bic	r5, r3, #32
400108c8:	03a03006 	moveq	r3, #6
400108cc:	058d3024 	streq	r3, [sp, #36]	; 0x24
400108d0:	0a000021 	beq	4001095c <_vfprintf_r+0x1940>
400108d4:	e59d3024 	ldr	r3, [sp, #36]	; 0x24
400108d8:	e3550047 	cmp	r5, #71	; 0x47
400108dc:	03530000 	cmpeq	r3, #0
400108e0:	1a00001d 	bne	4001095c <_vfprintf_r+0x1940>
400108e4:	e59d3054 	ldr	r3, [sp, #84]	; 0x54
400108e8:	e2536000 	subs	r6, r3, #0
400108ec:	e38b3c01 	orr	r3, fp, #256	; 0x100
400108f0:	e58d301c 	str	r3, [sp, #28]
400108f4:	ba0000db 	blt	40010c68 <_vfprintf_r+0x1c4c>
400108f8:	e3a03001 	mov	r3, #1
400108fc:	e3a05047 	mov	r5, #71	; 0x47
40010900:	e58d0030 	str	r0, [sp, #48]	; 0x30
40010904:	e59d7050 	ldr	r7, [sp, #80]	; 0x50
40010908:	e58d3024 	str	r3, [sp, #36]	; 0x24
4001090c:	e3a00002 	mov	r0, #2
40010910:	e59dc024 	ldr	ip, [sp, #36]	; 0x24
40010914:	e28d108c 	add	r1, sp, #140	; 0x8c
40010918:	e88d1001 	stm	sp, {r0, ip}
4001091c:	e58d1010 	str	r1, [sp, #16]
40010920:	e28d0080 	add	r0, sp, #128	; 0x80
40010924:	e28d107c 	add	r1, sp, #124	; 0x7c
40010928:	e58d000c 	str	r0, [sp, #12]
4001092c:	e1a02007 	mov	r2, r7
40010930:	e1a03006 	mov	r3, r6
40010934:	e58d1008 	str	r1, [sp, #8]
40010938:	e59d0028 	ldr	r0, [sp, #40]	; 0x28
4001093c:	eb0003f7 	bl	40011920 <_dtoa_r>
40010940:	e3550047 	cmp	r5, #71	; 0x47
40010944:	e58d0040 	str	r0, [sp, #64]	; 0x40
40010948:	159d4024 	ldrne	r4, [sp, #36]	; 0x24
4001094c:	0a000198 	beq	40010fb4 <_vfprintf_r+0x1f98>
40010950:	e59d3040 	ldr	r3, [sp, #64]	; 0x40
40010954:	e0834004 	add	r4, r3, r4
40010958:	ea00002e 	b	40010a18 <_vfprintf_r+0x19fc>
4001095c:	e59d3054 	ldr	r3, [sp, #84]	; 0x54
40010960:	e2536000 	subs	r6, r3, #0
40010964:	e38b3c01 	orr	r3, fp, #256	; 0x100
40010968:	e58d301c 	str	r3, [sp, #28]
4001096c:	ba0000c0 	blt	40010c74 <_vfprintf_r+0x1c58>
40010970:	e3a03000 	mov	r3, #0
40010974:	e59d7050 	ldr	r7, [sp, #80]	; 0x50
40010978:	e58d3030 	str	r3, [sp, #48]	; 0x30
4001097c:	e3550046 	cmp	r5, #70	; 0x46
40010980:	1a0000ca 	bne	40010cb0 <_vfprintf_r+0x1c94>
40010984:	e3a0e003 	mov	lr, #3
40010988:	e59d4024 	ldr	r4, [sp, #36]	; 0x24
4001098c:	e28dc08c 	add	ip, sp, #140	; 0x8c
40010990:	e28d107c 	add	r1, sp, #124	; 0x7c
40010994:	e28d0080 	add	r0, sp, #128	; 0x80
40010998:	e1a02007 	mov	r2, r7
4001099c:	e1a03006 	mov	r3, r6
400109a0:	e58d4004 	str	r4, [sp, #4]
400109a4:	e58de000 	str	lr, [sp]
400109a8:	e58dc010 	str	ip, [sp, #16]
400109ac:	e58d000c 	str	r0, [sp, #12]
400109b0:	e58d1008 	str	r1, [sp, #8]
400109b4:	e59d0028 	ldr	r0, [sp, #40]	; 0x28
400109b8:	eb0003d8 	bl	40011920 <_dtoa_r>
400109bc:	e1a0c000 	mov	ip, r0
400109c0:	e5dc4000 	ldrb	r4, [ip]
400109c4:	e244c030 	sub	ip, r4, #48	; 0x30
400109c8:	e27c4000 	rsbs	r4, ip, #0
400109cc:	e58d0040 	str	r0, [sp, #64]	; 0x40
400109d0:	e59d305c 	ldr	r3, [sp, #92]	; 0x5c
400109d4:	e59d2058 	ldr	r2, [sp, #88]	; 0x58
400109d8:	e1a00007 	mov	r0, r7
400109dc:	e1a01006 	mov	r1, r6
400109e0:	e0a4400c 	adc	r4, r4, ip
400109e4:	ebffc6af 	bl	400024a8 <__aeabi_dcmpeq>
400109e8:	e3500000 	cmp	r0, #0
400109ec:	e3a03001 	mov	r3, #1
400109f0:	13a03000 	movne	r3, #0
400109f4:	e1140003 	tst	r4, r3
400109f8:	0a000129 	beq	40010ea4 <_vfprintf_r+0x1e88>
400109fc:	e59d3024 	ldr	r3, [sp, #36]	; 0x24
40010a00:	e2633001 	rsb	r3, r3, #1
40010a04:	e58d307c 	str	r3, [sp, #124]	; 0x7c
40010a08:	e59d2024 	ldr	r2, [sp, #36]	; 0x24
40010a0c:	e0833002 	add	r3, r3, r2
40010a10:	e59d2040 	ldr	r2, [sp, #64]	; 0x40
40010a14:	e0824003 	add	r4, r2, r3
40010a18:	e59d305c 	ldr	r3, [sp, #92]	; 0x5c
40010a1c:	e59d2058 	ldr	r2, [sp, #88]	; 0x58
40010a20:	e1a00007 	mov	r0, r7
40010a24:	e1a01006 	mov	r1, r6
40010a28:	ebffc69e 	bl	400024a8 <__aeabi_dcmpeq>
40010a2c:	e3500000 	cmp	r0, #0
40010a30:	11a03004 	movne	r3, r4
40010a34:	1a000009 	bne	40010a60 <_vfprintf_r+0x1a44>
40010a38:	e59d308c 	ldr	r3, [sp, #140]	; 0x8c
40010a3c:	e1540003 	cmp	r4, r3
40010a40:	9a000006 	bls	40010a60 <_vfprintf_r+0x1a44>
40010a44:	e3a01030 	mov	r1, #48	; 0x30
40010a48:	e2832001 	add	r2, r3, #1
40010a4c:	e58d208c 	str	r2, [sp, #140]	; 0x8c
40010a50:	e5c31000 	strb	r1, [r3]
40010a54:	e59d308c 	ldr	r3, [sp, #140]	; 0x8c
40010a58:	e1540003 	cmp	r4, r3
40010a5c:	8afffff9 	bhi	40010a48 <_vfprintf_r+0x1a2c>
40010a60:	e59d2040 	ldr	r2, [sp, #64]	; 0x40
40010a64:	e3550047 	cmp	r5, #71	; 0x47
40010a68:	e0433002 	sub	r3, r3, r2
40010a6c:	e58d304c 	str	r3, [sp, #76]	; 0x4c
40010a70:	1a0000c4 	bne	40010d88 <_vfprintf_r+0x1d6c>
40010a74:	e59d307c 	ldr	r3, [sp, #124]	; 0x7c
40010a78:	e3730003 	cmn	r3, #3
40010a7c:	e1a02003 	mov	r2, r3
40010a80:	e58d3048 	str	r3, [sp, #72]	; 0x48
40010a84:	a3a03000 	movge	r3, #0
40010a88:	b3a03001 	movlt	r3, #1
40010a8c:	e59d1024 	ldr	r1, [sp, #36]	; 0x24
40010a90:	e1520001 	cmp	r2, r1
40010a94:	c3833001 	orrgt	r3, r3, #1
40010a98:	e3530000 	cmp	r3, #0
40010a9c:	0a000096 	beq	40010cfc <_vfprintf_r+0x1ce0>
40010aa0:	e59d3044 	ldr	r3, [sp, #68]	; 0x44
40010aa4:	e2433002 	sub	r3, r3, #2
40010aa8:	e58d3044 	str	r3, [sp, #68]	; 0x44
40010aac:	e59d3048 	ldr	r3, [sp, #72]	; 0x48
40010ab0:	e5dd2044 	ldrb	r2, [sp, #68]	; 0x44
40010ab4:	e2433001 	sub	r3, r3, #1
40010ab8:	e3530000 	cmp	r3, #0
40010abc:	e5cd2084 	strb	r2, [sp, #132]	; 0x84
40010ac0:	b3a0202d 	movlt	r2, #45	; 0x2d
40010ac4:	a3a0202b 	movge	r2, #43	; 0x2b
40010ac8:	e58d307c 	str	r3, [sp, #124]	; 0x7c
40010acc:	b59d3048 	ldrlt	r3, [sp, #72]	; 0x48
40010ad0:	b2633001 	rsblt	r3, r3, #1
40010ad4:	e3530009 	cmp	r3, #9
40010ad8:	c28dc093 	addgt	ip, sp, #147	; 0x93
40010adc:	e5cd2085 	strb	r2, [sp, #133]	; 0x85
40010ae0:	c1a0000c 	movgt	r0, ip
40010ae4:	ca000041 	bgt	40010bf0 <_vfprintf_r+0x1bd4>
40010ae8:	e3a02030 	mov	r2, #48	; 0x30
40010aec:	e0833002 	add	r3, r3, r2
40010af0:	e5cd2086 	strb	r2, [sp, #134]	; 0x86
40010af4:	e5cd3087 	strb	r3, [sp, #135]	; 0x87
40010af8:	e28d3088 	add	r3, sp, #136	; 0x88
40010afc:	e59d104c 	ldr	r1, [sp, #76]	; 0x4c
40010b00:	e28d2084 	add	r2, sp, #132	; 0x84
40010b04:	e0433002 	sub	r3, r3, r2
40010b08:	e3510001 	cmp	r1, #1
40010b0c:	e58d306c 	str	r3, [sp, #108]	; 0x6c
40010b10:	e0815003 	add	r5, r1, r3
40010b14:	da00013f 	ble	40011018 <_vfprintf_r+0x1ffc>
40010b18:	e59d3060 	ldr	r3, [sp, #96]	; 0x60
40010b1c:	e0855003 	add	r5, r5, r3
40010b20:	e1c53fc5 	bic	r3, r5, r5, asr #31
40010b24:	e58d3020 	str	r3, [sp, #32]
40010b28:	e3a03000 	mov	r3, #0
40010b2c:	e58d3048 	str	r3, [sp, #72]	; 0x48
40010b30:	e59d3030 	ldr	r3, [sp, #48]	; 0x30
40010b34:	e3530000 	cmp	r3, #0
40010b38:	1a00007f 	bne	40010d3c <_vfprintf_r+0x1d20>
40010b3c:	e58d3024 	str	r3, [sp, #36]	; 0x24
40010b40:	e5dd3077 	ldrb	r3, [sp, #119]	; 0x77
40010b44:	e58d3030 	str	r3, [sp, #48]	; 0x30
40010b48:	eafffa5a 	b	4000f4b8 <_vfprintf_r+0x49c>
40010b4c:	e3c44007 	bic	r4, r4, #7
40010b50:	e5943000 	ldr	r3, [r4]
40010b54:	e58d3050 	str	r3, [sp, #80]	; 0x50
40010b58:	e5943004 	ldr	r3, [r4, #4]
40010b5c:	e58d3054 	str	r3, [sp, #84]	; 0x54
40010b60:	e2843008 	add	r3, r4, #8
40010b64:	e58d3038 	str	r3, [sp, #56]	; 0x38
40010b68:	eafffbac 	b	4000fa20 <_vfprintf_r+0xa04>
40010b6c:	e5936000 	ldr	r6, [r3]
40010b70:	e2833004 	add	r3, r3, #4
40010b74:	e58d3038 	str	r3, [sp, #56]	; 0x38
40010b78:	e3a07000 	mov	r7, #0
40010b7c:	eafffac1 	b	4000f688 <_vfprintf_r+0x66c>
40010b80:	e59d3038 	ldr	r3, [sp, #56]	; 0x38
40010b84:	e5936000 	ldr	r6, [r3]
40010b88:	eafffb24 	b	4000f820 <_vfprintf_r+0x804>
40010b8c:	e28d2094 	add	r2, sp, #148	; 0x94
40010b90:	e59d1018 	ldr	r1, [sp, #24]
40010b94:	e59d0028 	ldr	r0, [sp, #40]	; 0x28
40010b98:	eb001473 	bl	40015d6c <__sprint_r>
40010b9c:	e3500000 	cmp	r0, #0
40010ba0:	1afffa0f 	bne	4000f3e4 <_vfprintf_r+0x3c8>
40010ba4:	e28d90c8 	add	r9, sp, #200	; 0xc8
40010ba8:	eafffcbd 	b	4000fea4 <_vfprintf_r+0xe88>
40010bac:	e28d30c8 	add	r3, sp, #200	; 0xc8
40010bb0:	e58db01c 	str	fp, [sp, #28]
40010bb4:	e0435002 	sub	r5, r3, r2
40010bb8:	e58d2040 	str	r2, [sp, #64]	; 0x40
40010bbc:	eafffa37 	b	4000f4a0 <_vfprintf_r+0x484>
40010bc0:	e3e03000 	mvn	r3, #0
40010bc4:	e58d302c 	str	r3, [sp, #44]	; 0x2c
40010bc8:	eafffa09 	b	4000f3f4 <_vfprintf_r+0x3d8>
40010bcc:	e59d3038 	ldr	r3, [sp, #56]	; 0x38
40010bd0:	e59d202c 	ldr	r2, [sp, #44]	; 0x2c
40010bd4:	e5931000 	ldr	r1, [r3]
40010bd8:	e2833004 	add	r3, r3, #4
40010bdc:	e58d3038 	str	r3, [sp, #56]	; 0x38
40010be0:	e1a03fc2 	asr	r3, r2, #31
40010be4:	e881000c 	stm	r1, {r2, r3}
40010be8:	eafff942 	b	4000f0f8 <_vfprintf_r+0xdc>
40010bec:	e1a00002 	mov	r0, r2
40010bf0:	e51f2b10 	ldr	r2, [pc, #-2832]	; 400100e8 <_vfprintf_r+0x10cc>
40010bf4:	e0c21293 	smull	r1, r2, r3, r2
40010bf8:	e1a01fc3 	asr	r1, r3, #31
40010bfc:	e0611142 	rsb	r1, r1, r2, asr #2
40010c00:	e0812101 	add	r2, r1, r1, lsl #2
40010c04:	e0432082 	sub	r2, r3, r2, lsl #1
40010c08:	e2822030 	add	r2, r2, #48	; 0x30
40010c0c:	e3510009 	cmp	r1, #9
40010c10:	e5402001 	strb	r2, [r0, #-1]
40010c14:	e1a03001 	mov	r3, r1
40010c18:	e2402001 	sub	r2, r0, #1
40010c1c:	cafffff2 	bgt	40010bec <_vfprintf_r+0x1bd0>
40010c20:	e2813030 	add	r3, r1, #48	; 0x30
40010c24:	e2400002 	sub	r0, r0, #2
40010c28:	e20310ff 	and	r1, r3, #255	; 0xff
40010c2c:	e15c0000 	cmp	ip, r0
40010c30:	e5421001 	strb	r1, [r2, #-1]
40010c34:	9a000114 	bls	4001108c <_vfprintf_r+0x2070>
40010c38:	e28d0086 	add	r0, sp, #134	; 0x86
40010c3c:	e1a03002 	mov	r3, r2
40010c40:	ea000000 	b	40010c48 <_vfprintf_r+0x1c2c>
40010c44:	e4d31001 	ldrb	r1, [r3], #1
40010c48:	e153000c 	cmp	r3, ip
40010c4c:	e4c01001 	strb	r1, [r0], #1
40010c50:	1afffffb 	bne	40010c44 <_vfprintf_r+0x1c28>
40010c54:	e2833001 	add	r3, r3, #1
40010c58:	e0433002 	sub	r3, r3, r2
40010c5c:	e28d2086 	add	r2, sp, #134	; 0x86
40010c60:	e0823003 	add	r3, r2, r3
40010c64:	eaffffa4 	b	40010afc <_vfprintf_r+0x1ae0>
40010c68:	e3a03001 	mov	r3, #1
40010c6c:	e3a05047 	mov	r5, #71	; 0x47
40010c70:	e58d3024 	str	r3, [sp, #36]	; 0x24
40010c74:	e59d3054 	ldr	r3, [sp, #84]	; 0x54
40010c78:	e2836102 	add	r6, r3, #-2147483648	; 0x80000000
40010c7c:	e3a0302d 	mov	r3, #45	; 0x2d
40010c80:	e59d7050 	ldr	r7, [sp, #80]	; 0x50
40010c84:	e58d3030 	str	r3, [sp, #48]	; 0x30
40010c88:	eaffff3b 	b	4001097c <_vfprintf_r+0x1960>
40010c8c:	e28d2094 	add	r2, sp, #148	; 0x94
40010c90:	e59d1018 	ldr	r1, [sp, #24]
40010c94:	e59d0028 	ldr	r0, [sp, #40]	; 0x28
40010c98:	eb001433 	bl	40015d6c <__sprint_r>
40010c9c:	e3500000 	cmp	r0, #0
40010ca0:	1afff9cf 	bne	4000f3e4 <_vfprintf_r+0x3c8>
40010ca4:	e28d90c8 	add	r9, sp, #200	; 0xc8
40010ca8:	e59d409c 	ldr	r4, [sp, #156]	; 0x9c
40010cac:	eafffc8f 	b	4000fef0 <_vfprintf_r+0xed4>
40010cb0:	e3550045 	cmp	r5, #69	; 0x45
40010cb4:	1affff14 	bne	4001090c <_vfprintf_r+0x18f0>
40010cb8:	e3a00002 	mov	r0, #2
40010cbc:	e59d1024 	ldr	r1, [sp, #36]	; 0x24
40010cc0:	e2814001 	add	r4, r1, #1
40010cc4:	e28d108c 	add	r1, sp, #140	; 0x8c
40010cc8:	e58d0000 	str	r0, [sp]
40010ccc:	e58d1010 	str	r1, [sp, #16]
40010cd0:	e28d0080 	add	r0, sp, #128	; 0x80
40010cd4:	e28d107c 	add	r1, sp, #124	; 0x7c
40010cd8:	e58d000c 	str	r0, [sp, #12]
40010cdc:	e1a02007 	mov	r2, r7
40010ce0:	e1a03006 	mov	r3, r6
40010ce4:	e58d4004 	str	r4, [sp, #4]
40010ce8:	e58d1008 	str	r1, [sp, #8]
40010cec:	e59d0028 	ldr	r0, [sp, #40]	; 0x28
40010cf0:	eb00030a 	bl	40011920 <_dtoa_r>
40010cf4:	e58d0040 	str	r0, [sp, #64]	; 0x40
40010cf8:	eaffff14 	b	40010950 <_vfprintf_r+0x1934>
40010cfc:	e59d204c 	ldr	r2, [sp, #76]	; 0x4c
40010d00:	e59d3048 	ldr	r3, [sp, #72]	; 0x48
40010d04:	e1520003 	cmp	r2, r3
40010d08:	ca000058 	bgt	40010e70 <_vfprintf_r+0x1e54>
40010d0c:	e31b0001 	tst	fp, #1
40010d10:	159d3048 	ldrne	r3, [sp, #72]	; 0x48
40010d14:	159d2060 	ldrne	r2, [sp, #96]	; 0x60
40010d18:	10835002 	addne	r5, r3, r2
40010d1c:	11c53fc5 	bicne	r3, r5, r5, asr #31
40010d20:	01c32fc3 	biceq	r2, r3, r3, asr #31
40010d24:	01a05003 	moveq	r5, r3
40010d28:	158d3020 	strne	r3, [sp, #32]
40010d2c:	e3a03067 	mov	r3, #103	; 0x67
40010d30:	058d2020 	streq	r2, [sp, #32]
40010d34:	e58d3044 	str	r3, [sp, #68]	; 0x44
40010d38:	eaffff7c 	b	40010b30 <_vfprintf_r+0x1b14>
40010d3c:	e3a0b02d 	mov	fp, #45	; 0x2d
40010d40:	e3a03000 	mov	r3, #0
40010d44:	e5cdb077 	strb	fp, [sp, #119]	; 0x77
40010d48:	e58d3024 	str	r3, [sp, #36]	; 0x24
40010d4c:	e58db030 	str	fp, [sp, #48]	; 0x30
40010d50:	eafff9db 	b	4000f4c4 <_vfprintf_r+0x4a8>
40010d54:	e59d0040 	ldr	r0, [sp, #64]	; 0x40
40010d58:	e58d5024 	str	r5, [sp, #36]	; 0x24
40010d5c:	ebfff03c 	bl	4000ce54 <strlen>
40010d60:	e1a06005 	mov	r6, r5
40010d64:	e1c03fc0 	bic	r3, r0, r0, asr #31
40010d68:	e58d3020 	str	r3, [sp, #32]
40010d6c:	e5dd3077 	ldrb	r3, [sp, #119]	; 0x77
40010d70:	e1a05000 	mov	r5, r0
40010d74:	e58d4038 	str	r4, [sp, #56]	; 0x38
40010d78:	e58db01c 	str	fp, [sp, #28]
40010d7c:	e58d6048 	str	r6, [sp, #72]	; 0x48
40010d80:	e58d3030 	str	r3, [sp, #48]	; 0x30
40010d84:	eafff9cb 	b	4000f4b8 <_vfprintf_r+0x49c>
40010d88:	e59d3044 	ldr	r3, [sp, #68]	; 0x44
40010d8c:	e3530065 	cmp	r3, #101	; 0x65
40010d90:	da0000bf 	ble	40011094 <_vfprintf_r+0x2078>
40010d94:	e59d3044 	ldr	r3, [sp, #68]	; 0x44
40010d98:	e3530066 	cmp	r3, #102	; 0x66
40010d9c:	e59d307c 	ldr	r3, [sp, #124]	; 0x7c
40010da0:	e58d3048 	str	r3, [sp, #72]	; 0x48
40010da4:	1affffd4 	bne	40010cfc <_vfprintf_r+0x1ce0>
40010da8:	e3530000 	cmp	r3, #0
40010dac:	da00009d 	ble	40011028 <_vfprintf_r+0x200c>
40010db0:	e59d2024 	ldr	r2, [sp, #36]	; 0x24
40010db4:	e3520000 	cmp	r2, #0
40010db8:	1a000075 	bne	40010f94 <_vfprintf_r+0x1f78>
40010dbc:	e31b0001 	tst	fp, #1
40010dc0:	1a000073 	bne	40010f94 <_vfprintf_r+0x1f78>
40010dc4:	e58d3020 	str	r3, [sp, #32]
40010dc8:	e1a05003 	mov	r5, r3
40010dcc:	eaffff57 	b	40010b30 <_vfprintf_r+0x1b14>
40010dd0:	e28d2098 	add	r2, sp, #152	; 0x98
40010dd4:	e8920014 	ldm	r2, {r2, r4}
40010dd8:	eafff9f2 	b	4000f5a8 <_vfprintf_r+0x58c>
40010ddc:	e28d2094 	add	r2, sp, #148	; 0x94
40010de0:	e59d1018 	ldr	r1, [sp, #24]
40010de4:	e59d0028 	ldr	r0, [sp, #40]	; 0x28
40010de8:	eb0013df 	bl	40015d6c <__sprint_r>
40010dec:	e3500000 	cmp	r0, #0
40010df0:	1afff97b 	bne	4000f3e4 <_vfprintf_r+0x3c8>
40010df4:	e28d90c8 	add	r9, sp, #200	; 0xc8
40010df8:	e59d409c 	ldr	r4, [sp, #156]	; 0x9c
40010dfc:	eafffd7a 	b	400103ec <_vfprintf_r+0x13d0>
40010e00:	e28d2094 	add	r2, sp, #148	; 0x94
40010e04:	e59d1018 	ldr	r1, [sp, #24]
40010e08:	e59d0028 	ldr	r0, [sp, #40]	; 0x28
40010e0c:	eb0013d6 	bl	40015d6c <__sprint_r>
40010e10:	e3500000 	cmp	r0, #0
40010e14:	1afff972 	bne	4000f3e4 <_vfprintf_r+0x3c8>
40010e18:	e59d207c 	ldr	r2, [sp, #124]	; 0x7c
40010e1c:	e59d304c 	ldr	r3, [sp, #76]	; 0x4c
40010e20:	e28d90c8 	add	r9, sp, #200	; 0xc8
40010e24:	e59d409c 	ldr	r4, [sp, #156]	; 0x9c
40010e28:	e0432002 	sub	r2, r3, r2
40010e2c:	eafffdf6 	b	4001060c <_vfprintf_r+0x15f0>
40010e30:	e3530006 	cmp	r3, #6
40010e34:	23a03006 	movcs	r3, #6
40010e38:	e1a05003 	mov	r5, r3
40010e3c:	e58d3020 	str	r3, [sp, #32]
40010e40:	e51f3d5c 	ldr	r3, [pc, #-3420]	; 400100ec <_vfprintf_r+0x10d0>
40010e44:	e58d2024 	str	r2, [sp, #36]	; 0x24
40010e48:	e58d4038 	str	r4, [sp, #56]	; 0x38
40010e4c:	e58db01c 	str	fp, [sp, #28]
40010e50:	e58d2030 	str	r2, [sp, #48]	; 0x30
40010e54:	e58d2048 	str	r2, [sp, #72]	; 0x48
40010e58:	e58d3040 	str	r3, [sp, #64]	; 0x40
40010e5c:	eafff995 	b	4000f4b8 <_vfprintf_r+0x49c>
40010e60:	e3a0302d 	mov	r3, #45	; 0x2d
40010e64:	e58d3030 	str	r3, [sp, #48]	; 0x30
40010e68:	e5cd3077 	strb	r3, [sp, #119]	; 0x77
40010e6c:	eafffb03 	b	4000fa80 <_vfprintf_r+0xa64>
40010e70:	e59d3048 	ldr	r3, [sp, #72]	; 0x48
40010e74:	e59d2060 	ldr	r2, [sp, #96]	; 0x60
40010e78:	e3530000 	cmp	r3, #0
40010e7c:	e59d304c 	ldr	r3, [sp, #76]	; 0x4c
40010e80:	e0835002 	add	r5, r3, r2
40010e84:	d59d3048 	ldrle	r3, [sp, #72]	; 0x48
40010e88:	d2633001 	rsble	r3, r3, #1
40010e8c:	d0855003 	addle	r5, r5, r3
40010e90:	e1c53fc5 	bic	r3, r5, r5, asr #31
40010e94:	e58d3020 	str	r3, [sp, #32]
40010e98:	e3a03067 	mov	r3, #103	; 0x67
40010e9c:	e58d3044 	str	r3, [sp, #68]	; 0x44
40010ea0:	eaffff22 	b	40010b30 <_vfprintf_r+0x1b14>
40010ea4:	e59d307c 	ldr	r3, [sp, #124]	; 0x7c
40010ea8:	eafffed6 	b	40010a08 <_vfprintf_r+0x19ec>
40010eac:	e59d3024 	ldr	r3, [sp, #36]	; 0x24
40010eb0:	e58d3020 	str	r3, [sp, #32]
40010eb4:	e1a05003 	mov	r5, r3
40010eb8:	e5dd3077 	ldrb	r3, [sp, #119]	; 0x77
40010ebc:	e58d0024 	str	r0, [sp, #36]	; 0x24
40010ec0:	e58d4038 	str	r4, [sp, #56]	; 0x38
40010ec4:	e58db01c 	str	fp, [sp, #28]
40010ec8:	e58d0048 	str	r0, [sp, #72]	; 0x48
40010ecc:	e58d3030 	str	r3, [sp, #48]	; 0x30
40010ed0:	eafff978 	b	4000f4b8 <_vfprintf_r+0x49c>
40010ed4:	e3750010 	cmn	r5, #16
40010ed8:	e2655000 	rsb	r5, r5, #0
40010edc:	aa000019 	bge	40010f48 <_vfprintf_r+0x1f2c>
40010ee0:	e3a06010 	mov	r6, #16
40010ee4:	e59d7028 	ldr	r7, [sp, #40]	; 0x28
40010ee8:	e59db018 	ldr	fp, [sp, #24]
40010eec:	ea000002 	b	40010efc <_vfprintf_r+0x1ee0>
40010ef0:	e2455010 	sub	r5, r5, #16
40010ef4:	e3550010 	cmp	r5, #16
40010ef8:	da000012 	ble	40010f48 <_vfprintf_r+0x1f2c>
40010efc:	e2833001 	add	r3, r3, #1
40010f00:	e3530007 	cmp	r3, #7
40010f04:	e2844010 	add	r4, r4, #16
40010f08:	e5898000 	str	r8, [r9]
40010f0c:	e5896004 	str	r6, [r9, #4]
40010f10:	e58d3098 	str	r3, [sp, #152]	; 0x98
40010f14:	e58d409c 	str	r4, [sp, #156]	; 0x9c
40010f18:	d2899008 	addle	r9, r9, #8
40010f1c:	dafffff3 	ble	40010ef0 <_vfprintf_r+0x1ed4>
40010f20:	e28d2094 	add	r2, sp, #148	; 0x94
40010f24:	e1a0100b 	mov	r1, fp
40010f28:	e1a00007 	mov	r0, r7
40010f2c:	eb00138e 	bl	40015d6c <__sprint_r>
40010f30:	e3500000 	cmp	r0, #0
40010f34:	1afff92a 	bne	4000f3e4 <_vfprintf_r+0x3c8>
40010f38:	e28d3098 	add	r3, sp, #152	; 0x98
40010f3c:	e28d90c8 	add	r9, sp, #200	; 0xc8
40010f40:	e8930018 	ldm	r3, {r3, r4}
40010f44:	eaffffe9 	b	40010ef0 <_vfprintf_r+0x1ed4>
40010f48:	e2833001 	add	r3, r3, #1
40010f4c:	e0844005 	add	r4, r4, r5
40010f50:	e3530007 	cmp	r3, #7
40010f54:	e5898000 	str	r8, [r9]
40010f58:	e5895004 	str	r5, [r9, #4]
40010f5c:	e58d3098 	str	r3, [sp, #152]	; 0x98
40010f60:	e58d409c 	str	r4, [sp, #156]	; 0x9c
40010f64:	e2899008 	add	r9, r9, #8
40010f68:	dafffcf8 	ble	40010350 <_vfprintf_r+0x1334>
40010f6c:	e28d2094 	add	r2, sp, #148	; 0x94
40010f70:	e59d1018 	ldr	r1, [sp, #24]
40010f74:	e59d0028 	ldr	r0, [sp, #40]	; 0x28
40010f78:	eb00137b 	bl	40015d6c <__sprint_r>
40010f7c:	e3500000 	cmp	r0, #0
40010f80:	1afff917 	bne	4000f3e4 <_vfprintf_r+0x3c8>
40010f84:	e28d3098 	add	r3, sp, #152	; 0x98
40010f88:	e28d90c8 	add	r9, sp, #200	; 0xc8
40010f8c:	e8930018 	ldm	r3, {r3, r4}
40010f90:	eafffcee 	b	40010350 <_vfprintf_r+0x1334>
40010f94:	e59d3048 	ldr	r3, [sp, #72]	; 0x48
40010f98:	e59d2060 	ldr	r2, [sp, #96]	; 0x60
40010f9c:	e0835002 	add	r5, r3, r2
40010fa0:	e59d3024 	ldr	r3, [sp, #36]	; 0x24
40010fa4:	e0855003 	add	r5, r5, r3
40010fa8:	e1c53fc5 	bic	r3, r5, r5, asr #31
40010fac:	e58d3020 	str	r3, [sp, #32]
40010fb0:	eafffede 	b	40010b30 <_vfprintf_r+0x1b14>
40010fb4:	e31b0001 	tst	fp, #1
40010fb8:	059d308c 	ldreq	r3, [sp, #140]	; 0x8c
40010fbc:	0afffea7 	beq	40010a60 <_vfprintf_r+0x1a44>
40010fc0:	e59d3040 	ldr	r3, [sp, #64]	; 0x40
40010fc4:	e59d2024 	ldr	r2, [sp, #36]	; 0x24
40010fc8:	e0834002 	add	r4, r3, r2
40010fcc:	eafffe91 	b	40010a18 <_vfprintf_r+0x19fc>
40010fd0:	e3a03003 	mov	r3, #3
40010fd4:	e1a05003 	mov	r5, r3
40010fd8:	e58d3020 	str	r3, [sp, #32]
40010fdc:	e3a03000 	mov	r3, #0
40010fe0:	e1a01003 	mov	r1, r3
40010fe4:	e58d1048 	str	r1, [sp, #72]	; 0x48
40010fe8:	e59d1044 	ldr	r1, [sp, #68]	; 0x44
40010fec:	e58d3024 	str	r3, [sp, #36]	; 0x24
40010ff0:	e51f3f08 	ldr	r3, [pc, #-3848]	; 400100f0 <_vfprintf_r+0x10d4>
40010ff4:	e3510047 	cmp	r1, #71	; 0x47
40010ff8:	e51f2f0c 	ldr	r2, [pc, #-3852]	; 400100f4 <_vfprintf_r+0x10d8>
40010ffc:	d1a02003 	movle	r2, r3
40011000:	e5dd3077 	ldrb	r3, [sp, #119]	; 0x77
40011004:	e3cb0080 	bic	r0, fp, #128	; 0x80
40011008:	e58d001c 	str	r0, [sp, #28]
4001100c:	e58d2040 	str	r2, [sp, #64]	; 0x40
40011010:	e58d3030 	str	r3, [sp, #48]	; 0x30
40011014:	eafff927 	b	4000f4b8 <_vfprintf_r+0x49c>
40011018:	e21b3001 	ands	r3, fp, #1
4001101c:	e58d3048 	str	r3, [sp, #72]	; 0x48
40011020:	0affffe0 	beq	40010fa8 <_vfprintf_r+0x1f8c>
40011024:	eafffebb 	b	40010b18 <_vfprintf_r+0x1afc>
40011028:	e59d3024 	ldr	r3, [sp, #36]	; 0x24
4001102c:	e3530000 	cmp	r3, #0
40011030:	1a000001 	bne	4001103c <_vfprintf_r+0x2020>
40011034:	e31b0001 	tst	fp, #1
40011038:	0a000011 	beq	40011084 <_vfprintf_r+0x2068>
4001103c:	e59d3060 	ldr	r3, [sp, #96]	; 0x60
40011040:	e2835001 	add	r5, r3, #1
40011044:	e59d3024 	ldr	r3, [sp, #36]	; 0x24
40011048:	e0855003 	add	r5, r5, r3
4001104c:	e1c53fc5 	bic	r3, r5, r5, asr #31
40011050:	e58d3020 	str	r3, [sp, #32]
40011054:	eafffeb5 	b	40010b30 <_vfprintf_r+0x1b14>
40011058:	e59d2038 	ldr	r2, [sp, #56]	; 0x38
4001105c:	e5927000 	ldr	r7, [r2]
40011060:	e1570006 	cmp	r7, r6
40011064:	b1a07006 	movlt	r7, r6
40011068:	e5da2001 	ldrb	r2, [sl, #1]
4001106c:	e1a0a001 	mov	sl, r1
40011070:	e59d1038 	ldr	r1, [sp, #56]	; 0x38
40011074:	e2811004 	add	r1, r1, #4
40011078:	e58d7024 	str	r7, [sp, #36]	; 0x24
4001107c:	e58d1038 	str	r1, [sp, #56]	; 0x38
40011080:	eafff847 	b	4000f1a4 <_vfprintf_r+0x188>
40011084:	e3a03001 	mov	r3, #1
40011088:	eaffff4d 	b	40010dc4 <_vfprintf_r+0x1da8>
4001108c:	e28d3086 	add	r3, sp, #134	; 0x86
40011090:	eafffe99 	b	40010afc <_vfprintf_r+0x1ae0>
40011094:	e59d307c 	ldr	r3, [sp, #124]	; 0x7c
40011098:	e58d3048 	str	r3, [sp, #72]	; 0x48
4001109c:	eafffe82 	b	40010aac <_vfprintf_r+0x1a90>

Disassembly of section .text.vfprintf:

400110a0 <vfprintf>:
400110a0:	e59fc010 	ldr	ip, [pc, #16]	; 400110b8 <vfprintf+0x18>
400110a4:	e1a03002 	mov	r3, r2
400110a8:	e1a02001 	mov	r2, r1
400110ac:	e1a01000 	mov	r1, r0
400110b0:	e59c0000 	ldr	r0, [ip]
400110b4:	eafff7d8 	b	4000f01c <_vfprintf_r>
400110b8:	40019b60 	.word	0x40019b60

Disassembly of section .text.__sbprintf:

400110bc <__sbprintf>:
400110bc:	e92d40f0 	push	{r4, r5, r6, r7, lr}
400110c0:	e1a04001 	mov	r4, r1
400110c4:	e3a0cb01 	mov	ip, #1024	; 0x400
400110c8:	e3a0e000 	mov	lr, #0
400110cc:	e5946064 	ldr	r6, [r4, #100]	; 0x64
400110d0:	e24dde46 	sub	sp, sp, #1120	; 0x460
400110d4:	e24dd00c 	sub	sp, sp, #12
400110d8:	e1d110bc 	ldrh	r1, [r1, #12]
400110dc:	e58d6064 	str	r6, [sp, #100]	; 0x64
400110e0:	e594601c 	ldr	r6, [r4, #28]
400110e4:	e1d470be 	ldrh	r7, [r4, #14]
400110e8:	e3c11002 	bic	r1, r1, #2
400110ec:	e58d601c 	str	r6, [sp, #28]
400110f0:	e5946024 	ldr	r6, [r4, #36]	; 0x24
400110f4:	e1cd10bc 	strh	r1, [sp, #12]
400110f8:	e58dc008 	str	ip, [sp, #8]
400110fc:	e58dc014 	str	ip, [sp, #20]
40011100:	e1a0100d 	mov	r1, sp
40011104:	e28dc068 	add	ip, sp, #104	; 0x68
40011108:	e1cd70be 	strh	r7, [sp, #14]
4001110c:	e58d6024 	str	r6, [sp, #36]	; 0x24
40011110:	e58de018 	str	lr, [sp, #24]
40011114:	e58dc000 	str	ip, [sp]
40011118:	e58dc010 	str	ip, [sp, #16]
4001111c:	e1a07000 	mov	r7, r0
40011120:	ebfff7bd 	bl	4000f01c <_vfprintf_r>
40011124:	e2506000 	subs	r6, r0, #0
40011128:	ba000004 	blt	40011140 <__sbprintf+0x84>
4001112c:	e1a0100d 	mov	r1, sp
40011130:	e1a00007 	mov	r0, r7
40011134:	eb000817 	bl	40013198 <_fflush_r>
40011138:	e3500000 	cmp	r0, #0
4001113c:	13e06000 	mvnne	r6, #0
40011140:	e1a00006 	mov	r0, r6
40011144:	e1dd30bc 	ldrh	r3, [sp, #12]
40011148:	e3130040 	tst	r3, #64	; 0x40
4001114c:	11d430bc 	ldrhne	r3, [r4, #12]
40011150:	13833040 	orrne	r3, r3, #64	; 0x40
40011154:	11c430bc 	strhne	r3, [r4, #12]
40011158:	e28dde46 	add	sp, sp, #1120	; 0x460
4001115c:	e28dd00c 	add	sp, sp, #12
40011160:	e8bd40f0 	pop	{r4, r5, r6, r7, lr}
40011164:	e12fff1e 	bx	lr

40011168 <__sbprintf>:
40011168:	e92d40f0 	push	{r4, r5, r6, r7, lr}
4001116c:	e1a04001 	mov	r4, r1
40011170:	e3a0cb01 	mov	ip, #1024	; 0x400
40011174:	e3a0e000 	mov	lr, #0
40011178:	e5946064 	ldr	r6, [r4, #100]	; 0x64
4001117c:	e24dde46 	sub	sp, sp, #1120	; 0x460
40011180:	e24dd00c 	sub	sp, sp, #12
40011184:	e1d110bc 	ldrh	r1, [r1, #12]
40011188:	e58d6064 	str	r6, [sp, #100]	; 0x64
4001118c:	e594601c 	ldr	r6, [r4, #28]
40011190:	e1d470be 	ldrh	r7, [r4, #14]
40011194:	e3c11002 	bic	r1, r1, #2
40011198:	e58d601c 	str	r6, [sp, #28]
4001119c:	e5946024 	ldr	r6, [r4, #36]	; 0x24
400111a0:	e1cd10bc 	strh	r1, [sp, #12]
400111a4:	e58dc008 	str	ip, [sp, #8]
400111a8:	e58dc014 	str	ip, [sp, #20]
400111ac:	e1a0100d 	mov	r1, sp
400111b0:	e28dc068 	add	ip, sp, #104	; 0x68
400111b4:	e1cd70be 	strh	r7, [sp, #14]
400111b8:	e58d6024 	str	r6, [sp, #36]	; 0x24
400111bc:	e58de018 	str	lr, [sp, #24]
400111c0:	e58dc000 	str	ip, [sp]
400111c4:	e58dc010 	str	ip, [sp, #16]
400111c8:	e1a07000 	mov	r7, r0
400111cc:	eb0012ec 	bl	40015d84 <_vfiprintf_r>
400111d0:	e2506000 	subs	r6, r0, #0
400111d4:	ba000004 	blt	400111ec <__sbprintf+0x84>
400111d8:	e1a0100d 	mov	r1, sp
400111dc:	e1a00007 	mov	r0, r7
400111e0:	eb0007ec 	bl	40013198 <_fflush_r>
400111e4:	e3500000 	cmp	r0, #0
400111e8:	13e06000 	mvnne	r6, #0
400111ec:	e1a00006 	mov	r0, r6
400111f0:	e1dd30bc 	ldrh	r3, [sp, #12]
400111f4:	e3130040 	tst	r3, #64	; 0x40
400111f8:	11d430bc 	ldrhne	r3, [r4, #12]
400111fc:	13833040 	orrne	r3, r3, #64	; 0x40
40011200:	11c430bc 	strhne	r3, [r4, #12]
40011204:	e28dde46 	add	sp, sp, #1120	; 0x460
40011208:	e28dd00c 	add	sp, sp, #12
4001120c:	e8bd40f0 	pop	{r4, r5, r6, r7, lr}
40011210:	e12fff1e 	bx	lr

Disassembly of section .text.__swbuf_r:

40011214 <__swbuf_r>:
40011214:	e92d41f0 	push	{r4, r5, r6, r7, r8, lr}
40011218:	e2506000 	subs	r6, r0, #0
4001121c:	e1a05001 	mov	r5, r1
40011220:	e1a04002 	mov	r4, r2
40011224:	0a000002 	beq	40011234 <__swbuf_r+0x20>
40011228:	e5963038 	ldr	r3, [r6, #56]	; 0x38
4001122c:	e3530000 	cmp	r3, #0
40011230:	0a000042 	beq	40011340 <__swbuf_r+0x12c>
40011234:	e1d410fc 	ldrsh	r1, [r4, #12]
40011238:	e5940018 	ldr	r0, [r4, #24]
4001123c:	e1a03801 	lsl	r3, r1, #16
40011240:	e3130702 	tst	r3, #524288	; 0x80000
40011244:	e1a02823 	lsr	r2, r3, #16
40011248:	e5840008 	str	r0, [r4, #8]
4001124c:	0a000022 	beq	400112dc <__swbuf_r+0xc8>
40011250:	e5943010 	ldr	r3, [r4, #16]
40011254:	e3530000 	cmp	r3, #0
40011258:	0a00001f 	beq	400112dc <__swbuf_r+0xc8>
4001125c:	e3120a02 	tst	r2, #8192	; 0x2000
40011260:	05942064 	ldreq	r2, [r4, #100]	; 0x64
40011264:	03c22a02 	biceq	r2, r2, #8192	; 0x2000
40011268:	03811a02 	orreq	r1, r1, #8192	; 0x2000
4001126c:	05842064 	streq	r2, [r4, #100]	; 0x64
40011270:	e5942000 	ldr	r2, [r4]
40011274:	01c410bc 	strheq	r1, [r4, #12]
40011278:	e5941014 	ldr	r1, [r4, #20]
4001127c:	e0423003 	sub	r3, r2, r3
40011280:	e20550ff 	and	r5, r5, #255	; 0xff
40011284:	e1530001 	cmp	r3, r1
40011288:	e1a07005 	mov	r7, r5
4001128c:	b2833001 	addlt	r3, r3, #1
40011290:	aa000022 	bge	40011320 <__swbuf_r+0x10c>
40011294:	e5941008 	ldr	r1, [r4, #8]
40011298:	e2820001 	add	r0, r2, #1
4001129c:	e2411001 	sub	r1, r1, #1
400112a0:	e5841008 	str	r1, [r4, #8]
400112a4:	e5840000 	str	r0, [r4]
400112a8:	e5c25000 	strb	r5, [r2]
400112ac:	e5942014 	ldr	r2, [r4, #20]
400112b0:	e1520003 	cmp	r2, r3
400112b4:	0a000012 	beq	40011304 <__swbuf_r+0xf0>
400112b8:	e1d430bc 	ldrh	r3, [r4, #12]
400112bc:	e355000a 	cmp	r5, #10
400112c0:	13a05000 	movne	r5, #0
400112c4:	02035001 	andeq	r5, r3, #1
400112c8:	e3550000 	cmp	r5, #0
400112cc:	1a00000c 	bne	40011304 <__swbuf_r+0xf0>
400112d0:	e1a00007 	mov	r0, r7
400112d4:	e8bd41f0 	pop	{r4, r5, r6, r7, r8, lr}
400112d8:	e12fff1e 	bx	lr
400112dc:	e1a01004 	mov	r1, r4
400112e0:	e1a00006 	mov	r0, r6
400112e4:	eb00001d 	bl	40011360 <__swsetup_r>
400112e8:	e3500000 	cmp	r0, #0
400112ec:	1a000009 	bne	40011318 <__swbuf_r+0x104>
400112f0:	e1d410fc 	ldrsh	r1, [r4, #12]
400112f4:	e1a02801 	lsl	r2, r1, #16
400112f8:	e5943010 	ldr	r3, [r4, #16]
400112fc:	e1a02822 	lsr	r2, r2, #16
40011300:	eaffffd5 	b	4001125c <__swbuf_r+0x48>
40011304:	e1a01004 	mov	r1, r4
40011308:	e1a00006 	mov	r0, r6
4001130c:	eb0007a1 	bl	40013198 <_fflush_r>
40011310:	e3500000 	cmp	r0, #0
40011314:	0affffed 	beq	400112d0 <__swbuf_r+0xbc>
40011318:	e3e07000 	mvn	r7, #0
4001131c:	eaffffeb 	b	400112d0 <__swbuf_r+0xbc>
40011320:	e1a01004 	mov	r1, r4
40011324:	e1a00006 	mov	r0, r6
40011328:	eb00079a 	bl	40013198 <_fflush_r>
4001132c:	e3500000 	cmp	r0, #0
40011330:	1afffff8 	bne	40011318 <__swbuf_r+0x104>
40011334:	e3a03001 	mov	r3, #1
40011338:	e5942000 	ldr	r2, [r4]
4001133c:	eaffffd4 	b	40011294 <__swbuf_r+0x80>
40011340:	eb000875 	bl	4001351c <__sinit>
40011344:	eaffffba 	b	40011234 <__swbuf_r+0x20>

Disassembly of section .text.__swbuf:

40011348 <__swbuf>:
40011348:	e59f300c 	ldr	r3, [pc, #12]	; 4001135c <__swbuf+0x14>
4001134c:	e1a02001 	mov	r2, r1
40011350:	e1a01000 	mov	r1, r0
40011354:	e5930000 	ldr	r0, [r3]
40011358:	eaffffad 	b	40011214 <__swbuf_r>
4001135c:	40019b60 	.word	0x40019b60

Disassembly of section .text.__swsetup_r:

40011360 <__swsetup_r>:
40011360:	e59f3158 	ldr	r3, [pc, #344]	; 400114c0 <__swsetup_r+0x160>
40011364:	e5933000 	ldr	r3, [r3]
40011368:	e3530000 	cmp	r3, #0
4001136c:	e92d4070 	push	{r4, r5, r6, lr}
40011370:	e1a05000 	mov	r5, r0
40011374:	e1a04001 	mov	r4, r1
40011378:	0a000002 	beq	40011388 <__swsetup_r+0x28>
4001137c:	e5932038 	ldr	r2, [r3, #56]	; 0x38
40011380:	e3520000 	cmp	r2, #0
40011384:	0a000034 	beq	4001145c <__swsetup_r+0xfc>
40011388:	e1d420fc 	ldrsh	r2, [r4, #12]
4001138c:	e1a03802 	lsl	r3, r2, #16
40011390:	e3130702 	tst	r3, #524288	; 0x80000
40011394:	e1a03823 	lsr	r3, r3, #16
40011398:	0a00000c 	beq	400113d0 <__swsetup_r+0x70>
4001139c:	e5940010 	ldr	r0, [r4, #16]
400113a0:	e3500000 	cmp	r0, #0
400113a4:	0a000014 	beq	400113fc <__swsetup_r+0x9c>
400113a8:	e2132001 	ands	r2, r3, #1
400113ac:	1a00001b 	bne	40011420 <__swsetup_r+0xc0>
400113b0:	e3130002 	tst	r3, #2
400113b4:	05942014 	ldreq	r2, [r4, #20]
400113b8:	e3500000 	cmp	r0, #0
400113bc:	e5842008 	str	r2, [r4, #8]
400113c0:	13a00000 	movne	r0, #0
400113c4:	0a00001d 	beq	40011440 <__swsetup_r+0xe0>
400113c8:	e8bd4070 	pop	{r4, r5, r6, lr}
400113cc:	e12fff1e 	bx	lr
400113d0:	e3130010 	tst	r3, #16
400113d4:	0a000033 	beq	400114a8 <__swsetup_r+0x148>
400113d8:	e3130004 	tst	r3, #4
400113dc:	1a000021 	bne	40011468 <__swsetup_r+0x108>
400113e0:	e5940010 	ldr	r0, [r4, #16]
400113e4:	e3822008 	orr	r2, r2, #8
400113e8:	e1c420bc 	strh	r2, [r4, #12]
400113ec:	e3500000 	cmp	r0, #0
400113f0:	e1a02802 	lsl	r2, r2, #16
400113f4:	e1a03822 	lsr	r3, r2, #16
400113f8:	1affffea 	bne	400113a8 <__swsetup_r+0x48>
400113fc:	e2032d0a 	and	r2, r3, #640	; 0x280
40011400:	e3520c02 	cmp	r2, #512	; 0x200
40011404:	0affffe7 	beq	400113a8 <__swsetup_r+0x48>
40011408:	e1a00005 	mov	r0, r5
4001140c:	e1a01004 	mov	r1, r4
40011410:	eb0009d5 	bl	40013b6c <__smakebuf_r>
40011414:	e1d430bc 	ldrh	r3, [r4, #12]
40011418:	e5940010 	ldr	r0, [r4, #16]
4001141c:	eaffffe1 	b	400113a8 <__swsetup_r+0x48>
40011420:	e3a02000 	mov	r2, #0
40011424:	e5943014 	ldr	r3, [r4, #20]
40011428:	e3500000 	cmp	r0, #0
4001142c:	e2633000 	rsb	r3, r3, #0
40011430:	e5843018 	str	r3, [r4, #24]
40011434:	e5842008 	str	r2, [r4, #8]
40011438:	13a00000 	movne	r0, #0
4001143c:	1affffe1 	bne	400113c8 <__swsetup_r+0x68>
40011440:	e1d430fc 	ldrsh	r3, [r4, #12]
40011444:	e3130080 	tst	r3, #128	; 0x80
40011448:	13833040 	orrne	r3, r3, #64	; 0x40
4001144c:	11c430bc 	strhne	r3, [r4, #12]
40011450:	13e00000 	mvnne	r0, #0
40011454:	e8bd4070 	pop	{r4, r5, r6, lr}
40011458:	e12fff1e 	bx	lr
4001145c:	e1a00003 	mov	r0, r3
40011460:	eb00082d 	bl	4001351c <__sinit>
40011464:	eaffffc7 	b	40011388 <__swsetup_r+0x28>
40011468:	e5941030 	ldr	r1, [r4, #48]	; 0x30
4001146c:	e3510000 	cmp	r1, #0
40011470:	0a000007 	beq	40011494 <__swsetup_r+0x134>
40011474:	e2843040 	add	r3, r4, #64	; 0x40
40011478:	e1510003 	cmp	r1, r3
4001147c:	0a000002 	beq	4001148c <__swsetup_r+0x12c>
40011480:	e1a00005 	mov	r0, r5
40011484:	eb00087e 	bl	40013684 <_free_r>
40011488:	e1d420fc 	ldrsh	r2, [r4, #12]
4001148c:	e3a03000 	mov	r3, #0
40011490:	e5843030 	str	r3, [r4, #48]	; 0x30
40011494:	e3a03000 	mov	r3, #0
40011498:	e5940010 	ldr	r0, [r4, #16]
4001149c:	e3c22024 	bic	r2, r2, #36	; 0x24
400114a0:	e8840009 	stm	r4, {r0, r3}
400114a4:	eaffffce 	b	400113e4 <__swsetup_r+0x84>
400114a8:	e3a03009 	mov	r3, #9
400114ac:	e3822040 	orr	r2, r2, #64	; 0x40
400114b0:	e5853000 	str	r3, [r5]
400114b4:	e3e00000 	mvn	r0, #0
400114b8:	e1c420bc 	strh	r2, [r4, #12]
400114bc:	eaffffc1 	b	400113c8 <__swsetup_r+0x68>
400114c0:	40019b60 	.word	0x40019b60

Disassembly of section .text.__register_exitproc:

400114c4 <__register_exitproc>:
400114c4:	e59fc0d0 	ldr	ip, [pc, #208]	; 4001159c <__register_exitproc+0xd8>
400114c8:	e92d41f0 	push	{r4, r5, r6, r7, r8, lr}
400114cc:	e59c4000 	ldr	r4, [ip]
400114d0:	e594c148 	ldr	ip, [r4, #328]	; 0x148
400114d4:	e35c0000 	cmp	ip, #0
400114d8:	0284cf53 	addeq	ip, r4, #332	; 0x14c
400114dc:	e59ce004 	ldr	lr, [ip, #4]
400114e0:	0584c148 	streq	ip, [r4, #328]	; 0x148
400114e4:	e35e001f 	cmp	lr, #31
400114e8:	e1a06001 	mov	r6, r1
400114ec:	e1a05000 	mov	r5, r0
400114f0:	e1a08002 	mov	r8, r2
400114f4:	e1a07003 	mov	r7, r3
400114f8:	d28e1001 	addle	r1, lr, #1
400114fc:	da00000f 	ble	40011540 <__register_exitproc+0x7c>
40011500:	e59f3098 	ldr	r3, [pc, #152]	; 400115a0 <__register_exitproc+0xdc>
40011504:	e3530000 	cmp	r3, #0
40011508:	0a000021 	beq	40011594 <__register_exitproc+0xd0>
4001150c:	e3a00e19 	mov	r0, #400	; 0x190
40011510:	ebffe7f4 	bl	4000b4e8 <malloc>
40011514:	e250c000 	subs	ip, r0, #0
40011518:	0a00001d 	beq	40011594 <__register_exitproc+0xd0>
4001151c:	e3a00000 	mov	r0, #0
40011520:	e3a01001 	mov	r1, #1
40011524:	e1a0e000 	mov	lr, r0
40011528:	e5943148 	ldr	r3, [r4, #328]	; 0x148
4001152c:	e58c0004 	str	r0, [ip, #4]
40011530:	e58c3000 	str	r3, [ip]
40011534:	e584c148 	str	ip, [r4, #328]	; 0x148
40011538:	e58c0188 	str	r0, [ip, #392]	; 0x188
4001153c:	e58c018c 	str	r0, [ip, #396]	; 0x18c
40011540:	e3550000 	cmp	r5, #0
40011544:	1a000005 	bne	40011560 <__register_exitproc+0x9c>
40011548:	e3a00000 	mov	r0, #0
4001154c:	e28ee002 	add	lr, lr, #2
40011550:	e58c1004 	str	r1, [ip, #4]
40011554:	e78c610e 	str	r6, [ip, lr, lsl #2]
40011558:	e8bd41f0 	pop	{r4, r5, r6, r7, r8, lr}
4001155c:	e12fff1e 	bx	lr
40011560:	e3a00001 	mov	r0, #1
40011564:	e08c410e 	add	r4, ip, lr, lsl #2
40011568:	e5848088 	str	r8, [r4, #136]	; 0x88
4001156c:	e59c3188 	ldr	r3, [ip, #392]	; 0x188
40011570:	e1a02e10 	lsl	r2, r0, lr
40011574:	e1830002 	orr	r0, r3, r2
40011578:	e58c0188 	str	r0, [ip, #392]	; 0x188
4001157c:	e5847108 	str	r7, [r4, #264]	; 0x108
40011580:	e3550002 	cmp	r5, #2
40011584:	059c318c 	ldreq	r3, [ip, #396]	; 0x18c
40011588:	01832002 	orreq	r2, r3, r2
4001158c:	058c218c 	streq	r2, [ip, #396]	; 0x18c
40011590:	eaffffec 	b	40011548 <__register_exitproc+0x84>
40011594:	e3e00000 	mvn	r0, #0
40011598:	eaffffee 	b	40011558 <__register_exitproc+0x94>
4001159c:	40019798 	.word	0x40019798
400115a0:	4000b4e8 	.word	0x4000b4e8

Disassembly of section .text.startup.register_fini:

400115a4 <register_fini>:
400115a4:	e59f3018 	ldr	r3, [pc, #24]	; 400115c4 <register_fini+0x20>
400115a8:	e3530000 	cmp	r3, #0
400115ac:	012fff1e 	bxeq	lr
400115b0:	e92d4010 	push	{r4, lr}
400115b4:	e59f000c 	ldr	r0, [pc, #12]	; 400115c8 <register_fini+0x24>
400115b8:	ebffe602 	bl	4000adc8 <atexit>
400115bc:	e8bd4010 	pop	{r4, lr}
400115c0:	e12fff1e 	bx	lr
400115c4:	00000000 	.word	0x00000000
400115c8:	4000ae1c 	.word	0x4000ae1c

Disassembly of section .text.__call_exitprocs:

400115cc <__call_exitprocs>:
400115cc:	e92d4ff0 	push	{r4, r5, r6, r7, r8, r9, sl, fp, lr}
400115d0:	e1a06001 	mov	r6, r1
400115d4:	e3a09001 	mov	r9, #1
400115d8:	e3a0a000 	mov	sl, #0
400115dc:	e59f3150 	ldr	r3, [pc, #336]	; 40011734 <__call_exitprocs+0x168>
400115e0:	e5933000 	ldr	r3, [r3]
400115e4:	e24dd014 	sub	sp, sp, #20
400115e8:	e58d3008 	str	r3, [sp, #8]
400115ec:	e2833f52 	add	r3, r3, #328	; 0x148
400115f0:	e58d0004 	str	r0, [sp, #4]
400115f4:	e58d300c 	str	r3, [sp, #12]
400115f8:	e59d3008 	ldr	r3, [sp, #8]
400115fc:	e5937148 	ldr	r7, [r3, #328]	; 0x148
40011600:	e3570000 	cmp	r7, #0
40011604:	0a00003d 	beq	40011700 <__call_exitprocs+0x134>
40011608:	e59d800c 	ldr	r8, [sp, #12]
4001160c:	e1a0b008 	mov	fp, r8
40011610:	e5974004 	ldr	r4, [r7, #4]
40011614:	e2545001 	subs	r5, r4, #1
40011618:	52844001 	addpl	r4, r4, #1
4001161c:	50874104 	addpl	r4, r7, r4, lsl #2
40011620:	5a000007 	bpl	40011644 <__call_exitprocs+0x78>
40011624:	ea000026 	b	400116c4 <__call_exitprocs+0xf8>
40011628:	e5943100 	ldr	r3, [r4, #256]	; 0x100
4001162c:	e1560003 	cmp	r6, r3
40011630:	0a000005 	beq	4001164c <__call_exitprocs+0x80>
40011634:	e2455001 	sub	r5, r5, #1
40011638:	e3750001 	cmn	r5, #1
4001163c:	e2444004 	sub	r4, r4, #4
40011640:	0a00001f 	beq	400116c4 <__call_exitprocs+0xf8>
40011644:	e3560000 	cmp	r6, #0
40011648:	1afffff6 	bne	40011628 <__call_exitprocs+0x5c>
4001164c:	e5973004 	ldr	r3, [r7, #4]
40011650:	e2433001 	sub	r3, r3, #1
40011654:	e1530005 	cmp	r3, r5
40011658:	e5943000 	ldr	r3, [r4]
4001165c:	05875004 	streq	r5, [r7, #4]
40011660:	1584a000 	strne	sl, [r4]
40011664:	e3530000 	cmp	r3, #0
40011668:	0afffff1 	beq	40011634 <__call_exitprocs+0x68>
4001166c:	e5971188 	ldr	r1, [r7, #392]	; 0x188
40011670:	e1a02519 	lsl	r2, r9, r5
40011674:	e1120001 	tst	r2, r1
40011678:	e5978004 	ldr	r8, [r7, #4]
4001167c:	0a000022 	beq	4001170c <__call_exitprocs+0x140>
40011680:	e597118c 	ldr	r1, [r7, #396]	; 0x18c
40011684:	e1120001 	tst	r2, r1
40011688:	1a000022 	bne	40011718 <__call_exitprocs+0x14c>
4001168c:	e5941080 	ldr	r1, [r4, #128]	; 0x80
40011690:	e59d0004 	ldr	r0, [sp, #4]
40011694:	e1a0e00f 	mov	lr, pc
40011698:	e12fff13 	bx	r3
4001169c:	e5973004 	ldr	r3, [r7, #4]
400116a0:	e1530008 	cmp	r3, r8
400116a4:	1affffd3 	bne	400115f8 <__call_exitprocs+0x2c>
400116a8:	e59b3000 	ldr	r3, [fp]
400116ac:	e1530007 	cmp	r3, r7
400116b0:	1affffd0 	bne	400115f8 <__call_exitprocs+0x2c>
400116b4:	e2455001 	sub	r5, r5, #1
400116b8:	e3750001 	cmn	r5, #1
400116bc:	e2444004 	sub	r4, r4, #4
400116c0:	1affffdf 	bne	40011644 <__call_exitprocs+0x78>
400116c4:	e59f306c 	ldr	r3, [pc, #108]	; 40011738 <__call_exitprocs+0x16c>
400116c8:	e3530000 	cmp	r3, #0
400116cc:	0a00000b 	beq	40011700 <__call_exitprocs+0x134>
400116d0:	e5973004 	ldr	r3, [r7, #4]
400116d4:	e3530000 	cmp	r3, #0
400116d8:	1a000012 	bne	40011728 <__call_exitprocs+0x15c>
400116dc:	e5973000 	ldr	r3, [r7]
400116e0:	e3530000 	cmp	r3, #0
400116e4:	0a000005 	beq	40011700 <__call_exitprocs+0x134>
400116e8:	e1a00007 	mov	r0, r7
400116ec:	e58b3000 	str	r3, [fp]
400116f0:	ebffe784 	bl	4000b508 <free>
400116f4:	e59b7000 	ldr	r7, [fp]
400116f8:	e3570000 	cmp	r7, #0
400116fc:	1affffc3 	bne	40011610 <__call_exitprocs+0x44>
40011700:	e28dd014 	add	sp, sp, #20
40011704:	e8bd4ff0 	pop	{r4, r5, r6, r7, r8, r9, sl, fp, lr}
40011708:	e12fff1e 	bx	lr
4001170c:	e1a0e00f 	mov	lr, pc
40011710:	e12fff13 	bx	r3
40011714:	eaffffe0 	b	4001169c <__call_exitprocs+0xd0>
40011718:	e5940080 	ldr	r0, [r4, #128]	; 0x80
4001171c:	e1a0e00f 	mov	lr, pc
40011720:	e12fff13 	bx	r3
40011724:	eaffffdc 	b	4001169c <__call_exitprocs+0xd0>
40011728:	e1a0b007 	mov	fp, r7
4001172c:	e5977000 	ldr	r7, [r7]
40011730:	eafffff0 	b	400116f8 <__call_exitprocs+0x12c>
40011734:	40019798 	.word	0x40019798
40011738:	4000b508 	.word	0x4000b508

Disassembly of section .text.quorem:

4001173c <quorem>:
4001173c:	e92d4ff0 	push	{r4, r5, r6, r7, r8, r9, sl, fp, lr}
40011740:	e5903010 	ldr	r3, [r0, #16]
40011744:	e5915010 	ldr	r5, [r1, #16]
40011748:	e1550003 	cmp	r5, r3
4001174c:	e24dd014 	sub	sp, sp, #20
40011750:	c3a00000 	movgt	r0, #0
40011754:	ca00006c 	bgt	4001190c <quorem+0x1d0>
40011758:	e2455001 	sub	r5, r5, #1
4001175c:	e2814014 	add	r4, r1, #20
40011760:	e58d1004 	str	r1, [sp, #4]
40011764:	e7941105 	ldr	r1, [r4, r5, lsl #2]
40011768:	e2809014 	add	r9, r0, #20
4001176c:	e1a07000 	mov	r7, r0
40011770:	e2811001 	add	r1, r1, #1
40011774:	e7990105 	ldr	r0, [r9, r5, lsl #2]
40011778:	ebffc051 	bl	400018c4 <__udivsi3>
4001177c:	e1a03105 	lsl	r3, r5, #2
40011780:	e58d3008 	str	r3, [sp, #8]
40011784:	e0848003 	add	r8, r4, r3
40011788:	e2506000 	subs	r6, r0, #0
4001178c:	e0893003 	add	r3, r9, r3
40011790:	e58d300c 	str	r3, [sp, #12]
40011794:	0a00002f 	beq	40011858 <quorem+0x11c>
40011798:	e3a00000 	mov	r0, #0
4001179c:	e1a0b004 	mov	fp, r4
400117a0:	e1a01000 	mov	r1, r0
400117a4:	e1a0a009 	mov	sl, r9
400117a8:	e1a02000 	mov	r2, r0
400117ac:	e59fe164 	ldr	lr, [pc, #356]	; 40011918 <quorem+0x1dc>
400117b0:	e49b0004 	ldr	r0, [fp], #4
400117b4:	e000300e 	and	r3, r0, lr
400117b8:	e0222396 	mla	r2, r6, r3, r2
400117bc:	e1a00820 	lsr	r0, r0, #16
400117c0:	e1a03822 	lsr	r3, r2, #16
400117c4:	e0203096 	mla	r0, r6, r0, r3
400117c8:	e59ac000 	ldr	ip, [sl]
400117cc:	e002300e 	and	r3, r2, lr
400117d0:	e0413003 	sub	r3, r1, r3
400117d4:	e00c200e 	and	r2, ip, lr
400117d8:	e000100e 	and	r1, r0, lr
400117dc:	e0833002 	add	r3, r3, r2
400117e0:	e061182c 	rsb	r1, r1, ip, lsr #16
400117e4:	e0811843 	add	r1, r1, r3, asr #16
400117e8:	e003300e 	and	r3, r3, lr
400117ec:	e1833801 	orr	r3, r3, r1, lsl #16
400117f0:	e158000b 	cmp	r8, fp
400117f4:	e48a3004 	str	r3, [sl], #4
400117f8:	e1a01841 	asr	r1, r1, #16
400117fc:	e1a02820 	lsr	r2, r0, #16
40011800:	2affffea 	bcs	400117b0 <quorem+0x74>
40011804:	e59d3008 	ldr	r3, [sp, #8]
40011808:	e7993003 	ldr	r3, [r9, r3]
4001180c:	e3530000 	cmp	r3, #0
40011810:	1a000010 	bne	40011858 <quorem+0x11c>
40011814:	e59d200c 	ldr	r2, [sp, #12]
40011818:	e2423004 	sub	r3, r2, #4
4001181c:	e1590003 	cmp	r9, r3
40011820:	2a00000b 	bcs	40011854 <quorem+0x118>
40011824:	e5123004 	ldr	r3, [r2, #-4]
40011828:	e3530000 	cmp	r3, #0
4001182c:	1a000008 	bne	40011854 <quorem+0x118>
40011830:	e2423008 	sub	r3, r2, #8
40011834:	ea000003 	b	40011848 <quorem+0x10c>
40011838:	e5932000 	ldr	r2, [r3]
4001183c:	e3520000 	cmp	r2, #0
40011840:	e2433004 	sub	r3, r3, #4
40011844:	1a000002 	bne	40011854 <quorem+0x118>
40011848:	e1590003 	cmp	r9, r3
4001184c:	e2455001 	sub	r5, r5, #1
40011850:	3afffff8 	bcc	40011838 <quorem+0xfc>
40011854:	e5875010 	str	r5, [r7, #16]
40011858:	e59d1004 	ldr	r1, [sp, #4]
4001185c:	e1a00007 	mov	r0, r7
40011860:	eb000ad4 	bl	400143b8 <__mcmp>
40011864:	e3500000 	cmp	r0, #0
40011868:	ba000026 	blt	40011908 <quorem+0x1cc>
4001186c:	e1a0e009 	mov	lr, r9
40011870:	e3a03000 	mov	r3, #0
40011874:	e59fc09c 	ldr	ip, [pc, #156]	; 40011918 <quorem+0x1dc>
40011878:	e2866001 	add	r6, r6, #1
4001187c:	e4941004 	ldr	r1, [r4], #4
40011880:	e59e0000 	ldr	r0, [lr]
40011884:	e001200c 	and	r2, r1, ip
40011888:	e0432002 	sub	r2, r3, r2
4001188c:	e1a03821 	lsr	r3, r1, #16
40011890:	e000100c 	and	r1, r0, ip
40011894:	e0822001 	add	r2, r2, r1
40011898:	e0633820 	rsb	r3, r3, r0, lsr #16
4001189c:	e0833842 	add	r3, r3, r2, asr #16
400118a0:	e002200c 	and	r2, r2, ip
400118a4:	e1822803 	orr	r2, r2, r3, lsl #16
400118a8:	e1580004 	cmp	r8, r4
400118ac:	e48e2004 	str	r2, [lr], #4
400118b0:	e1a03843 	asr	r3, r3, #16
400118b4:	2afffff0 	bcs	4001187c <quorem+0x140>
400118b8:	e7993105 	ldr	r3, [r9, r5, lsl #2]
400118bc:	e3530000 	cmp	r3, #0
400118c0:	e0893105 	add	r3, r9, r5, lsl #2
400118c4:	1a00000f 	bne	40011908 <quorem+0x1cc>
400118c8:	e2432004 	sub	r2, r3, #4
400118cc:	e1590002 	cmp	r9, r2
400118d0:	2a00000b 	bcs	40011904 <quorem+0x1c8>
400118d4:	e5132004 	ldr	r2, [r3, #-4]
400118d8:	e3520000 	cmp	r2, #0
400118dc:	1a000008 	bne	40011904 <quorem+0x1c8>
400118e0:	e2433008 	sub	r3, r3, #8
400118e4:	ea000003 	b	400118f8 <quorem+0x1bc>
400118e8:	e5932000 	ldr	r2, [r3]
400118ec:	e3520000 	cmp	r2, #0
400118f0:	e2433004 	sub	r3, r3, #4
400118f4:	1a000002 	bne	40011904 <quorem+0x1c8>
400118f8:	e1590003 	cmp	r9, r3
400118fc:	e2455001 	sub	r5, r5, #1
40011900:	3afffff8 	bcc	400118e8 <quorem+0x1ac>
40011904:	e5875010 	str	r5, [r7, #16]
40011908:	e1a00006 	mov	r0, r6
4001190c:	e28dd014 	add	sp, sp, #20
40011910:	e8bd4ff0 	pop	{r4, r5, r6, r7, r8, r9, sl, fp, lr}
40011914:	e12fff1e 	bx	lr
40011918:	0000ffff 	.word	0x0000ffff

Disassembly of section .text._dtoa_r:

40011920 <_dtoa_r>:
40011920:	e92d4ff0 	push	{r4, r5, r6, r7, r8, r9, sl, fp, lr}
40011924:	e5901040 	ldr	r1, [r0, #64]	; 0x40
40011928:	e24dd05c 	sub	sp, sp, #92	; 0x5c
4001192c:	e3510000 	cmp	r1, #0
40011930:	e1a04000 	mov	r4, r0
40011934:	e1a0a002 	mov	sl, r2
40011938:	e1a0b003 	mov	fp, r3
4001193c:	e59d508c 	ldr	r5, [sp, #140]	; 0x8c
40011940:	0a000006 	beq	40011960 <_dtoa_r+0x40>
40011944:	e3a03001 	mov	r3, #1
40011948:	e5902044 	ldr	r2, [r0, #68]	; 0x44
4001194c:	e1a03213 	lsl	r3, r3, r2
40011950:	e981000c 	stmib	r1, {r2, r3}
40011954:	eb0008e7 	bl	40013cf8 <_Bfree>
40011958:	e3a03000 	mov	r3, #0
4001195c:	e5843040 	str	r3, [r4, #64]	; 0x40
40011960:	e35b0000 	cmp	fp, #0
40011964:	b3a03001 	movlt	r3, #1
40011968:	a3a03000 	movge	r3, #0
4001196c:	e1a0900b 	mov	r9, fp
40011970:	b5853000 	strlt	r3, [r5]
40011974:	a5853000 	strge	r3, [r5]
40011978:	e59f33b0 	ldr	r3, [pc, #944]	; 40011d30 <_dtoa_r+0x410>
4001197c:	b3cb9102 	biclt	r9, fp, #-2147483648	; 0x80000000
40011980:	b1a0b009 	movlt	fp, r9
40011984:	e1d33009 	bics	r3, r3, r9
40011988:	0a000013 	beq	400119dc <_dtoa_r+0xbc>
4001198c:	e3a02000 	mov	r2, #0
40011990:	e3a03000 	mov	r3, #0
40011994:	e1a0000a 	mov	r0, sl
40011998:	e1a0100b 	mov	r1, fp
4001199c:	ebffc2c1 	bl	400024a8 <__aeabi_dcmpeq>
400119a0:	e2508000 	subs	r8, r0, #0
400119a4:	0a000027 	beq	40011a48 <_dtoa_r+0x128>
400119a8:	e3a03001 	mov	r3, #1
400119ac:	e59d2090 	ldr	r2, [sp, #144]	; 0x90
400119b0:	e3520000 	cmp	r2, #0
400119b4:	e59d2088 	ldr	r2, [sp, #136]	; 0x88
400119b8:	e5823000 	str	r3, [r2]
400119bc:	0a00009e 	beq	40011c3c <_dtoa_r+0x31c>
400119c0:	e59f036c 	ldr	r0, [pc, #876]	; 40011d34 <_dtoa_r+0x414>
400119c4:	e59d3090 	ldr	r3, [sp, #144]	; 0x90
400119c8:	e5830000 	str	r0, [r3]
400119cc:	e2400001 	sub	r0, r0, #1
400119d0:	e28dd05c 	add	sp, sp, #92	; 0x5c
400119d4:	e8bd4ff0 	pop	{r4, r5, r6, r7, r8, r9, sl, fp, lr}
400119d8:	e12fff1e 	bx	lr
400119dc:	e59f3354 	ldr	r3, [pc, #852]	; 40011d38 <_dtoa_r+0x418>
400119e0:	e59d2088 	ldr	r2, [sp, #136]	; 0x88
400119e4:	e35a0000 	cmp	sl, #0
400119e8:	e5823000 	str	r3, [r2]
400119ec:	1a00000d 	bne	40011a28 <_dtoa_r+0x108>
400119f0:	e3c994ff 	bic	r9, r9, #-16777216	; 0xff000000
400119f4:	e3c9960f 	bic	r9, r9, #15728640	; 0xf00000
400119f8:	e3590000 	cmp	r9, #0
400119fc:	1a000009 	bne	40011a28 <_dtoa_r+0x108>
40011a00:	e59d3090 	ldr	r3, [sp, #144]	; 0x90
40011a04:	e59f0330 	ldr	r0, [pc, #816]	; 40011d3c <_dtoa_r+0x41c>
40011a08:	e3530000 	cmp	r3, #0
40011a0c:	12803008 	addne	r3, r0, #8
40011a10:	0affffee 	beq	400119d0 <_dtoa_r+0xb0>
40011a14:	e59d2090 	ldr	r2, [sp, #144]	; 0x90
40011a18:	e5823000 	str	r3, [r2]
40011a1c:	e28dd05c 	add	sp, sp, #92	; 0x5c
40011a20:	e8bd4ff0 	pop	{r4, r5, r6, r7, r8, r9, sl, fp, lr}
40011a24:	e12fff1e 	bx	lr
40011a28:	e59d3090 	ldr	r3, [sp, #144]	; 0x90
40011a2c:	e59f030c 	ldr	r0, [pc, #780]	; 40011d40 <_dtoa_r+0x420>
40011a30:	e3530000 	cmp	r3, #0
40011a34:	12803003 	addne	r3, r0, #3
40011a38:	0affffe4 	beq	400119d0 <_dtoa_r+0xb0>
40011a3c:	e59d2090 	ldr	r2, [sp, #144]	; 0x90
40011a40:	e5823000 	str	r3, [r2]
40011a44:	eafffff4 	b	40011a1c <_dtoa_r+0xfc>
40011a48:	e28d2050 	add	r2, sp, #80	; 0x50
40011a4c:	e28d3054 	add	r3, sp, #84	; 0x54
40011a50:	e58d2004 	str	r2, [sp, #4]
40011a54:	e58d3000 	str	r3, [sp]
40011a58:	e1a0200a 	mov	r2, sl
40011a5c:	e1a0300b 	mov	r3, fp
40011a60:	e1a00004 	mov	r0, r4
40011a64:	eb000b2a 	bl	40014714 <__d2b>
40011a68:	e1b05a29 	lsrs	r5, r9, #20
40011a6c:	e58d0014 	str	r0, [sp, #20]
40011a70:	1a000067 	bne	40011c14 <_dtoa_r+0x2f4>
40011a74:	e59d8050 	ldr	r8, [sp, #80]	; 0x50
40011a78:	e59d5054 	ldr	r5, [sp, #84]	; 0x54
40011a7c:	e0885005 	add	r5, r8, r5
40011a80:	e2853e43 	add	r3, r5, #1072	; 0x430
40011a84:	e2833002 	add	r3, r3, #2
40011a88:	e3530020 	cmp	r3, #32
40011a8c:	c2850e41 	addgt	r0, r5, #1040	; 0x410
40011a90:	c2633040 	rsbgt	r3, r3, #64	; 0x40
40011a94:	c1a09319 	lslgt	r9, r9, r3
40011a98:	d2639020 	rsble	r9, r3, #32
40011a9c:	c2800002 	addgt	r0, r0, #2
40011aa0:	c189003a 	orrgt	r0, r9, sl, lsr r0
40011aa4:	d1a0091a 	lslle	r0, sl, r9
40011aa8:	ebffc0e4 	bl	40001e40 <__aeabi_ui2d>
40011aac:	e3a03001 	mov	r3, #1
40011ab0:	e58d3020 	str	r3, [sp, #32]
40011ab4:	e2455001 	sub	r5, r5, #1
40011ab8:	e241161f 	sub	r1, r1, #32505856	; 0x1f00000
40011abc:	e3a02000 	mov	r2, #0
40011ac0:	e59f327c 	ldr	r3, [pc, #636]	; 40011d44 <_dtoa_r+0x424>
40011ac4:	ebffc018 	bl	40001b2c <__aeabi_dsub>
40011ac8:	e28f3f92 	add	r3, pc, #584	; 0x248
40011acc:	e893000c 	ldm	r3, {r2, r3}
40011ad0:	ebffc11a 	bl	40001f40 <__aeabi_dmul>
40011ad4:	e28f3f91 	add	r3, pc, #580	; 0x244
40011ad8:	e893000c 	ldm	r3, {r2, r3}
40011adc:	ebffc013 	bl	40001b30 <__adddf3>
40011ae0:	e1a06000 	mov	r6, r0
40011ae4:	e1a00005 	mov	r0, r5
40011ae8:	e1a07001 	mov	r7, r1
40011aec:	ebffc0dc 	bl	40001e64 <__aeabi_i2d>
40011af0:	e28f3e23 	add	r3, pc, #560	; 0x230
40011af4:	e893000c 	ldm	r3, {r2, r3}
40011af8:	ebffc110 	bl	40001f40 <__aeabi_dmul>
40011afc:	e1a02000 	mov	r2, r0
40011b00:	e1a03001 	mov	r3, r1
40011b04:	e1a00006 	mov	r0, r6
40011b08:	e1a01007 	mov	r1, r7
40011b0c:	ebffc007 	bl	40001b30 <__adddf3>
40011b10:	e1a06000 	mov	r6, r0
40011b14:	e1a07001 	mov	r7, r1
40011b18:	ebffc28e 	bl	40002558 <__aeabi_d2iz>
40011b1c:	e3a02000 	mov	r2, #0
40011b20:	e58d0008 	str	r0, [sp, #8]
40011b24:	e3a03000 	mov	r3, #0
40011b28:	e1a00006 	mov	r0, r6
40011b2c:	e1a01007 	mov	r1, r7
40011b30:	ebffc262 	bl	400024c0 <__aeabi_dcmplt>
40011b34:	e3500000 	cmp	r0, #0
40011b38:	1a00012e 	bne	40011ff8 <_dtoa_r+0x6d8>
40011b3c:	e59d6008 	ldr	r6, [sp, #8]
40011b40:	e3560016 	cmp	r6, #22
40011b44:	e1a03006 	mov	r3, r6
40011b48:	83a03001 	movhi	r3, #1
40011b4c:	858d302c 	strhi	r3, [sp, #44]	; 0x2c
40011b50:	8a00000c 	bhi	40011b88 <_dtoa_r+0x268>
40011b54:	e59f31fc 	ldr	r3, [pc, #508]	; 40011d58 <_dtoa_r+0x438>
40011b58:	e0833186 	add	r3, r3, r6, lsl #3
40011b5c:	e1a0200a 	mov	r2, sl
40011b60:	e8930003 	ldm	r3, {r0, r1}
40011b64:	e1a0300b 	mov	r3, fp
40011b68:	ebffc266 	bl	40002508 <__aeabi_dcmpgt>
40011b6c:	e3500000 	cmp	r0, #0
40011b70:	11a02006 	movne	r2, r6
40011b74:	12423001 	subne	r3, r2, #1
40011b78:	158d3008 	strne	r3, [sp, #8]
40011b7c:	13a03000 	movne	r3, #0
40011b80:	058d002c 	streq	r0, [sp, #44]	; 0x2c
40011b84:	158d302c 	strne	r3, [sp, #44]	; 0x2c
40011b88:	e0485005 	sub	r5, r8, r5
40011b8c:	e2553001 	subs	r3, r5, #1
40011b90:	e58d300c 	str	r3, [sp, #12]
40011b94:	42653001 	rsbmi	r3, r5, #1
40011b98:	458d3018 	strmi	r3, [sp, #24]
40011b9c:	53a03000 	movpl	r3, #0
40011ba0:	43a03000 	movmi	r3, #0
40011ba4:	558d3018 	strpl	r3, [sp, #24]
40011ba8:	458d300c 	strmi	r3, [sp, #12]
40011bac:	e59d3008 	ldr	r3, [sp, #8]
40011bb0:	e3530000 	cmp	r3, #0
40011bb4:	ba000106 	blt	40011fd4 <_dtoa_r+0x6b4>
40011bb8:	e59d200c 	ldr	r2, [sp, #12]
40011bbc:	e58d3030 	str	r3, [sp, #48]	; 0x30
40011bc0:	e0822003 	add	r2, r2, r3
40011bc4:	e3a03000 	mov	r3, #0
40011bc8:	e58d200c 	str	r2, [sp, #12]
40011bcc:	e58d3028 	str	r3, [sp, #40]	; 0x28
40011bd0:	e59d3080 	ldr	r3, [sp, #128]	; 0x80
40011bd4:	e3530009 	cmp	r3, #9
40011bd8:	8a000019 	bhi	40011c44 <_dtoa_r+0x324>
40011bdc:	e3530005 	cmp	r3, #5
40011be0:	d3a05001 	movle	r5, #1
40011be4:	c3a05000 	movgt	r5, #0
40011be8:	c2433004 	subgt	r3, r3, #4
40011bec:	c58d3080 	strgt	r3, [sp, #128]	; 0x80
40011bf0:	e59d3080 	ldr	r3, [sp, #128]	; 0x80
40011bf4:	e2433002 	sub	r3, r3, #2
40011bf8:	e3530003 	cmp	r3, #3
40011bfc:	979ff103 	ldrls	pc, [pc, r3, lsl #2]
40011c00:	ea000109 	b	4001202c <_dtoa_r+0x70c>
40011c04:	40012450 	.word	0x40012450
40011c08:	4001210c 	.word	0x4001210c
40011c0c:	40012480 	.word	0x40012480
40011c10:	400128b0 	.word	0x400128b0
40011c14:	e3cb34ff 	bic	r3, fp, #-16777216	; 0xff000000
40011c18:	e3c3360f 	bic	r3, r3, #15728640	; 0xf00000
40011c1c:	e2455fff 	sub	r5, r5, #1020	; 0x3fc
40011c20:	e38315ff 	orr	r1, r3, #1069547520	; 0x3fc00000
40011c24:	e58d8020 	str	r8, [sp, #32]
40011c28:	e1a0000a 	mov	r0, sl
40011c2c:	e2455003 	sub	r5, r5, #3
40011c30:	e3811603 	orr	r1, r1, #3145728	; 0x300000
40011c34:	e59d8050 	ldr	r8, [sp, #80]	; 0x50
40011c38:	eaffff9f 	b	40011abc <_dtoa_r+0x19c>
40011c3c:	e59f0104 	ldr	r0, [pc, #260]	; 40011d48 <_dtoa_r+0x428>
40011c40:	eaffff62 	b	400119d0 <_dtoa_r+0xb0>
40011c44:	e3a01000 	mov	r1, #0
40011c48:	e1a00004 	mov	r0, r4
40011c4c:	e5841044 	str	r1, [r4, #68]	; 0x44
40011c50:	e58d1080 	str	r1, [sp, #128]	; 0x80
40011c54:	eb000804 	bl	40013c6c <_Balloc>
40011c58:	e3e03000 	mvn	r3, #0
40011c5c:	e58d301c 	str	r3, [sp, #28]
40011c60:	e58d3034 	str	r3, [sp, #52]	; 0x34
40011c64:	e3a03001 	mov	r3, #1
40011c68:	e59d1080 	ldr	r1, [sp, #128]	; 0x80
40011c6c:	e58d0010 	str	r0, [sp, #16]
40011c70:	e58d1084 	str	r1, [sp, #132]	; 0x84
40011c74:	e5840040 	str	r0, [r4, #64]	; 0x40
40011c78:	e58d3024 	str	r3, [sp, #36]	; 0x24
40011c7c:	e59d3054 	ldr	r3, [sp, #84]	; 0x54
40011c80:	e1e02003 	mvn	r2, r3
40011c84:	e59d1008 	ldr	r1, [sp, #8]
40011c88:	e351000e 	cmp	r1, #14
40011c8c:	e1a02fa2 	lsr	r2, r2, #31
40011c90:	c3a02000 	movgt	r2, #0
40011c94:	e3520000 	cmp	r2, #0
40011c98:	0a000032 	beq	40011d68 <_dtoa_r+0x448>
40011c9c:	e59d501c 	ldr	r5, [sp, #28]
40011ca0:	e3550000 	cmp	r5, #0
40011ca4:	c3a02000 	movgt	r2, #0
40011ca8:	d3a02001 	movle	r2, #1
40011cac:	e59d1084 	ldr	r1, [sp, #132]	; 0x84
40011cb0:	e59f30a0 	ldr	r3, [pc, #160]	; 40011d58 <_dtoa_r+0x438>
40011cb4:	e0122fa1 	ands	r2, r2, r1, lsr #31
40011cb8:	e59d2008 	ldr	r2, [sp, #8]
40011cbc:	e0833182 	add	r3, r3, r2, lsl #3
40011cc0:	e8930300 	ldm	r3, {r8, r9}
40011cc4:	0a0001f0 	beq	4001248c <_dtoa_r+0xb6c>
40011cc8:	e59d601c 	ldr	r6, [sp, #28]
40011ccc:	e3560000 	cmp	r6, #0
40011cd0:	1a00045f 	bne	40012e54 <_dtoa_r+0x1534>
40011cd4:	e3a02000 	mov	r2, #0
40011cd8:	e59f3070 	ldr	r3, [pc, #112]	; 40011d50 <_dtoa_r+0x430>
40011cdc:	e1a00008 	mov	r0, r8
40011ce0:	e1a01009 	mov	r1, r9
40011ce4:	ebffc095 	bl	40001f40 <__aeabi_dmul>
40011ce8:	e1a0200a 	mov	r2, sl
40011cec:	e1a0300b 	mov	r3, fp
40011cf0:	ebffc1fe 	bl	400024f0 <__aeabi_dcmpge>
40011cf4:	e3500000 	cmp	r0, #0
40011cf8:	0a0002c7 	beq	4001281c <_dtoa_r+0xefc>
40011cfc:	e59d601c 	ldr	r6, [sp, #28]
40011d00:	e58d6020 	str	r6, [sp, #32]
40011d04:	e59d3084 	ldr	r3, [sp, #132]	; 0x84
40011d08:	e1e03003 	mvn	r3, r3
40011d0c:	e59d5010 	ldr	r5, [sp, #16]
40011d10:	e58d3008 	str	r3, [sp, #8]
40011d14:	ea000094 	b	40011f6c <_dtoa_r+0x64c>
40011d18:	636f4361 	.word	0x636f4361
40011d1c:	3fd287a7 	.word	0x3fd287a7
40011d20:	8b60c8b3 	.word	0x8b60c8b3
40011d24:	3fc68a28 	.word	0x3fc68a28
40011d28:	509f79fb 	.word	0x509f79fb
40011d2c:	3fd34413 	.word	0x3fd34413
40011d30:	7ff00000 	.word	0x7ff00000
40011d34:	40019875 	.word	0x40019875
40011d38:	0000270f 	.word	0x0000270f
40011d3c:	40019864 	.word	0x40019864
40011d40:	40019870 	.word	0x40019870
40011d44:	3ff80000 	.word	0x3ff80000
40011d48:	40019874 	.word	0x40019874
40011d4c:	3ff00000 	.word	0x3ff00000
40011d50:	40140000 	.word	0x40140000
40011d54:	40019878 	.word	0x40019878
40011d58:	400198a0 	.word	0x400198a0
40011d5c:	40240000 	.word	0x40240000
40011d60:	401c0000 	.word	0x401c0000
40011d64:	3fe00000 	.word	0x3fe00000
40011d68:	e59d2024 	ldr	r2, [sp, #36]	; 0x24
40011d6c:	e3520000 	cmp	r2, #0
40011d70:	1a0000c3 	bne	40012084 <_dtoa_r+0x764>
40011d74:	e59d3024 	ldr	r3, [sp, #36]	; 0x24
40011d78:	e59d6028 	ldr	r6, [sp, #40]	; 0x28
40011d7c:	e59d5018 	ldr	r5, [sp, #24]
40011d80:	e58d3020 	str	r3, [sp, #32]
40011d84:	e59d200c 	ldr	r2, [sp, #12]
40011d88:	e3550000 	cmp	r5, #0
40011d8c:	c3520000 	cmpgt	r2, #0
40011d90:	e1a03002 	mov	r3, r2
40011d94:	da000007 	ble	40011db8 <_dtoa_r+0x498>
40011d98:	e1550002 	cmp	r5, r2
40011d9c:	b1a03005 	movlt	r3, r5
40011da0:	e59d1018 	ldr	r1, [sp, #24]
40011da4:	e0455003 	sub	r5, r5, r3
40011da8:	e0411003 	sub	r1, r1, r3
40011dac:	e0423003 	sub	r3, r2, r3
40011db0:	e58d1018 	str	r1, [sp, #24]
40011db4:	e58d300c 	str	r3, [sp, #12]
40011db8:	e59d3028 	ldr	r3, [sp, #40]	; 0x28
40011dbc:	e3530000 	cmp	r3, #0
40011dc0:	0a000016 	beq	40011e20 <_dtoa_r+0x500>
40011dc4:	e59d3024 	ldr	r3, [sp, #36]	; 0x24
40011dc8:	e3530000 	cmp	r3, #0
40011dcc:	0a000294 	beq	40012824 <_dtoa_r+0xf04>
40011dd0:	e3560000 	cmp	r6, #0
40011dd4:	da00000e 	ble	40011e14 <_dtoa_r+0x4f4>
40011dd8:	e59d1020 	ldr	r1, [sp, #32]
40011ddc:	e1a02006 	mov	r2, r6
40011de0:	e1a00004 	mov	r0, r4
40011de4:	eb0008f8 	bl	400141cc <__pow5mult>
40011de8:	e59d7014 	ldr	r7, [sp, #20]
40011dec:	e1a01000 	mov	r1, r0
40011df0:	e58d0020 	str	r0, [sp, #32]
40011df4:	e1a02007 	mov	r2, r7
40011df8:	e1a00004 	mov	r0, r4
40011dfc:	eb00087e 	bl	40013ffc <__multiply>
40011e00:	e1a03000 	mov	r3, r0
40011e04:	e1a01007 	mov	r1, r7
40011e08:	e1a00004 	mov	r0, r4
40011e0c:	e58d3014 	str	r3, [sp, #20]
40011e10:	eb0007b8 	bl	40013cf8 <_Bfree>
40011e14:	e59d3028 	ldr	r3, [sp, #40]	; 0x28
40011e18:	e0532006 	subs	r2, r3, r6
40011e1c:	1a000281 	bne	40012828 <_dtoa_r+0xf08>
40011e20:	e3a01001 	mov	r1, #1
40011e24:	e1a00004 	mov	r0, r4
40011e28:	eb00086a 	bl	40013fd8 <__i2b>
40011e2c:	e59d3030 	ldr	r3, [sp, #48]	; 0x30
40011e30:	e3530000 	cmp	r3, #0
40011e34:	e1a06000 	mov	r6, r0
40011e38:	da000269 	ble	400127e4 <_dtoa_r+0xec4>
40011e3c:	e1a01000 	mov	r1, r0
40011e40:	e1a02003 	mov	r2, r3
40011e44:	e1a00004 	mov	r0, r4
40011e48:	eb0008df 	bl	400141cc <__pow5mult>
40011e4c:	e59d3080 	ldr	r3, [sp, #128]	; 0x80
40011e50:	e3530001 	cmp	r3, #1
40011e54:	e1a06000 	mov	r6, r0
40011e58:	da000373 	ble	40012c2c <_dtoa_r+0x130c>
40011e5c:	e3a07000 	mov	r7, #0
40011e60:	e5963010 	ldr	r3, [r6, #16]
40011e64:	e0863103 	add	r3, r6, r3, lsl #2
40011e68:	e5930010 	ldr	r0, [r3, #16]
40011e6c:	eb00081b 	bl	40013ee0 <__hi0bits>
40011e70:	e2600020 	rsb	r0, r0, #32
40011e74:	e59d200c 	ldr	r2, [sp, #12]
40011e78:	e0800002 	add	r0, r0, r2
40011e7c:	e210001f 	ands	r0, r0, #31
40011e80:	0a00020c 	beq	400126b8 <_dtoa_r+0xd98>
40011e84:	e2603020 	rsb	r3, r0, #32
40011e88:	e3530004 	cmp	r3, #4
40011e8c:	da00042b 	ble	40012f40 <_dtoa_r+0x1620>
40011e90:	e59d3018 	ldr	r3, [sp, #24]
40011e94:	e260001c 	rsb	r0, r0, #28
40011e98:	e0833000 	add	r3, r3, r0
40011e9c:	e58d3018 	str	r3, [sp, #24]
40011ea0:	e0823000 	add	r3, r2, r0
40011ea4:	e58d300c 	str	r3, [sp, #12]
40011ea8:	e0855000 	add	r5, r5, r0
40011eac:	e59d3018 	ldr	r3, [sp, #24]
40011eb0:	e3530000 	cmp	r3, #0
40011eb4:	da000004 	ble	40011ecc <_dtoa_r+0x5ac>
40011eb8:	e1a02003 	mov	r2, r3
40011ebc:	e59d1014 	ldr	r1, [sp, #20]
40011ec0:	e1a00004 	mov	r0, r4
40011ec4:	eb000901 	bl	400142d0 <__lshift>
40011ec8:	e58d0014 	str	r0, [sp, #20]
40011ecc:	e59d300c 	ldr	r3, [sp, #12]
40011ed0:	e3530000 	cmp	r3, #0
40011ed4:	da000004 	ble	40011eec <_dtoa_r+0x5cc>
40011ed8:	e1a01006 	mov	r1, r6
40011edc:	e1a02003 	mov	r2, r3
40011ee0:	e1a00004 	mov	r0, r4
40011ee4:	eb0008f9 	bl	400142d0 <__lshift>
40011ee8:	e1a06000 	mov	r6, r0
40011eec:	e59d302c 	ldr	r3, [sp, #44]	; 0x2c
40011ef0:	e3530000 	cmp	r3, #0
40011ef4:	1a0002b3 	bne	400129c8 <_dtoa_r+0x10a8>
40011ef8:	e59d301c 	ldr	r3, [sp, #28]
40011efc:	e59d2080 	ldr	r2, [sp, #128]	; 0x80
40011f00:	e3530000 	cmp	r3, #0
40011f04:	d3a03001 	movle	r3, #1
40011f08:	c3a03000 	movgt	r3, #0
40011f0c:	e3520002 	cmp	r2, #2
40011f10:	d3a03000 	movle	r3, #0
40011f14:	e3530000 	cmp	r3, #0
40011f18:	0a0001ef 	beq	400126dc <_dtoa_r+0xdbc>
40011f1c:	e59d301c 	ldr	r3, [sp, #28]
40011f20:	e3530000 	cmp	r3, #0
40011f24:	1affff76 	bne	40011d04 <_dtoa_r+0x3e4>
40011f28:	e1a01006 	mov	r1, r6
40011f2c:	e3a02005 	mov	r2, #5
40011f30:	e1a00004 	mov	r0, r4
40011f34:	eb000776 	bl	40013d14 <__multadd>
40011f38:	e1a01000 	mov	r1, r0
40011f3c:	e1a06000 	mov	r6, r0
40011f40:	e59d0014 	ldr	r0, [sp, #20]
40011f44:	eb00091b 	bl	400143b8 <__mcmp>
40011f48:	e3500000 	cmp	r0, #0
40011f4c:	daffff6c 	ble	40011d04 <_dtoa_r+0x3e4>
40011f50:	e3a03031 	mov	r3, #49	; 0x31
40011f54:	e59d2008 	ldr	r2, [sp, #8]
40011f58:	e2822001 	add	r2, r2, #1
40011f5c:	e58d2008 	str	r2, [sp, #8]
40011f60:	e59d2010 	ldr	r2, [sp, #16]
40011f64:	e5c23000 	strb	r3, [r2]
40011f68:	e2825001 	add	r5, r2, #1
40011f6c:	e1a01006 	mov	r1, r6
40011f70:	e1a00004 	mov	r0, r4
40011f74:	eb00075f 	bl	40013cf8 <_Bfree>
40011f78:	e59d3020 	ldr	r3, [sp, #32]
40011f7c:	e3530000 	cmp	r3, #0
40011f80:	0a000002 	beq	40011f90 <_dtoa_r+0x670>
40011f84:	e59d1020 	ldr	r1, [sp, #32]
40011f88:	e1a00004 	mov	r0, r4
40011f8c:	eb000759 	bl	40013cf8 <_Bfree>
40011f90:	e59d1014 	ldr	r1, [sp, #20]
40011f94:	e1a00004 	mov	r0, r4
40011f98:	eb000756 	bl	40013cf8 <_Bfree>
40011f9c:	e3a02000 	mov	r2, #0
40011fa0:	e59d1090 	ldr	r1, [sp, #144]	; 0x90
40011fa4:	e59d3008 	ldr	r3, [sp, #8]
40011fa8:	e5c52000 	strb	r2, [r5]
40011fac:	e1510002 	cmp	r1, r2
40011fb0:	e59d2088 	ldr	r2, [sp, #136]	; 0x88
40011fb4:	e2833001 	add	r3, r3, #1
40011fb8:	e5823000 	str	r3, [r2]
40011fbc:	0a000318 	beq	40012c24 <_dtoa_r+0x1304>
40011fc0:	e59d0010 	ldr	r0, [sp, #16]
40011fc4:	e5815000 	str	r5, [r1]
40011fc8:	e28dd05c 	add	sp, sp, #92	; 0x5c
40011fcc:	e8bd4ff0 	pop	{r4, r5, r6, r7, r8, r9, sl, fp, lr}
40011fd0:	e12fff1e 	bx	lr
40011fd4:	e3a03000 	mov	r3, #0
40011fd8:	e59d2018 	ldr	r2, [sp, #24]
40011fdc:	e58d3030 	str	r3, [sp, #48]	; 0x30
40011fe0:	e59d3008 	ldr	r3, [sp, #8]
40011fe4:	e0422003 	sub	r2, r2, r3
40011fe8:	e2633000 	rsb	r3, r3, #0
40011fec:	e58d2018 	str	r2, [sp, #24]
40011ff0:	e58d3028 	str	r3, [sp, #40]	; 0x28
40011ff4:	eafffef5 	b	40011bd0 <_dtoa_r+0x2b0>
40011ff8:	e59d9008 	ldr	r9, [sp, #8]
40011ffc:	e1a00009 	mov	r0, r9
40012000:	ebffbf97 	bl	40001e64 <__aeabi_i2d>
40012004:	e1a03001 	mov	r3, r1
40012008:	e1a02000 	mov	r2, r0
4001200c:	e1a01007 	mov	r1, r7
40012010:	e1a00006 	mov	r0, r6
40012014:	ebffc123 	bl	400024a8 <__aeabi_dcmpeq>
40012018:	e3500000 	cmp	r0, #0
4001201c:	01a03009 	moveq	r3, r9
40012020:	02433001 	subeq	r3, r3, #1
40012024:	058d3008 	streq	r3, [sp, #8]
40012028:	eafffec3 	b	40011b3c <_dtoa_r+0x21c>
4001202c:	e3a05000 	mov	r5, #0
40012030:	e1a00004 	mov	r0, r4
40012034:	e5845044 	str	r5, [r4, #68]	; 0x44
40012038:	e1a01005 	mov	r1, r5
4001203c:	eb00070a 	bl	40013c6c <_Balloc>
40012040:	e59d2008 	ldr	r2, [sp, #8]
40012044:	e59d3054 	ldr	r3, [sp, #84]	; 0x54
40012048:	e352000e 	cmp	r2, #14
4001204c:	c3a02000 	movgt	r2, #0
40012050:	d3a02001 	movle	r2, #1
40012054:	e1530005 	cmp	r3, r5
40012058:	b3a02000 	movlt	r2, #0
4001205c:	e1520005 	cmp	r2, r5
40012060:	e58d0010 	str	r0, [sp, #16]
40012064:	e5840040 	str	r0, [r4, #64]	; 0x40
40012068:	1a0003b7 	bne	40012f4c <_dtoa_r+0x162c>
4001206c:	e3e01000 	mvn	r1, #0
40012070:	e58d2084 	str	r2, [sp, #132]	; 0x84
40012074:	e3a02001 	mov	r2, #1
40012078:	e58d101c 	str	r1, [sp, #28]
4001207c:	e58d1034 	str	r1, [sp, #52]	; 0x34
40012080:	e58d2024 	str	r2, [sp, #36]	; 0x24
40012084:	e59d2080 	ldr	r2, [sp, #128]	; 0x80
40012088:	e3520001 	cmp	r2, #1
4001208c:	da000340 	ble	40012d94 <_dtoa_r+0x1474>
40012090:	e59d301c 	ldr	r3, [sp, #28]
40012094:	e2436001 	sub	r6, r3, #1
40012098:	e59d3028 	ldr	r3, [sp, #40]	; 0x28
4001209c:	e1530006 	cmp	r3, r6
400120a0:	b59d3028 	ldrlt	r3, [sp, #40]	; 0x28
400120a4:	b59d2030 	ldrlt	r2, [sp, #48]	; 0x30
400120a8:	b0463003 	sublt	r3, r6, r3
400120ac:	b0823003 	addlt	r3, r2, r3
400120b0:	a0436006 	subge	r6, r3, r6
400120b4:	b58d3030 	strlt	r3, [sp, #48]	; 0x30
400120b8:	e59d301c 	ldr	r3, [sp, #28]
400120bc:	b58d6028 	strlt	r6, [sp, #40]	; 0x28
400120c0:	b3a06000 	movlt	r6, #0
400120c4:	e3530000 	cmp	r3, #0
400120c8:	b59d3018 	ldrlt	r3, [sp, #24]
400120cc:	b59d201c 	ldrlt	r2, [sp, #28]
400120d0:	b0435002 	sublt	r5, r3, r2
400120d4:	b3a03000 	movlt	r3, #0
400120d8:	a59d5018 	ldrge	r5, [sp, #24]
400120dc:	a59d301c 	ldrge	r3, [sp, #28]
400120e0:	e59d2018 	ldr	r2, [sp, #24]
400120e4:	e0822003 	add	r2, r2, r3
400120e8:	e58d2018 	str	r2, [sp, #24]
400120ec:	e59d200c 	ldr	r2, [sp, #12]
400120f0:	e3a01001 	mov	r1, #1
400120f4:	e0823003 	add	r3, r2, r3
400120f8:	e1a00004 	mov	r0, r4
400120fc:	e58d300c 	str	r3, [sp, #12]
40012100:	eb0007b4 	bl	40013fd8 <__i2b>
40012104:	e58d0020 	str	r0, [sp, #32]
40012108:	eaffff1d 	b	40011d84 <_dtoa_r+0x464>
4001210c:	e3a03000 	mov	r3, #0
40012110:	e58d3024 	str	r3, [sp, #36]	; 0x24
40012114:	e59d3008 	ldr	r3, [sp, #8]
40012118:	e59d2084 	ldr	r2, [sp, #132]	; 0x84
4001211c:	e0833002 	add	r3, r3, r2
40012120:	e58d3034 	str	r3, [sp, #52]	; 0x34
40012124:	e2833001 	add	r3, r3, #1
40012128:	e3530001 	cmp	r3, #1
4001212c:	a1a00003 	movge	r0, r3
40012130:	b3a00001 	movlt	r0, #1
40012134:	e353000e 	cmp	r3, #14
40012138:	83a05000 	movhi	r5, #0
4001213c:	92055001 	andls	r5, r5, #1
40012140:	e58d301c 	str	r3, [sp, #28]
40012144:	e3a01000 	mov	r1, #0
40012148:	e3500017 	cmp	r0, #23
4001214c:	e5841044 	str	r1, [r4, #68]	; 0x44
40012150:	9a000008 	bls	40012178 <_dtoa_r+0x858>
40012154:	e3a02001 	mov	r2, #1
40012158:	e3a03004 	mov	r3, #4
4001215c:	e1a01002 	mov	r1, r2
40012160:	e1a03083 	lsl	r3, r3, #1
40012164:	e2832014 	add	r2, r3, #20
40012168:	e1520000 	cmp	r2, r0
4001216c:	e2812001 	add	r2, r1, #1
40012170:	9afffff9 	bls	4001215c <_dtoa_r+0x83c>
40012174:	e5841044 	str	r1, [r4, #68]	; 0x44
40012178:	e1a00004 	mov	r0, r4
4001217c:	eb0006ba 	bl	40013c6c <_Balloc>
40012180:	e3550000 	cmp	r5, #0
40012184:	e58d0010 	str	r0, [sp, #16]
40012188:	e5840040 	str	r0, [r4, #64]	; 0x40
4001218c:	0afffeba 	beq	40011c7c <_dtoa_r+0x35c>
40012190:	e1a0800a 	mov	r8, sl
40012194:	e1a0900b 	mov	r9, fp
40012198:	e59d1008 	ldr	r1, [sp, #8]
4001219c:	e3510000 	cmp	r1, #0
400121a0:	e58d8038 	str	r8, [sp, #56]	; 0x38
400121a4:	e58d903c 	str	r9, [sp, #60]	; 0x3c
400121a8:	da0001a3 	ble	4001283c <_dtoa_r+0xf1c>
400121ac:	e51f245c 	ldr	r2, [pc, #-1116]	; 40011d58 <_dtoa_r+0x438>
400121b0:	e201300f 	and	r3, r1, #15
400121b4:	e1a05241 	asr	r5, r1, #4
400121b8:	e0823183 	add	r3, r2, r3, lsl #3
400121bc:	e3150010 	tst	r5, #16
400121c0:	e89300c0 	ldm	r3, {r6, r7}
400121c4:	0a00018f 	beq	40012808 <_dtoa_r+0xee8>
400121c8:	e51f347c 	ldr	r3, [pc, #-1148]	; 40011d54 <_dtoa_r+0x434>
400121cc:	e1a0000a 	mov	r0, sl
400121d0:	e1a0100b 	mov	r1, fp
400121d4:	e2833020 	add	r3, r3, #32
400121d8:	e893000c 	ldm	r3, {r2, r3}
400121dc:	ebffbffb 	bl	400021d0 <__aeabi_ddiv>
400121e0:	e3a09003 	mov	r9, #3
400121e4:	e1a0a000 	mov	sl, r0
400121e8:	e1a0b001 	mov	fp, r1
400121ec:	e205500f 	and	r5, r5, #15
400121f0:	e3550000 	cmp	r5, #0
400121f4:	0a00000c 	beq	4001222c <_dtoa_r+0x90c>
400121f8:	e51f84ac 	ldr	r8, [pc, #-1196]	; 40011d54 <_dtoa_r+0x434>
400121fc:	e3150001 	tst	r5, #1
40012200:	0a000006 	beq	40012220 <_dtoa_r+0x900>
40012204:	e1a00006 	mov	r0, r6
40012208:	e1a01007 	mov	r1, r7
4001220c:	e898000c 	ldm	r8, {r2, r3}
40012210:	ebffbf4a 	bl	40001f40 <__aeabi_dmul>
40012214:	e1a06000 	mov	r6, r0
40012218:	e1a07001 	mov	r7, r1
4001221c:	e2899001 	add	r9, r9, #1
40012220:	e1b050c5 	asrs	r5, r5, #1
40012224:	e2888008 	add	r8, r8, #8
40012228:	1afffff3 	bne	400121fc <_dtoa_r+0x8dc>
4001222c:	e1a0000a 	mov	r0, sl
40012230:	e1a0100b 	mov	r1, fp
40012234:	e1a02006 	mov	r2, r6
40012238:	e1a03007 	mov	r3, r7
4001223c:	ebffbfe3 	bl	400021d0 <__aeabi_ddiv>
40012240:	e1a0a000 	mov	sl, r0
40012244:	e1a0b001 	mov	fp, r1
40012248:	e59d302c 	ldr	r3, [sp, #44]	; 0x2c
4001224c:	e3530000 	cmp	r3, #0
40012250:	0a000006 	beq	40012270 <_dtoa_r+0x950>
40012254:	e3a02000 	mov	r2, #0
40012258:	e51f3514 	ldr	r3, [pc, #-1300]	; 40011d4c <_dtoa_r+0x42c>
4001225c:	e1a0000a 	mov	r0, sl
40012260:	e1a0100b 	mov	r1, fp
40012264:	ebffc095 	bl	400024c0 <__aeabi_dcmplt>
40012268:	e3500000 	cmp	r0, #0
4001226c:	1a000288 	bne	40012c94 <_dtoa_r+0x1374>
40012270:	e1a00009 	mov	r0, r9
40012274:	ebffbefa 	bl	40001e64 <__aeabi_i2d>
40012278:	e1a0200a 	mov	r2, sl
4001227c:	e1a0300b 	mov	r3, fp
40012280:	ebffbf2e 	bl	40001f40 <__aeabi_dmul>
40012284:	e51f352c 	ldr	r3, [pc, #-1324]	; 40011d60 <_dtoa_r+0x440>
40012288:	e3a02000 	mov	r2, #0
4001228c:	ebffbe27 	bl	40001b30 <__adddf3>
40012290:	e59d301c 	ldr	r3, [sp, #28]
40012294:	e3530000 	cmp	r3, #0
40012298:	e1a08000 	mov	r8, r0
4001229c:	e241950d 	sub	r9, r1, #54525952	; 0x3400000
400122a0:	0a0000ee 	beq	40012660 <_dtoa_r+0xd40>
400122a4:	e59d3008 	ldr	r3, [sp, #8]
400122a8:	e58d3044 	str	r3, [sp, #68]	; 0x44
400122ac:	e59d301c 	ldr	r3, [sp, #28]
400122b0:	e58d3040 	str	r3, [sp, #64]	; 0x40
400122b4:	e59d3024 	ldr	r3, [sp, #36]	; 0x24
400122b8:	e3530000 	cmp	r3, #0
400122bc:	0a00017e 	beq	400128bc <_dtoa_r+0xf9c>
400122c0:	e59d2040 	ldr	r2, [sp, #64]	; 0x40
400122c4:	e51f3574 	ldr	r3, [pc, #-1396]	; 40011d58 <_dtoa_r+0x438>
400122c8:	e0833182 	add	r3, r3, r2, lsl #3
400122cc:	e913000c 	ldmdb	r3, {r2, r3}
400122d0:	e3a00000 	mov	r0, #0
400122d4:	e51f1578 	ldr	r1, [pc, #-1400]	; 40011d64 <_dtoa_r+0x444>
400122d8:	ebffbfbc 	bl	400021d0 <__aeabi_ddiv>
400122dc:	e1a02008 	mov	r2, r8
400122e0:	e1a03009 	mov	r3, r9
400122e4:	ebffbe10 	bl	40001b2c <__aeabi_dsub>
400122e8:	e1a08000 	mov	r8, r0
400122ec:	e1a09001 	mov	r9, r1
400122f0:	e1a0000a 	mov	r0, sl
400122f4:	e1a0100b 	mov	r1, fp
400122f8:	ebffc096 	bl	40002558 <__aeabi_d2iz>
400122fc:	e1a05000 	mov	r5, r0
40012300:	ebffbed7 	bl	40001e64 <__aeabi_i2d>
40012304:	e1a02000 	mov	r2, r0
40012308:	e1a03001 	mov	r3, r1
4001230c:	e1a0000a 	mov	r0, sl
40012310:	e1a0100b 	mov	r1, fp
40012314:	ebffbe04 	bl	40001b2c <__aeabi_dsub>
40012318:	e2855030 	add	r5, r5, #48	; 0x30
4001231c:	e205a0ff 	and	sl, r5, #255	; 0xff
40012320:	e59d5010 	ldr	r5, [sp, #16]
40012324:	e1a02000 	mov	r2, r0
40012328:	e5c5a000 	strb	sl, [r5]
4001232c:	e1a03001 	mov	r3, r1
40012330:	e1a06000 	mov	r6, r0
40012334:	e1a07001 	mov	r7, r1
40012338:	e1a00008 	mov	r0, r8
4001233c:	e1a01009 	mov	r1, r9
40012340:	ebffc070 	bl	40002508 <__aeabi_dcmpgt>
40012344:	e3500000 	cmp	r0, #0
40012348:	e2855001 	add	r5, r5, #1
4001234c:	1a00003c 	bne	40012444 <_dtoa_r+0xb24>
40012350:	e1a02006 	mov	r2, r6
40012354:	e1a03007 	mov	r3, r7
40012358:	e3a00000 	mov	r0, #0
4001235c:	e51f1618 	ldr	r1, [pc, #-1560]	; 40011d4c <_dtoa_r+0x42c>
40012360:	ebffbdf1 	bl	40001b2c <__aeabi_dsub>
40012364:	e1a02008 	mov	r2, r8
40012368:	e1a03009 	mov	r3, r9
4001236c:	ebffc053 	bl	400024c0 <__aeabi_dcmplt>
40012370:	e3500000 	cmp	r0, #0
40012374:	1a000292 	bne	40012dc4 <_dtoa_r+0x14a4>
40012378:	e59d2040 	ldr	r2, [sp, #64]	; 0x40
4001237c:	e3520001 	cmp	r2, #1
40012380:	0a0000c9 	beq	400126ac <_dtoa_r+0xd8c>
40012384:	e59d3010 	ldr	r3, [sp, #16]
40012388:	e59d2040 	ldr	r2, [sp, #64]	; 0x40
4001238c:	e083b002 	add	fp, r3, r2
40012390:	ea00000b 	b	400123c4 <_dtoa_r+0xaa4>
40012394:	e1a02006 	mov	r2, r6
40012398:	e1a03007 	mov	r3, r7
4001239c:	e3a00000 	mov	r0, #0
400123a0:	e51f165c 	ldr	r1, [pc, #-1628]	; 40011d4c <_dtoa_r+0x42c>
400123a4:	ebffbde0 	bl	40001b2c <__aeabi_dsub>
400123a8:	e1a02008 	mov	r2, r8
400123ac:	e1a03009 	mov	r3, r9
400123b0:	ebffc042 	bl	400024c0 <__aeabi_dcmplt>
400123b4:	e3500000 	cmp	r0, #0
400123b8:	1a000281 	bne	40012dc4 <_dtoa_r+0x14a4>
400123bc:	e15b0005 	cmp	fp, r5
400123c0:	0a0000b9 	beq	400126ac <_dtoa_r+0xd8c>
400123c4:	e1a00008 	mov	r0, r8
400123c8:	e1a01009 	mov	r1, r9
400123cc:	e3a02000 	mov	r2, #0
400123d0:	e51f367c 	ldr	r3, [pc, #-1660]	; 40011d5c <_dtoa_r+0x43c>
400123d4:	ebffbed9 	bl	40001f40 <__aeabi_dmul>
400123d8:	e3a02000 	mov	r2, #0
400123dc:	e51f3688 	ldr	r3, [pc, #-1672]	; 40011d5c <_dtoa_r+0x43c>
400123e0:	e1a08000 	mov	r8, r0
400123e4:	e1a09001 	mov	r9, r1
400123e8:	e1a00006 	mov	r0, r6
400123ec:	e1a01007 	mov	r1, r7
400123f0:	ebffbed2 	bl	40001f40 <__aeabi_dmul>
400123f4:	e1a07001 	mov	r7, r1
400123f8:	e1a06000 	mov	r6, r0
400123fc:	ebffc055 	bl	40002558 <__aeabi_d2iz>
40012400:	e1a0a000 	mov	sl, r0
40012404:	ebffbe96 	bl	40001e64 <__aeabi_i2d>
40012408:	e1a02000 	mov	r2, r0
4001240c:	e1a03001 	mov	r3, r1
40012410:	e1a00006 	mov	r0, r6
40012414:	e1a01007 	mov	r1, r7
40012418:	ebffbdc3 	bl	40001b2c <__aeabi_dsub>
4001241c:	e28aa030 	add	sl, sl, #48	; 0x30
40012420:	e20aa0ff 	and	sl, sl, #255	; 0xff
40012424:	e4c5a001 	strb	sl, [r5], #1
40012428:	e1a02008 	mov	r2, r8
4001242c:	e1a03009 	mov	r3, r9
40012430:	e1a06000 	mov	r6, r0
40012434:	e1a07001 	mov	r7, r1
40012438:	ebffc020 	bl	400024c0 <__aeabi_dcmplt>
4001243c:	e3500000 	cmp	r0, #0
40012440:	0affffd3 	beq	40012394 <_dtoa_r+0xa74>
40012444:	e59d3044 	ldr	r3, [sp, #68]	; 0x44
40012448:	e58d3008 	str	r3, [sp, #8]
4001244c:	eafffecf 	b	40011f90 <_dtoa_r+0x670>
40012450:	e3a03000 	mov	r3, #0
40012454:	e58d3024 	str	r3, [sp, #36]	; 0x24
40012458:	e59d3084 	ldr	r3, [sp, #132]	; 0x84
4001245c:	e3530000 	cmp	r3, #0
40012460:	da000204 	ble	40012c78 <_dtoa_r+0x1358>
40012464:	e353000e 	cmp	r3, #14
40012468:	83a05000 	movhi	r5, #0
4001246c:	92055001 	andls	r5, r5, #1
40012470:	e1a00003 	mov	r0, r3
40012474:	e58d3034 	str	r3, [sp, #52]	; 0x34
40012478:	e58d301c 	str	r3, [sp, #28]
4001247c:	eaffff30 	b	40012144 <_dtoa_r+0x824>
40012480:	e3a03001 	mov	r3, #1
40012484:	e58d3024 	str	r3, [sp, #36]	; 0x24
40012488:	eafffff2 	b	40012458 <_dtoa_r+0xb38>
4001248c:	e1a02008 	mov	r2, r8
40012490:	e1a03009 	mov	r3, r9
40012494:	e1a0000a 	mov	r0, sl
40012498:	e1a0100b 	mov	r1, fp
4001249c:	ebffbf4b 	bl	400021d0 <__aeabi_ddiv>
400124a0:	ebffc02c 	bl	40002558 <__aeabi_d2iz>
400124a4:	e1a0600a 	mov	r6, sl
400124a8:	e1a0a000 	mov	sl, r0
400124ac:	ebffbe6c 	bl	40001e64 <__aeabi_i2d>
400124b0:	e1a02008 	mov	r2, r8
400124b4:	e1a03009 	mov	r3, r9
400124b8:	ebffbea0 	bl	40001f40 <__aeabi_dmul>
400124bc:	e1a02000 	mov	r2, r0
400124c0:	e1a03001 	mov	r3, r1
400124c4:	e1a00006 	mov	r0, r6
400124c8:	e1a0100b 	mov	r1, fp
400124cc:	ebffbd96 	bl	40001b2c <__aeabi_dsub>
400124d0:	e59de010 	ldr	lr, [sp, #16]
400124d4:	e3550001 	cmp	r5, #1
400124d8:	e28ac030 	add	ip, sl, #48	; 0x30
400124dc:	e1a02000 	mov	r2, r0
400124e0:	e1a03001 	mov	r3, r1
400124e4:	e5cec000 	strb	ip, [lr]
400124e8:	e28e5001 	add	r5, lr, #1
400124ec:	0a00002f 	beq	400125b0 <_dtoa_r+0xc90>
400124f0:	e3a02000 	mov	r2, #0
400124f4:	e51f37a0 	ldr	r3, [pc, #-1952]	; 40011d5c <_dtoa_r+0x43c>
400124f8:	ebffbe90 	bl	40001f40 <__aeabi_dmul>
400124fc:	e3a02000 	mov	r2, #0
40012500:	e3a03000 	mov	r3, #0
40012504:	e1a06000 	mov	r6, r0
40012508:	e1a07001 	mov	r7, r1
4001250c:	ebffbfe5 	bl	400024a8 <__aeabi_dcmpeq>
40012510:	e3500000 	cmp	r0, #0
40012514:	1afffe9d 	bne	40011f90 <_dtoa_r+0x670>
40012518:	e58d400c 	str	r4, [sp, #12]
4001251c:	e59db010 	ldr	fp, [sp, #16]
40012520:	e59d401c 	ldr	r4, [sp, #28]
40012524:	ea000009 	b	40012550 <_dtoa_r+0xc30>
40012528:	e3a02000 	mov	r2, #0
4001252c:	e51f37d8 	ldr	r3, [pc, #-2008]	; 40011d5c <_dtoa_r+0x43c>
40012530:	ebffbe82 	bl	40001f40 <__aeabi_dmul>
40012534:	e3a02000 	mov	r2, #0
40012538:	e3a03000 	mov	r3, #0
4001253c:	e1a06000 	mov	r6, r0
40012540:	e1a07001 	mov	r7, r1
40012544:	ebffbfd7 	bl	400024a8 <__aeabi_dcmpeq>
40012548:	e3500000 	cmp	r0, #0
4001254c:	1a00021a 	bne	40012dbc <_dtoa_r+0x149c>
40012550:	e1a02008 	mov	r2, r8
40012554:	e1a03009 	mov	r3, r9
40012558:	e1a00006 	mov	r0, r6
4001255c:	e1a01007 	mov	r1, r7
40012560:	ebffbf1a 	bl	400021d0 <__aeabi_ddiv>
40012564:	ebffbffb 	bl	40002558 <__aeabi_d2iz>
40012568:	e1a0a000 	mov	sl, r0
4001256c:	ebffbe3c 	bl	40001e64 <__aeabi_i2d>
40012570:	e1a02008 	mov	r2, r8
40012574:	e1a03009 	mov	r3, r9
40012578:	ebffbe70 	bl	40001f40 <__aeabi_dmul>
4001257c:	e1a02000 	mov	r2, r0
40012580:	e1a03001 	mov	r3, r1
40012584:	e1a00006 	mov	r0, r6
40012588:	e1a01007 	mov	r1, r7
4001258c:	ebffbd66 	bl	40001b2c <__aeabi_dsub>
40012590:	e28ac030 	add	ip, sl, #48	; 0x30
40012594:	e4c5c001 	strb	ip, [r5], #1
40012598:	e045c00b 	sub	ip, r5, fp
4001259c:	e15c0004 	cmp	ip, r4
400125a0:	e1a02000 	mov	r2, r0
400125a4:	e1a03001 	mov	r3, r1
400125a8:	1affffde 	bne	40012528 <_dtoa_r+0xc08>
400125ac:	e59d400c 	ldr	r4, [sp, #12]
400125b0:	e1a00002 	mov	r0, r2
400125b4:	e1a01003 	mov	r1, r3
400125b8:	ebffbd5c 	bl	40001b30 <__adddf3>
400125bc:	e1a02000 	mov	r2, r0
400125c0:	e1a03001 	mov	r3, r1
400125c4:	e1a06000 	mov	r6, r0
400125c8:	e1a07001 	mov	r7, r1
400125cc:	e1a00008 	mov	r0, r8
400125d0:	e1a01009 	mov	r1, r9
400125d4:	ebffbfb9 	bl	400024c0 <__aeabi_dcmplt>
400125d8:	e3500000 	cmp	r0, #0
400125dc:	1a000008 	bne	40012604 <_dtoa_r+0xce4>
400125e0:	e1a02006 	mov	r2, r6
400125e4:	e1a03007 	mov	r3, r7
400125e8:	e1a00008 	mov	r0, r8
400125ec:	e1a01009 	mov	r1, r9
400125f0:	ebffbfac 	bl	400024a8 <__aeabi_dcmpeq>
400125f4:	e3500000 	cmp	r0, #0
400125f8:	0afffe64 	beq	40011f90 <_dtoa_r+0x670>
400125fc:	e31a0001 	tst	sl, #1
40012600:	0afffe62 	beq	40011f90 <_dtoa_r+0x670>
40012604:	e555a001 	ldrb	sl, [r5, #-1]
40012608:	e2453001 	sub	r3, r5, #1
4001260c:	e59d2010 	ldr	r2, [sp, #16]
40012610:	ea000002 	b	40012620 <_dtoa_r+0xd00>
40012614:	e1520003 	cmp	r2, r3
40012618:	0a0001b9 	beq	40012d04 <_dtoa_r+0x13e4>
4001261c:	e573a001 	ldrb	sl, [r3, #-1]!
40012620:	e35a0039 	cmp	sl, #57	; 0x39
40012624:	e2835001 	add	r5, r3, #1
40012628:	0afffff9 	beq	40012614 <_dtoa_r+0xcf4>
4001262c:	e28aa001 	add	sl, sl, #1
40012630:	e5c3a000 	strb	sl, [r3]
40012634:	eafffe55 	b	40011f90 <_dtoa_r+0x670>
40012638:	e1a00009 	mov	r0, r9
4001263c:	ebffbe08 	bl	40001e64 <__aeabi_i2d>
40012640:	e1a0200a 	mov	r2, sl
40012644:	e1a0300b 	mov	r3, fp
40012648:	ebffbe3c 	bl	40001f40 <__aeabi_dmul>
4001264c:	e3a02000 	mov	r2, #0
40012650:	e51f38f8 	ldr	r3, [pc, #-2296]	; 40011d60 <_dtoa_r+0x440>
40012654:	ebffbd35 	bl	40001b30 <__adddf3>
40012658:	e1a08000 	mov	r8, r0
4001265c:	e241950d 	sub	r9, r1, #54525952	; 0x3400000
40012660:	e1a0000a 	mov	r0, sl
40012664:	e1a0100b 	mov	r1, fp
40012668:	e3a02000 	mov	r2, #0
4001266c:	e51f3924 	ldr	r3, [pc, #-2340]	; 40011d50 <_dtoa_r+0x430>
40012670:	ebffbd2d 	bl	40001b2c <__aeabi_dsub>
40012674:	e1a02008 	mov	r2, r8
40012678:	e1a03009 	mov	r3, r9
4001267c:	e1a0a000 	mov	sl, r0
40012680:	e1a0b001 	mov	fp, r1
40012684:	ebffbf9f 	bl	40002508 <__aeabi_dcmpgt>
40012688:	e2506000 	subs	r6, r0, #0
4001268c:	1a000061 	bne	40012818 <_dtoa_r+0xef8>
40012690:	e1a02008 	mov	r2, r8
40012694:	e2893102 	add	r3, r9, #-2147483648	; 0x80000000
40012698:	e1a0000a 	mov	r0, sl
4001269c:	e1a0100b 	mov	r1, fp
400126a0:	ebffbf86 	bl	400024c0 <__aeabi_dcmplt>
400126a4:	e3500000 	cmp	r0, #0
400126a8:	1afffd94 	bne	40011d00 <_dtoa_r+0x3e0>
400126ac:	e28db038 	add	fp, sp, #56	; 0x38
400126b0:	e89b0c00 	ldm	fp, {sl, fp}
400126b4:	eafffd70 	b	40011c7c <_dtoa_r+0x35c>
400126b8:	e3a0001c 	mov	r0, #28
400126bc:	e59d3018 	ldr	r3, [sp, #24]
400126c0:	e0833000 	add	r3, r3, r0
400126c4:	e58d3018 	str	r3, [sp, #24]
400126c8:	e59d300c 	ldr	r3, [sp, #12]
400126cc:	e0833000 	add	r3, r3, r0
400126d0:	e0855000 	add	r5, r5, r0
400126d4:	e58d300c 	str	r3, [sp, #12]
400126d8:	eafffdf3 	b	40011eac <_dtoa_r+0x58c>
400126dc:	e59d3024 	ldr	r3, [sp, #36]	; 0x24
400126e0:	e3530000 	cmp	r3, #0
400126e4:	1a0000e9 	bne	40012a90 <_dtoa_r+0x1170>
400126e8:	e59db010 	ldr	fp, [sp, #16]
400126ec:	e3a09000 	mov	r9, #0
400126f0:	e1a0500b 	mov	r5, fp
400126f4:	e3a0800a 	mov	r8, #10
400126f8:	e59da014 	ldr	sl, [sp, #20]
400126fc:	e59d701c 	ldr	r7, [sp, #28]
40012700:	ea000005 	b	4001271c <_dtoa_r+0xdfc>
40012704:	e1a0100a 	mov	r1, sl
40012708:	e1a03009 	mov	r3, r9
4001270c:	e1a02008 	mov	r2, r8
40012710:	e1a00004 	mov	r0, r4
40012714:	eb00057e 	bl	40013d14 <__multadd>
40012718:	e1a0a000 	mov	sl, r0
4001271c:	e1a01006 	mov	r1, r6
40012720:	e1a0000a 	mov	r0, sl
40012724:	ebfffc04 	bl	4001173c <quorem>
40012728:	e2800030 	add	r0, r0, #48	; 0x30
4001272c:	e4c50001 	strb	r0, [r5], #1
40012730:	e045300b 	sub	r3, r5, fp
40012734:	e1570003 	cmp	r7, r3
40012738:	cafffff1 	bgt	40012704 <_dtoa_r+0xde4>
4001273c:	e59d5010 	ldr	r5, [sp, #16]
40012740:	e59d301c 	ldr	r3, [sp, #28]
40012744:	e1a07000 	mov	r7, r0
40012748:	e3530001 	cmp	r3, #1
4001274c:	a0855003 	addge	r5, r5, r3
40012750:	b2855001 	addlt	r5, r5, #1
40012754:	e3a09000 	mov	r9, #0
40012758:	e58da014 	str	sl, [sp, #20]
4001275c:	e59d1014 	ldr	r1, [sp, #20]
40012760:	e3a02001 	mov	r2, #1
40012764:	e1a00004 	mov	r0, r4
40012768:	eb0006d8 	bl	400142d0 <__lshift>
4001276c:	e1a01006 	mov	r1, r6
40012770:	e58d0014 	str	r0, [sp, #20]
40012774:	eb00070f 	bl	400143b8 <__mcmp>
40012778:	e3500000 	cmp	r0, #0
4001277c:	da0001aa 	ble	40012e2c <_dtoa_r+0x150c>
40012780:	e5552001 	ldrb	r2, [r5, #-1]
40012784:	e2453001 	sub	r3, r5, #1
40012788:	e59d1010 	ldr	r1, [sp, #16]
4001278c:	ea000002 	b	4001279c <_dtoa_r+0xe7c>
40012790:	e1510003 	cmp	r1, r3
40012794:	0a000177 	beq	40012d78 <_dtoa_r+0x1458>
40012798:	e5732001 	ldrb	r2, [r3, #-1]!
4001279c:	e3520039 	cmp	r2, #57	; 0x39
400127a0:	e2835001 	add	r5, r3, #1
400127a4:	0afffff9 	beq	40012790 <_dtoa_r+0xe70>
400127a8:	e2822001 	add	r2, r2, #1
400127ac:	e5c32000 	strb	r2, [r3]
400127b0:	e1a01006 	mov	r1, r6
400127b4:	e1a00004 	mov	r0, r4
400127b8:	eb00054e 	bl	40013cf8 <_Bfree>
400127bc:	e59d3020 	ldr	r3, [sp, #32]
400127c0:	e3530000 	cmp	r3, #0
400127c4:	0afffdf1 	beq	40011f90 <_dtoa_r+0x670>
400127c8:	e3590000 	cmp	r9, #0
400127cc:	11590003 	cmpne	r9, r3
400127d0:	0afffdeb 	beq	40011f84 <_dtoa_r+0x664>
400127d4:	e1a01009 	mov	r1, r9
400127d8:	e1a00004 	mov	r0, r4
400127dc:	eb000545 	bl	40013cf8 <_Bfree>
400127e0:	eafffde7 	b	40011f84 <_dtoa_r+0x664>
400127e4:	e59d3080 	ldr	r3, [sp, #128]	; 0x80
400127e8:	e3530001 	cmp	r3, #1
400127ec:	da0001c3 	ble	40012f00 <_dtoa_r+0x15e0>
400127f0:	e3a07000 	mov	r7, #0
400127f4:	e59d3030 	ldr	r3, [sp, #48]	; 0x30
400127f8:	e3530000 	cmp	r3, #0
400127fc:	03a00001 	moveq	r0, #1
40012800:	0afffd9b 	beq	40011e74 <_dtoa_r+0x554>
40012804:	eafffd95 	b	40011e60 <_dtoa_r+0x540>
40012808:	e28db038 	add	fp, sp, #56	; 0x38
4001280c:	e89b0c00 	ldm	fp, {sl, fp}
40012810:	e3a09002 	mov	r9, #2
40012814:	eafffe75 	b	400121f0 <_dtoa_r+0x8d0>
40012818:	e3a06000 	mov	r6, #0
4001281c:	e58d6020 	str	r6, [sp, #32]
40012820:	eafffdca 	b	40011f50 <_dtoa_r+0x630>
40012824:	e59d2028 	ldr	r2, [sp, #40]	; 0x28
40012828:	e59d1014 	ldr	r1, [sp, #20]
4001282c:	e1a00004 	mov	r0, r4
40012830:	eb000665 	bl	400141cc <__pow5mult>
40012834:	e58d0014 	str	r0, [sp, #20]
40012838:	eafffd78 	b	40011e20 <_dtoa_r+0x500>
4001283c:	0a000138 	beq	40012d24 <_dtoa_r+0x1404>
40012840:	e59d3008 	ldr	r3, [sp, #8]
40012844:	e2635000 	rsb	r5, r3, #0
40012848:	e51f3af8 	ldr	r3, [pc, #-2808]	; 40011d58 <_dtoa_r+0x438>
4001284c:	e205200f 	and	r2, r5, #15
40012850:	e0833182 	add	r3, r3, r2, lsl #3
40012854:	e893000c 	ldm	r3, {r2, r3}
40012858:	e28d1038 	add	r1, sp, #56	; 0x38
4001285c:	e8910003 	ldm	r1, {r0, r1}
40012860:	ebffbdb6 	bl	40001f40 <__aeabi_dmul>
40012864:	e1b05245 	asrs	r5, r5, #4
40012868:	e1a0a000 	mov	sl, r0
4001286c:	e1a0b001 	mov	fp, r1
40012870:	e3a09002 	mov	r9, #2
40012874:	0afffe73 	beq	40012248 <_dtoa_r+0x928>
40012878:	e51f6b2c 	ldr	r6, [pc, #-2860]	; 40011d54 <_dtoa_r+0x434>
4001287c:	e3150001 	tst	r5, #1
40012880:	0a000006 	beq	400128a0 <_dtoa_r+0xf80>
40012884:	e1a0000a 	mov	r0, sl
40012888:	e1a0100b 	mov	r1, fp
4001288c:	e896000c 	ldm	r6, {r2, r3}
40012890:	ebffbdaa 	bl	40001f40 <__aeabi_dmul>
40012894:	e1a0a000 	mov	sl, r0
40012898:	e1a0b001 	mov	fp, r1
4001289c:	e2899001 	add	r9, r9, #1
400128a0:	e1b050c5 	asrs	r5, r5, #1
400128a4:	e2866008 	add	r6, r6, #8
400128a8:	1afffff3 	bne	4001287c <_dtoa_r+0xf5c>
400128ac:	eafffe65 	b	40012248 <_dtoa_r+0x928>
400128b0:	e3a03001 	mov	r3, #1
400128b4:	e58d3024 	str	r3, [sp, #36]	; 0x24
400128b8:	eafffe15 	b	40012114 <_dtoa_r+0x7f4>
400128bc:	e59d6040 	ldr	r6, [sp, #64]	; 0x40
400128c0:	e51f1b70 	ldr	r1, [pc, #-2928]	; 40011d58 <_dtoa_r+0x438>
400128c4:	e0811186 	add	r1, r1, r6, lsl #3
400128c8:	e1a02008 	mov	r2, r8
400128cc:	e1a03009 	mov	r3, r9
400128d0:	e9110003 	ldmdb	r1, {r0, r1}
400128d4:	ebffbd99 	bl	40001f40 <__aeabi_dmul>
400128d8:	e58d0048 	str	r0, [sp, #72]	; 0x48
400128dc:	e58d104c 	str	r1, [sp, #76]	; 0x4c
400128e0:	e1a0100b 	mov	r1, fp
400128e4:	e1a0000a 	mov	r0, sl
400128e8:	ebffbf1a 	bl	40002558 <__aeabi_d2iz>
400128ec:	e1a05000 	mov	r5, r0
400128f0:	ebffbd5b 	bl	40001e64 <__aeabi_i2d>
400128f4:	e1a03001 	mov	r3, r1
400128f8:	e1a02000 	mov	r2, r0
400128fc:	e1a0100b 	mov	r1, fp
40012900:	e1a0000a 	mov	r0, sl
40012904:	ebffbc88 	bl	40001b2c <__aeabi_dsub>
40012908:	e59d3010 	ldr	r3, [sp, #16]
4001290c:	e2855030 	add	r5, r5, #48	; 0x30
40012910:	e3560001 	cmp	r6, #1
40012914:	e5c35000 	strb	r5, [r3]
40012918:	e1a08000 	mov	r8, r0
4001291c:	e1a09001 	mov	r9, r1
40012920:	e2835001 	add	r5, r3, #1
40012924:	0a000019 	beq	40012990 <_dtoa_r+0x1070>
40012928:	e3a0a000 	mov	sl, #0
4001292c:	e59d3010 	ldr	r3, [sp, #16]
40012930:	e59d2040 	ldr	r2, [sp, #64]	; 0x40
40012934:	e51fbbe0 	ldr	fp, [pc, #-3040]	; 40011d5c <_dtoa_r+0x43c>
40012938:	e0837002 	add	r7, r3, r2
4001293c:	e1a0200a 	mov	r2, sl
40012940:	e1a0300b 	mov	r3, fp
40012944:	e1a00008 	mov	r0, r8
40012948:	e1a01009 	mov	r1, r9
4001294c:	ebffbd7b 	bl	40001f40 <__aeabi_dmul>
40012950:	e1a09001 	mov	r9, r1
40012954:	e1a08000 	mov	r8, r0
40012958:	ebffbefe 	bl	40002558 <__aeabi_d2iz>
4001295c:	e1a06000 	mov	r6, r0
40012960:	ebffbd3f 	bl	40001e64 <__aeabi_i2d>
40012964:	e1a02000 	mov	r2, r0
40012968:	e1a03001 	mov	r3, r1
4001296c:	e1a00008 	mov	r0, r8
40012970:	e1a01009 	mov	r1, r9
40012974:	ebffbc6c 	bl	40001b2c <__aeabi_dsub>
40012978:	e2866030 	add	r6, r6, #48	; 0x30
4001297c:	e4c56001 	strb	r6, [r5], #1
40012980:	e1570005 	cmp	r7, r5
40012984:	e1a08000 	mov	r8, r0
40012988:	e1a09001 	mov	r9, r1
4001298c:	1affffea 	bne	4001293c <_dtoa_r+0x101c>
40012990:	e3a02000 	mov	r2, #0
40012994:	e51f3c38 	ldr	r3, [pc, #-3128]	; 40011d64 <_dtoa_r+0x444>
40012998:	e28d1048 	add	r1, sp, #72	; 0x48
4001299c:	e8910003 	ldm	r1, {r0, r1}
400129a0:	ebffbc62 	bl	40001b30 <__adddf3>
400129a4:	e1a02008 	mov	r2, r8
400129a8:	e1a03009 	mov	r3, r9
400129ac:	ebffbec3 	bl	400024c0 <__aeabi_dcmplt>
400129b0:	e3500000 	cmp	r0, #0
400129b4:	0a0000de 	beq	40012d34 <_dtoa_r+0x1414>
400129b8:	e59d3044 	ldr	r3, [sp, #68]	; 0x44
400129bc:	e58d3008 	str	r3, [sp, #8]
400129c0:	e555a001 	ldrb	sl, [r5, #-1]
400129c4:	eaffff0f 	b	40012608 <_dtoa_r+0xce8>
400129c8:	e1a01006 	mov	r1, r6
400129cc:	e59d0014 	ldr	r0, [sp, #20]
400129d0:	eb000678 	bl	400143b8 <__mcmp>
400129d4:	e3500000 	cmp	r0, #0
400129d8:	aafffd46 	bge	40011ef8 <_dtoa_r+0x5d8>
400129dc:	e3a03000 	mov	r3, #0
400129e0:	e59d1014 	ldr	r1, [sp, #20]
400129e4:	e3a0200a 	mov	r2, #10
400129e8:	e1a00004 	mov	r0, r4
400129ec:	eb0004c8 	bl	40013d14 <__multadd>
400129f0:	e59d3024 	ldr	r3, [sp, #36]	; 0x24
400129f4:	e3530000 	cmp	r3, #0
400129f8:	e59d3008 	ldr	r3, [sp, #8]
400129fc:	e2433001 	sub	r3, r3, #1
40012a00:	e58d0014 	str	r0, [sp, #20]
40012a04:	e58d3008 	str	r3, [sp, #8]
40012a08:	1a00000e 	bne	40012a48 <_dtoa_r+0x1128>
40012a0c:	e59d2034 	ldr	r2, [sp, #52]	; 0x34
40012a10:	e59d1080 	ldr	r1, [sp, #128]	; 0x80
40012a14:	e3520000 	cmp	r2, #0
40012a18:	e1a03002 	mov	r3, r2
40012a1c:	d3a03001 	movle	r3, #1
40012a20:	c3a03000 	movgt	r3, #0
40012a24:	e3510002 	cmp	r1, #2
40012a28:	d3a03000 	movle	r3, #0
40012a2c:	e3530000 	cmp	r3, #0
40012a30:	01a03002 	moveq	r3, r2
40012a34:	058d301c 	streq	r3, [sp, #28]
40012a38:	0affff2a 	beq	400126e8 <_dtoa_r+0xdc8>
40012a3c:	e59d3034 	ldr	r3, [sp, #52]	; 0x34
40012a40:	e58d301c 	str	r3, [sp, #28]
40012a44:	eafffd34 	b	40011f1c <_dtoa_r+0x5fc>
40012a48:	e59d1020 	ldr	r1, [sp, #32]
40012a4c:	e3a03000 	mov	r3, #0
40012a50:	e3a0200a 	mov	r2, #10
40012a54:	e1a00004 	mov	r0, r4
40012a58:	eb0004ad 	bl	40013d14 <__multadd>
40012a5c:	e59d2034 	ldr	r2, [sp, #52]	; 0x34
40012a60:	e59d1080 	ldr	r1, [sp, #128]	; 0x80
40012a64:	e3520000 	cmp	r2, #0
40012a68:	e1a03002 	mov	r3, r2
40012a6c:	d3a03001 	movle	r3, #1
40012a70:	c3a03000 	movgt	r3, #0
40012a74:	e3510002 	cmp	r1, #2
40012a78:	d3a03000 	movle	r3, #0
40012a7c:	e3530000 	cmp	r3, #0
40012a80:	01a03002 	moveq	r3, r2
40012a84:	e58d0020 	str	r0, [sp, #32]
40012a88:	058d301c 	streq	r3, [sp, #28]
40012a8c:	1affffea 	bne	40012a3c <_dtoa_r+0x111c>
40012a90:	e3550000 	cmp	r5, #0
40012a94:	da000004 	ble	40012aac <_dtoa_r+0x118c>
40012a98:	e1a02005 	mov	r2, r5
40012a9c:	e59d1020 	ldr	r1, [sp, #32]
40012aa0:	e1a00004 	mov	r0, r4
40012aa4:	eb000609 	bl	400142d0 <__lshift>
40012aa8:	e58d0020 	str	r0, [sp, #32]
40012aac:	e3570000 	cmp	r7, #0
40012ab0:	059d8020 	ldreq	r8, [sp, #32]
40012ab4:	1a0000e9 	bne	40012e60 <_dtoa_r+0x1540>
40012ab8:	e59d301c 	ldr	r3, [sp, #28]
40012abc:	e59d2010 	ldr	r2, [sp, #16]
40012ac0:	e2433001 	sub	r3, r3, #1
40012ac4:	e0823003 	add	r3, r2, r3
40012ac8:	e58d301c 	str	r3, [sp, #28]
40012acc:	e20a3001 	and	r3, sl, #1
40012ad0:	e1a07006 	mov	r7, r6
40012ad4:	e1a05002 	mov	r5, r2
40012ad8:	e58d3018 	str	r3, [sp, #24]
40012adc:	e59d9020 	ldr	r9, [sp, #32]
40012ae0:	e59d6014 	ldr	r6, [sp, #20]
40012ae4:	ea000008 	b	40012b0c <_dtoa_r+0x11ec>
40012ae8:	eb000489 	bl	40013d14 <__multadd>
40012aec:	e1a01008 	mov	r1, r8
40012af0:	e1a09000 	mov	r9, r0
40012af4:	e3a03000 	mov	r3, #0
40012af8:	e3a0200a 	mov	r2, #10
40012afc:	e1a00004 	mov	r0, r4
40012b00:	eb000483 	bl	40013d14 <__multadd>
40012b04:	e1a08000 	mov	r8, r0
40012b08:	e1a0500a 	mov	r5, sl
40012b0c:	e1a01007 	mov	r1, r7
40012b10:	e1a00006 	mov	r0, r6
40012b14:	ebfffb08 	bl	4001173c <quorem>
40012b18:	e1a01009 	mov	r1, r9
40012b1c:	e1a0a000 	mov	sl, r0
40012b20:	e1a00006 	mov	r0, r6
40012b24:	eb000623 	bl	400143b8 <__mcmp>
40012b28:	e1a02008 	mov	r2, r8
40012b2c:	e1a0b000 	mov	fp, r0
40012b30:	e1a01007 	mov	r1, r7
40012b34:	e1a00004 	mov	r0, r4
40012b38:	eb000636 	bl	40014418 <__mdiff>
40012b3c:	e590200c 	ldr	r2, [r0, #12]
40012b40:	e3520000 	cmp	r2, #0
40012b44:	e28a2030 	add	r2, sl, #48	; 0x30
40012b48:	e1a03000 	mov	r3, r0
40012b4c:	e58d200c 	str	r2, [sp, #12]
40012b50:	1a000031 	bne	40012c1c <_dtoa_r+0x12fc>
40012b54:	e1a01000 	mov	r1, r0
40012b58:	e58d0014 	str	r0, [sp, #20]
40012b5c:	e1a00006 	mov	r0, r6
40012b60:	eb000614 	bl	400143b8 <__mcmp>
40012b64:	e1a02000 	mov	r2, r0
40012b68:	e59d3014 	ldr	r3, [sp, #20]
40012b6c:	e1a01003 	mov	r1, r3
40012b70:	e1a00004 	mov	r0, r4
40012b74:	e58d2014 	str	r2, [sp, #20]
40012b78:	eb00045e 	bl	40013cf8 <_Bfree>
40012b7c:	e59d3080 	ldr	r3, [sp, #128]	; 0x80
40012b80:	e59d2014 	ldr	r2, [sp, #20]
40012b84:	e1923003 	orrs	r3, r2, r3
40012b88:	1a000002 	bne	40012b98 <_dtoa_r+0x1278>
40012b8c:	e59d3018 	ldr	r3, [sp, #24]
40012b90:	e3530000 	cmp	r3, #0
40012b94:	0a0000dc 	beq	40012f0c <_dtoa_r+0x15ec>
40012b98:	e35b0000 	cmp	fp, #0
40012b9c:	ba00008b 	blt	40012dd0 <_dtoa_r+0x14b0>
40012ba0:	e59d3080 	ldr	r3, [sp, #128]	; 0x80
40012ba4:	e19b3003 	orrs	r3, fp, r3
40012ba8:	1a000002 	bne	40012bb8 <_dtoa_r+0x1298>
40012bac:	e59d3018 	ldr	r3, [sp, #24]
40012bb0:	e3530000 	cmp	r3, #0
40012bb4:	0a000085 	beq	40012dd0 <_dtoa_r+0x14b0>
40012bb8:	e3520000 	cmp	r2, #0
40012bbc:	ca0000b8 	bgt	40012ea4 <_dtoa_r+0x1584>
40012bc0:	e59d301c 	ldr	r3, [sp, #28]
40012bc4:	e1550003 	cmp	r5, r3
40012bc8:	e5dd300c 	ldrb	r3, [sp, #12]
40012bcc:	e285a001 	add	sl, r5, #1
40012bd0:	e5c53000 	strb	r3, [r5]
40012bd4:	e1a0500a 	mov	r5, sl
40012bd8:	0a0000bd 	beq	40012ed4 <_dtoa_r+0x15b4>
40012bdc:	e1a01006 	mov	r1, r6
40012be0:	e3a03000 	mov	r3, #0
40012be4:	e3a0200a 	mov	r2, #10
40012be8:	e1a00004 	mov	r0, r4
40012bec:	eb000448 	bl	40013d14 <__multadd>
40012bf0:	e1590008 	cmp	r9, r8
40012bf4:	e1a06000 	mov	r6, r0
40012bf8:	e1a01009 	mov	r1, r9
40012bfc:	e3a03000 	mov	r3, #0
40012c00:	e3a0200a 	mov	r2, #10
40012c04:	e1a00004 	mov	r0, r4
40012c08:	1affffb6 	bne	40012ae8 <_dtoa_r+0x11c8>
40012c0c:	eb000440 	bl	40013d14 <__multadd>
40012c10:	e1a09000 	mov	r9, r0
40012c14:	e1a08000 	mov	r8, r0
40012c18:	eaffffba 	b	40012b08 <_dtoa_r+0x11e8>
40012c1c:	e3a02001 	mov	r2, #1
40012c20:	eaffffd1 	b	40012b6c <_dtoa_r+0x124c>
40012c24:	e59d0010 	ldr	r0, [sp, #16]
40012c28:	eafffb68 	b	400119d0 <_dtoa_r+0xb0>
40012c2c:	e35a0000 	cmp	sl, #0
40012c30:	1afffc89 	bne	40011e5c <_dtoa_r+0x53c>
40012c34:	e3cb34ff 	bic	r3, fp, #-16777216	; 0xff000000
40012c38:	e3c3360f 	bic	r3, r3, #15728640	; 0xf00000
40012c3c:	e3530000 	cmp	r3, #0
40012c40:	1afffeea 	bne	400127f0 <_dtoa_r+0xed0>
40012c44:	e3cb7102 	bic	r7, fp, #-2147483648	; 0x80000000
40012c48:	e1a07a27 	lsr	r7, r7, #20
40012c4c:	e1a07a07 	lsl	r7, r7, #20
40012c50:	e3570000 	cmp	r7, #0
40012c54:	0afffee6 	beq	400127f4 <_dtoa_r+0xed4>
40012c58:	e59d3018 	ldr	r3, [sp, #24]
40012c5c:	e2833001 	add	r3, r3, #1
40012c60:	e58d3018 	str	r3, [sp, #24]
40012c64:	e59d300c 	ldr	r3, [sp, #12]
40012c68:	e2833001 	add	r3, r3, #1
40012c6c:	e58d300c 	str	r3, [sp, #12]
40012c70:	e3a07001 	mov	r7, #1
40012c74:	eafffede 	b	400127f4 <_dtoa_r+0xed4>
40012c78:	e3a03001 	mov	r3, #1
40012c7c:	e3a01000 	mov	r1, #0
40012c80:	e58d3034 	str	r3, [sp, #52]	; 0x34
40012c84:	e5841044 	str	r1, [r4, #68]	; 0x44
40012c88:	e58d3084 	str	r3, [sp, #132]	; 0x84
40012c8c:	e58d301c 	str	r3, [sp, #28]
40012c90:	eafffd38 	b	40012178 <_dtoa_r+0x858>
40012c94:	e59d301c 	ldr	r3, [sp, #28]
40012c98:	e3530000 	cmp	r3, #0
40012c9c:	0afffe65 	beq	40012638 <_dtoa_r+0xd18>
40012ca0:	e59d5034 	ldr	r5, [sp, #52]	; 0x34
40012ca4:	e3550000 	cmp	r5, #0
40012ca8:	dafffe7f 	ble	400126ac <_dtoa_r+0xd8c>
40012cac:	e3a02000 	mov	r2, #0
40012cb0:	e51f3f5c 	ldr	r3, [pc, #-3932]	; 40011d5c <_dtoa_r+0x43c>
40012cb4:	e1a0000a 	mov	r0, sl
40012cb8:	e1a0100b 	mov	r1, fp
40012cbc:	ebffbc9f 	bl	40001f40 <__aeabi_dmul>
40012cc0:	e1a0a000 	mov	sl, r0
40012cc4:	e1a0b001 	mov	fp, r1
40012cc8:	e2890001 	add	r0, r9, #1
40012ccc:	ebffbc64 	bl	40001e64 <__aeabi_i2d>
40012cd0:	e1a0200a 	mov	r2, sl
40012cd4:	e1a0300b 	mov	r3, fp
40012cd8:	ebffbc98 	bl	40001f40 <__aeabi_dmul>
40012cdc:	e51f3f84 	ldr	r3, [pc, #-3972]	; 40011d60 <_dtoa_r+0x440>
40012ce0:	e3a02000 	mov	r2, #0
40012ce4:	ebffbb91 	bl	40001b30 <__adddf3>
40012ce8:	e59d3008 	ldr	r3, [sp, #8]
40012cec:	e2433001 	sub	r3, r3, #1
40012cf0:	e1a08000 	mov	r8, r0
40012cf4:	e58d3044 	str	r3, [sp, #68]	; 0x44
40012cf8:	e241950d 	sub	r9, r1, #54525952	; 0x3400000
40012cfc:	e58d5040 	str	r5, [sp, #64]	; 0x40
40012d00:	eafffd6b 	b	400122b4 <_dtoa_r+0x994>
40012d04:	e3a02030 	mov	r2, #48	; 0x30
40012d08:	e59d1010 	ldr	r1, [sp, #16]
40012d0c:	e5c12000 	strb	r2, [r1]
40012d10:	e59d2008 	ldr	r2, [sp, #8]
40012d14:	e2822001 	add	r2, r2, #1
40012d18:	e58d2008 	str	r2, [sp, #8]
40012d1c:	e555a001 	ldrb	sl, [r5, #-1]
40012d20:	eafffe41 	b	4001262c <_dtoa_r+0xd0c>
40012d24:	e28db038 	add	fp, sp, #56	; 0x38
40012d28:	e89b0c00 	ldm	fp, {sl, fp}
40012d2c:	e3a09002 	mov	r9, #2
40012d30:	eafffd44 	b	40012248 <_dtoa_r+0x928>
40012d34:	e28d3048 	add	r3, sp, #72	; 0x48
40012d38:	e893000c 	ldm	r3, {r2, r3}
40012d3c:	e3a00000 	mov	r0, #0
40012d40:	e51f1fe4 	ldr	r1, [pc, #-4068]	; 40011d64 <_dtoa_r+0x444>
40012d44:	ebffbb78 	bl	40001b2c <__aeabi_dsub>
40012d48:	e1a02008 	mov	r2, r8
40012d4c:	e1a03009 	mov	r3, r9
40012d50:	ebffbdec 	bl	40002508 <__aeabi_dcmpgt>
40012d54:	e3500000 	cmp	r0, #0
40012d58:	1a000001 	bne	40012d64 <_dtoa_r+0x1444>
40012d5c:	eafffe52 	b	400126ac <_dtoa_r+0xd8c>
40012d60:	e1a05003 	mov	r5, r3
40012d64:	e5553001 	ldrb	r3, [r5, #-1]
40012d68:	e3530030 	cmp	r3, #48	; 0x30
40012d6c:	e2453001 	sub	r3, r5, #1
40012d70:	0afffffa 	beq	40012d60 <_dtoa_r+0x1440>
40012d74:	eafffdb2 	b	40012444 <_dtoa_r+0xb24>
40012d78:	e3a03031 	mov	r3, #49	; 0x31
40012d7c:	e59d2008 	ldr	r2, [sp, #8]
40012d80:	e2822001 	add	r2, r2, #1
40012d84:	e58d2008 	str	r2, [sp, #8]
40012d88:	e59d2010 	ldr	r2, [sp, #16]
40012d8c:	e5c23000 	strb	r3, [r2]
40012d90:	eafffe86 	b	400127b0 <_dtoa_r+0xe90>
40012d94:	e59d2020 	ldr	r2, [sp, #32]
40012d98:	e3520000 	cmp	r2, #0
40012d9c:	059d3050 	ldreq	r3, [sp, #80]	; 0x50
40012da0:	12833e43 	addne	r3, r3, #1072	; 0x430
40012da4:	12833003 	addne	r3, r3, #3
40012da8:	159d6028 	ldrne	r6, [sp, #40]	; 0x28
40012dac:	059d6028 	ldreq	r6, [sp, #40]	; 0x28
40012db0:	02633036 	rsbeq	r3, r3, #54	; 0x36
40012db4:	e59d5018 	ldr	r5, [sp, #24]
40012db8:	eafffcc8 	b	400120e0 <_dtoa_r+0x7c0>
40012dbc:	e59d400c 	ldr	r4, [sp, #12]
40012dc0:	eafffc72 	b	40011f90 <_dtoa_r+0x670>
40012dc4:	e59d3044 	ldr	r3, [sp, #68]	; 0x44
40012dc8:	e58d3008 	str	r3, [sp, #8]
40012dcc:	eafffe0d 	b	40012608 <_dtoa_r+0xce8>
40012dd0:	e3520000 	cmp	r2, #0
40012dd4:	e1a01006 	mov	r1, r6
40012dd8:	e58d6014 	str	r6, [sp, #20]
40012ddc:	e58d9020 	str	r9, [sp, #32]
40012de0:	e1a06007 	mov	r6, r7
40012de4:	e59d700c 	ldr	r7, [sp, #12]
40012de8:	da00000a 	ble	40012e18 <_dtoa_r+0x14f8>
40012dec:	e3a02001 	mov	r2, #1
40012df0:	e1a00004 	mov	r0, r4
40012df4:	eb000535 	bl	400142d0 <__lshift>
40012df8:	e1a01006 	mov	r1, r6
40012dfc:	e58d0014 	str	r0, [sp, #20]
40012e00:	eb00056c 	bl	400143b8 <__mcmp>
40012e04:	e3500000 	cmp	r0, #0
40012e08:	da000048 	ble	40012f30 <_dtoa_r+0x1610>
40012e0c:	e3570039 	cmp	r7, #57	; 0x39
40012e10:	0a000034 	beq	40012ee8 <_dtoa_r+0x15c8>
40012e14:	e28a7031 	add	r7, sl, #49	; 0x31
40012e18:	e59d9020 	ldr	r9, [sp, #32]
40012e1c:	e5c57000 	strb	r7, [r5]
40012e20:	e58d8020 	str	r8, [sp, #32]
40012e24:	e2855001 	add	r5, r5, #1
40012e28:	eafffe60 	b	400127b0 <_dtoa_r+0xe90>
40012e2c:	1a000003 	bne	40012e40 <_dtoa_r+0x1520>
40012e30:	e3170001 	tst	r7, #1
40012e34:	0a000001 	beq	40012e40 <_dtoa_r+0x1520>
40012e38:	eafffe50 	b	40012780 <_dtoa_r+0xe60>
40012e3c:	e1a05003 	mov	r5, r3
40012e40:	e5553001 	ldrb	r3, [r5, #-1]
40012e44:	e3530030 	cmp	r3, #48	; 0x30
40012e48:	e2453001 	sub	r3, r5, #1
40012e4c:	0afffffa 	beq	40012e3c <_dtoa_r+0x151c>
40012e50:	eafffe56 	b	400127b0 <_dtoa_r+0xe90>
40012e54:	e3a06000 	mov	r6, #0
40012e58:	e58d6020 	str	r6, [sp, #32]
40012e5c:	eafffba8 	b	40011d04 <_dtoa_r+0x3e4>
40012e60:	e59d7020 	ldr	r7, [sp, #32]
40012e64:	e1a00004 	mov	r0, r4
40012e68:	e5971004 	ldr	r1, [r7, #4]
40012e6c:	eb00037e 	bl	40013c6c <_Balloc>
40012e70:	e1a05000 	mov	r5, r0
40012e74:	e5972010 	ldr	r2, [r7, #16]
40012e78:	e2822002 	add	r2, r2, #2
40012e7c:	e1a02102 	lsl	r2, r2, #2
40012e80:	e287100c 	add	r1, r7, #12
40012e84:	e280000c 	add	r0, r0, #12
40012e88:	ebffe409 	bl	4000beb4 <memcpy>
40012e8c:	e1a01005 	mov	r1, r5
40012e90:	e3a02001 	mov	r2, #1
40012e94:	e1a00004 	mov	r0, r4
40012e98:	eb00050c 	bl	400142d0 <__lshift>
40012e9c:	e1a08000 	mov	r8, r0
40012ea0:	eaffff04 	b	40012ab8 <_dtoa_r+0x1198>
40012ea4:	e58d6014 	str	r6, [sp, #20]
40012ea8:	e1a06007 	mov	r6, r7
40012eac:	e59d700c 	ldr	r7, [sp, #12]
40012eb0:	e3570039 	cmp	r7, #57	; 0x39
40012eb4:	e58d9020 	str	r9, [sp, #32]
40012eb8:	0a00000a 	beq	40012ee8 <_dtoa_r+0x15c8>
40012ebc:	e2877001 	add	r7, r7, #1
40012ec0:	e5c57000 	strb	r7, [r5]
40012ec4:	e59d9020 	ldr	r9, [sp, #32]
40012ec8:	e2855001 	add	r5, r5, #1
40012ecc:	e58d8020 	str	r8, [sp, #32]
40012ed0:	eafffe36 	b	400127b0 <_dtoa_r+0xe90>
40012ed4:	e58d6014 	str	r6, [sp, #20]
40012ed8:	e58d8020 	str	r8, [sp, #32]
40012edc:	e1a06007 	mov	r6, r7
40012ee0:	e59d700c 	ldr	r7, [sp, #12]
40012ee4:	eafffe1c 	b	4001275c <_dtoa_r+0xe3c>
40012ee8:	e3a02039 	mov	r2, #57	; 0x39
40012eec:	e59d9020 	ldr	r9, [sp, #32]
40012ef0:	e5c52000 	strb	r2, [r5]
40012ef4:	e58d8020 	str	r8, [sp, #32]
40012ef8:	e2855001 	add	r5, r5, #1
40012efc:	eafffe20 	b	40012784 <_dtoa_r+0xe64>
40012f00:	e35a0000 	cmp	sl, #0
40012f04:	1afffe39 	bne	400127f0 <_dtoa_r+0xed0>
40012f08:	eaffff49 	b	40012c34 <_dtoa_r+0x1314>
40012f0c:	e58d6014 	str	r6, [sp, #20]
40012f10:	e1a06007 	mov	r6, r7
40012f14:	e59d700c 	ldr	r7, [sp, #12]
40012f18:	e3570039 	cmp	r7, #57	; 0x39
40012f1c:	e58d9020 	str	r9, [sp, #32]
40012f20:	0afffff0 	beq	40012ee8 <_dtoa_r+0x15c8>
40012f24:	e35b0000 	cmp	fp, #0
40012f28:	caffffb9 	bgt	40012e14 <_dtoa_r+0x14f4>
40012f2c:	eaffffb9 	b	40012e18 <_dtoa_r+0x14f8>
40012f30:	1affffb8 	bne	40012e18 <_dtoa_r+0x14f8>
40012f34:	e3170001 	tst	r7, #1
40012f38:	0affffb6 	beq	40012e18 <_dtoa_r+0x14f8>
40012f3c:	eaffffb2 	b	40012e0c <_dtoa_r+0x14ec>
40012f40:	1260003c 	rsbne	r0, r0, #60	; 0x3c
40012f44:	0afffbd8 	beq	40011eac <_dtoa_r+0x58c>
40012f48:	eafffddb 	b	400126bc <_dtoa_r+0xd9c>
40012f4c:	e3e03000 	mvn	r3, #0
40012f50:	e58d5084 	str	r5, [sp, #132]	; 0x84
40012f54:	e58d301c 	str	r3, [sp, #28]
40012f58:	eafffb4f 	b	40011c9c <_dtoa_r+0x37c>

Disassembly of section .text.__sflush_r:

40012f5c <__sflush_r>:
40012f5c:	e1d130fc 	ldrsh	r3, [r1, #12]
40012f60:	e1a02803 	lsl	r2, r3, #16
40012f64:	e3120702 	tst	r2, #524288	; 0x80000
40012f68:	e92d41f0 	push	{r4, r5, r6, r7, r8, lr}
40012f6c:	e1a05001 	mov	r5, r1
40012f70:	e1a08000 	mov	r8, r0
40012f74:	1a000034 	bne	4001304c <__sflush_r+0xf0>
40012f78:	e5912004 	ldr	r2, [r1, #4]
40012f7c:	e3833b02 	orr	r3, r3, #2048	; 0x800
40012f80:	e3520000 	cmp	r2, #0
40012f84:	e1c130bc 	strh	r3, [r1, #12]
40012f88:	da000050 	ble	400130d0 <__sflush_r+0x174>
40012f8c:	e5954028 	ldr	r4, [r5, #40]	; 0x28
40012f90:	e3540000 	cmp	r4, #0
40012f94:	0a000050 	beq	400130dc <__sflush_r+0x180>
40012f98:	e3a02000 	mov	r2, #0
40012f9c:	e1a03803 	lsl	r3, r3, #16
40012fa0:	e2030201 	and	r0, r3, #268435456	; 0x10000000
40012fa4:	e1b07820 	lsrs	r7, r0, #16
40012fa8:	e5986000 	ldr	r6, [r8]
40012fac:	e1a03823 	lsr	r3, r3, #16
40012fb0:	e5882000 	str	r2, [r8]
40012fb4:	0a00005e 	beq	40013134 <__sflush_r+0x1d8>
40012fb8:	e5952050 	ldr	r2, [r5, #80]	; 0x50
40012fbc:	e3130004 	tst	r3, #4
40012fc0:	0a000005 	beq	40012fdc <__sflush_r+0x80>
40012fc4:	e5951030 	ldr	r1, [r5, #48]	; 0x30
40012fc8:	e5953004 	ldr	r3, [r5, #4]
40012fcc:	e3510000 	cmp	r1, #0
40012fd0:	e0422003 	sub	r2, r2, r3
40012fd4:	1595303c 	ldrne	r3, [r5, #60]	; 0x3c
40012fd8:	10422003 	subne	r2, r2, r3
40012fdc:	e3a03000 	mov	r3, #0
40012fe0:	e595101c 	ldr	r1, [r5, #28]
40012fe4:	e1a00008 	mov	r0, r8
40012fe8:	e1a0e00f 	mov	lr, pc
40012fec:	e12fff14 	bx	r4
40012ff0:	e3700001 	cmn	r0, #1
40012ff4:	0a00003b 	beq	400130e8 <__sflush_r+0x18c>
40012ff8:	e3a01000 	mov	r1, #0
40012ffc:	e1d530fc 	ldrsh	r3, [r5, #12]
40013000:	e5952010 	ldr	r2, [r5, #16]
40013004:	e3c33b02 	bic	r3, r3, #2048	; 0x800
40013008:	e3130a01 	tst	r3, #4096	; 0x1000
4001300c:	e1c530bc 	strh	r3, [r5, #12]
40013010:	e5851004 	str	r1, [r5, #4]
40013014:	e5852000 	str	r2, [r5]
40013018:	1a000043 	bne	4001312c <__sflush_r+0x1d0>
4001301c:	e5951030 	ldr	r1, [r5, #48]	; 0x30
40013020:	e3510000 	cmp	r1, #0
40013024:	e5886000 	str	r6, [r8]
40013028:	0a00002b 	beq	400130dc <__sflush_r+0x180>
4001302c:	e2853040 	add	r3, r5, #64	; 0x40
40013030:	e1510003 	cmp	r1, r3
40013034:	11a00008 	movne	r0, r8
40013038:	1b000191 	blne	40013684 <_free_r>
4001303c:	e3a00000 	mov	r0, #0
40013040:	e5850030 	str	r0, [r5, #48]	; 0x30
40013044:	e8bd41f0 	pop	{r4, r5, r6, r7, r8, lr}
40013048:	e12fff1e 	bx	lr
4001304c:	e5916010 	ldr	r6, [r1, #16]
40013050:	e3560000 	cmp	r6, #0
40013054:	0a000020 	beq	400130dc <__sflush_r+0x180>
40013058:	e1a02822 	lsr	r2, r2, #16
4001305c:	e3120003 	tst	r2, #3
40013060:	13a03000 	movne	r3, #0
40013064:	e5914000 	ldr	r4, [r1]
40013068:	05913014 	ldreq	r3, [r1, #20]
4001306c:	e0444006 	sub	r4, r4, r6
40013070:	e3540000 	cmp	r4, #0
40013074:	e5816000 	str	r6, [r1]
40013078:	e5813008 	str	r3, [r1, #8]
4001307c:	ca000003 	bgt	40013090 <__sflush_r+0x134>
40013080:	ea000015 	b	400130dc <__sflush_r+0x180>
40013084:	e3540000 	cmp	r4, #0
40013088:	e0866000 	add	r6, r6, r0
4001308c:	da000012 	ble	400130dc <__sflush_r+0x180>
40013090:	e1a03004 	mov	r3, r4
40013094:	e5957024 	ldr	r7, [r5, #36]	; 0x24
40013098:	e1a02006 	mov	r2, r6
4001309c:	e595101c 	ldr	r1, [r5, #28]
400130a0:	e1a00008 	mov	r0, r8
400130a4:	e1a0e00f 	mov	lr, pc
400130a8:	e12fff17 	bx	r7
400130ac:	e3500000 	cmp	r0, #0
400130b0:	e0444000 	sub	r4, r4, r0
400130b4:	cafffff2 	bgt	40013084 <__sflush_r+0x128>
400130b8:	e3e00000 	mvn	r0, #0
400130bc:	e1d530bc 	ldrh	r3, [r5, #12]
400130c0:	e3833040 	orr	r3, r3, #64	; 0x40
400130c4:	e1c530bc 	strh	r3, [r5, #12]
400130c8:	e8bd41f0 	pop	{r4, r5, r6, r7, r8, lr}
400130cc:	e12fff1e 	bx	lr
400130d0:	e591203c 	ldr	r2, [r1, #60]	; 0x3c
400130d4:	e3520000 	cmp	r2, #0
400130d8:	caffffab 	bgt	40012f8c <__sflush_r+0x30>
400130dc:	e3a00000 	mov	r0, #0
400130e0:	e8bd41f0 	pop	{r4, r5, r6, r7, r8, lr}
400130e4:	e12fff1e 	bx	lr
400130e8:	e5981000 	ldr	r1, [r8]
400130ec:	e351001d 	cmp	r1, #29
400130f0:	8afffff0 	bhi	400130b8 <__sflush_r+0x15c>
400130f4:	e59f3098 	ldr	r3, [pc, #152]	; 40013194 <__sflush_r+0x238>
400130f8:	e1e03133 	mvn	r3, r3, lsr r1
400130fc:	e2133001 	ands	r3, r3, #1
40013100:	1affffec 	bne	400130b8 <__sflush_r+0x15c>
40013104:	e1d520fc 	ldrsh	r2, [r5, #12]
40013108:	e595c010 	ldr	ip, [r5, #16]
4001310c:	e3c22b02 	bic	r2, r2, #2048	; 0x800
40013110:	e3120a01 	tst	r2, #4096	; 0x1000
40013114:	e5853004 	str	r3, [r5, #4]
40013118:	e1c520bc 	strh	r2, [r5, #12]
4001311c:	e585c000 	str	ip, [r5]
40013120:	0affffbd 	beq	4001301c <__sflush_r+0xc0>
40013124:	e3510000 	cmp	r1, #0
40013128:	1affffbb 	bne	4001301c <__sflush_r+0xc0>
4001312c:	e5850050 	str	r0, [r5, #80]	; 0x50
40013130:	eaffffb9 	b	4001301c <__sflush_r+0xc0>
40013134:	e1a02007 	mov	r2, r7
40013138:	e3a03001 	mov	r3, #1
4001313c:	e595101c 	ldr	r1, [r5, #28]
40013140:	e1a00008 	mov	r0, r8
40013144:	e1a0e00f 	mov	lr, pc
40013148:	e12fff14 	bx	r4
4001314c:	e3700001 	cmn	r0, #1
40013150:	e1a02000 	mov	r2, r0
40013154:	0a000002 	beq	40013164 <__sflush_r+0x208>
40013158:	e1d530bc 	ldrh	r3, [r5, #12]
4001315c:	e5954028 	ldr	r4, [r5, #40]	; 0x28
40013160:	eaffff95 	b	40012fbc <__sflush_r+0x60>
40013164:	e5983000 	ldr	r3, [r8]
40013168:	e3530000 	cmp	r3, #0
4001316c:	0afffff9 	beq	40013158 <__sflush_r+0x1fc>
40013170:	e3530016 	cmp	r3, #22
40013174:	1353001d 	cmpne	r3, #29
40013178:	11d530bc 	ldrhne	r3, [r5, #12]
4001317c:	13833040 	orrne	r3, r3, #64	; 0x40
40013180:	05886000 	streq	r6, [r8]
40013184:	01a00007 	moveq	r0, r7
40013188:	11a00002 	movne	r0, r2
4001318c:	11c530bc 	strhne	r3, [r5, #12]
40013190:	eaffffcc 	b	400130c8 <__sflush_r+0x16c>
40013194:	20400001 	.word	0x20400001

Disassembly of section .text._fflush_r:

40013198 <_fflush_r>:
40013198:	e92d4010 	push	{r4, lr}
4001319c:	e2504000 	subs	r4, r0, #0
400131a0:	e24dd008 	sub	sp, sp, #8
400131a4:	0a000002 	beq	400131b4 <_fflush_r+0x1c>
400131a8:	e5943038 	ldr	r3, [r4, #56]	; 0x38
400131ac:	e3530000 	cmp	r3, #0
400131b0:	0a000009 	beq	400131dc <_fflush_r+0x44>
400131b4:	e1d100fc 	ldrsh	r0, [r1, #12]
400131b8:	e3500000 	cmp	r0, #0
400131bc:	1a000002 	bne	400131cc <_fflush_r+0x34>
400131c0:	e28dd008 	add	sp, sp, #8
400131c4:	e8bd4010 	pop	{r4, lr}
400131c8:	e12fff1e 	bx	lr
400131cc:	e1a00004 	mov	r0, r4
400131d0:	e28dd008 	add	sp, sp, #8
400131d4:	e8bd4010 	pop	{r4, lr}
400131d8:	eaffff5f 	b	40012f5c <__sflush_r>
400131dc:	e58d1004 	str	r1, [sp, #4]
400131e0:	eb0000cd 	bl	4001351c <__sinit>
400131e4:	e59d1004 	ldr	r1, [sp, #4]
400131e8:	eafffff1 	b	400131b4 <_fflush_r+0x1c>

Disassembly of section .text.fflush:

400131ec <fflush>:
400131ec:	e2501000 	subs	r1, r0, #0
400131f0:	159f3020 	ldrne	r3, [pc, #32]	; 40013218 <fflush+0x2c>
400131f4:	15930000 	ldrne	r0, [r3]
400131f8:	1affffe6 	bne	40013198 <_fflush_r>
400131fc:	e92d4010 	push	{r4, lr}
40013200:	e59f3014 	ldr	r3, [pc, #20]	; 4001321c <fflush+0x30>
40013204:	e59f1014 	ldr	r1, [pc, #20]	; 40013220 <fflush+0x34>
40013208:	e5930000 	ldr	r0, [r3]
4001320c:	eb0001f5 	bl	400139e8 <_fwalk_reent>
40013210:	e8bd4010 	pop	{r4, lr}
40013214:	e12fff1e 	bx	lr
40013218:	40019b60 	.word	0x40019b60
4001321c:	40019798 	.word	0x40019798
40013220:	40013198 	.word	0x40013198

Disassembly of section .text.__fp_unlock:

40013224 <__fp_unlock>:
40013224:	e3a00000 	mov	r0, #0
40013228:	e12fff1e 	bx	lr

Disassembly of section .text._cleanup_r:

4001322c <_cleanup_r>:
4001322c:	e92d4010 	push	{r4, lr}
40013230:	e59f1008 	ldr	r1, [pc, #8]	; 40013240 <_cleanup_r+0x14>
40013234:	eb0001eb 	bl	400139e8 <_fwalk_reent>
40013238:	e8bd4010 	pop	{r4, lr}
4001323c:	e12fff1e 	bx	lr
40013240:	400170fc 	.word	0x400170fc

Disassembly of section .text.__sinit.part.1:

40013244 <__sinit.part.1>:
40013244:	e92d4ff0 	push	{r4, r5, r6, r7, r8, r9, sl, fp, lr}
40013248:	e1a07000 	mov	r7, r0
4001324c:	e3a04000 	mov	r4, #0
40013250:	e3a03004 	mov	r3, #4
40013254:	e3a01003 	mov	r1, #3
40013258:	e5975004 	ldr	r5, [r7, #4]
4001325c:	e59f012c 	ldr	r0, [pc, #300]	; 40013390 <__sinit.part.1+0x14c>
40013260:	e2872fbb 	add	r2, r7, #748	; 0x2ec
40013264:	e587003c 	str	r0, [r7, #60]	; 0x3c
40013268:	e58712e4 	str	r1, [r7, #740]	; 0x2e4
4001326c:	e58722e8 	str	r2, [r7, #744]	; 0x2e8
40013270:	e58742e0 	str	r4, [r7, #736]	; 0x2e0
40013274:	e24dd00c 	sub	sp, sp, #12
40013278:	e5854000 	str	r4, [r5]
4001327c:	e5854004 	str	r4, [r5, #4]
40013280:	e5854008 	str	r4, [r5, #8]
40013284:	e5854064 	str	r4, [r5, #100]	; 0x64
40013288:	e1c540be 	strh	r4, [r5, #14]
4001328c:	e5854010 	str	r4, [r5, #16]
40013290:	e5854014 	str	r4, [r5, #20]
40013294:	e5854018 	str	r4, [r5, #24]
40013298:	e1c530bc 	strh	r3, [r5, #12]
4001329c:	e1a01004 	mov	r1, r4
400132a0:	e285005c 	add	r0, r5, #92	; 0x5c
400132a4:	e3a02008 	mov	r2, #8
400132a8:	ebffe398 	bl	4000c110 <memset>
400132ac:	e3a03001 	mov	r3, #1
400132b0:	e3a02009 	mov	r2, #9
400132b4:	e5976008 	ldr	r6, [r7, #8]
400132b8:	e59fb0d4 	ldr	fp, [pc, #212]	; 40013394 <__sinit.part.1+0x150>
400132bc:	e59fa0d4 	ldr	sl, [pc, #212]	; 40013398 <__sinit.part.1+0x154>
400132c0:	e59f90d4 	ldr	r9, [pc, #212]	; 4001339c <__sinit.part.1+0x158>
400132c4:	e59f80d4 	ldr	r8, [pc, #212]	; 400133a0 <__sinit.part.1+0x15c>
400132c8:	e585b020 	str	fp, [r5, #32]
400132cc:	e585a024 	str	sl, [r5, #36]	; 0x24
400132d0:	e5859028 	str	r9, [r5, #40]	; 0x28
400132d4:	e585802c 	str	r8, [r5, #44]	; 0x2c
400132d8:	e585501c 	str	r5, [r5, #28]
400132dc:	e1a01004 	mov	r1, r4
400132e0:	e1c630be 	strh	r3, [r6, #14]
400132e4:	e1c620bc 	strh	r2, [r6, #12]
400132e8:	e286005c 	add	r0, r6, #92	; 0x5c
400132ec:	e5864000 	str	r4, [r6]
400132f0:	e5864004 	str	r4, [r6, #4]
400132f4:	e5864008 	str	r4, [r6, #8]
400132f8:	e5864064 	str	r4, [r6, #100]	; 0x64
400132fc:	e5864010 	str	r4, [r6, #16]
40013300:	e5864014 	str	r4, [r6, #20]
40013304:	e5864018 	str	r4, [r6, #24]
40013308:	e3a02008 	mov	r2, #8
4001330c:	e58d3004 	str	r3, [sp, #4]
40013310:	ebffe37e 	bl	4000c110 <memset>
40013314:	e3a00012 	mov	r0, #18
40013318:	e3a02002 	mov	r2, #2
4001331c:	e597500c 	ldr	r5, [r7, #12]
40013320:	e1a01004 	mov	r1, r4
40013324:	e586601c 	str	r6, [r6, #28]
40013328:	e586b020 	str	fp, [r6, #32]
4001332c:	e586a024 	str	sl, [r6, #36]	; 0x24
40013330:	e5869028 	str	r9, [r6, #40]	; 0x28
40013334:	e586802c 	str	r8, [r6, #44]	; 0x2c
40013338:	e1c500bc 	strh	r0, [r5, #12]
4001333c:	e1c520be 	strh	r2, [r5, #14]
40013340:	e5854000 	str	r4, [r5]
40013344:	e5854004 	str	r4, [r5, #4]
40013348:	e5854008 	str	r4, [r5, #8]
4001334c:	e5854064 	str	r4, [r5, #100]	; 0x64
40013350:	e5854010 	str	r4, [r5, #16]
40013354:	e5854014 	str	r4, [r5, #20]
40013358:	e5854018 	str	r4, [r5, #24]
4001335c:	e285005c 	add	r0, r5, #92	; 0x5c
40013360:	e3a02008 	mov	r2, #8
40013364:	ebffe369 	bl	4000c110 <memset>
40013368:	e59d3004 	ldr	r3, [sp, #4]
4001336c:	e585501c 	str	r5, [r5, #28]
40013370:	e585b020 	str	fp, [r5, #32]
40013374:	e585a024 	str	sl, [r5, #36]	; 0x24
40013378:	e5859028 	str	r9, [r5, #40]	; 0x28
4001337c:	e585802c 	str	r8, [r5, #44]	; 0x2c
40013380:	e5873038 	str	r3, [r7, #56]	; 0x38
40013384:	e28dd00c 	add	sp, sp, #12
40013388:	e8bd4ff0 	pop	{r4, r5, r6, r7, r8, r9, sl, fp, lr}
4001338c:	e12fff1e 	bx	lr
40013390:	4001322c 	.word	0x4001322c
40013394:	40014a00 	.word	0x40014a00
40013398:	40014a3c 	.word	0x40014a3c
4001339c:	40014a94 	.word	0x40014a94
400133a0:	40014ac4 	.word	0x40014ac4

Disassembly of section .text.__fp_lock:

400133a4 <__fp_lock>:
400133a4:	e3a00000 	mov	r0, #0
400133a8:	e12fff1e 	bx	lr

Disassembly of section .text.__sfmoreglue:

400133ac <__sfmoreglue>:
400133ac:	e2412001 	sub	r2, r1, #1
400133b0:	e92d4070 	push	{r4, r5, r6, lr}
400133b4:	e0824082 	add	r4, r2, r2, lsl #1
400133b8:	e0822104 	add	r2, r2, r4, lsl #2
400133bc:	e1a04182 	lsl	r4, r2, #3
400133c0:	e1a06001 	mov	r6, r1
400133c4:	e2841074 	add	r1, r4, #116	; 0x74
400133c8:	ebffe056 	bl	4000b528 <_malloc_r>
400133cc:	e2505000 	subs	r5, r0, #0
400133d0:	0a000006 	beq	400133f0 <__sfmoreglue+0x44>
400133d4:	e3a01000 	mov	r1, #0
400133d8:	e285000c 	add	r0, r5, #12
400133dc:	e5856004 	str	r6, [r5, #4]
400133e0:	e2842068 	add	r2, r4, #104	; 0x68
400133e4:	e5851000 	str	r1, [r5]
400133e8:	e5850008 	str	r0, [r5, #8]
400133ec:	ebffe347 	bl	4000c110 <memset>
400133f0:	e1a00005 	mov	r0, r5
400133f4:	e8bd4070 	pop	{r4, r5, r6, lr}
400133f8:	e12fff1e 	bx	lr

Disassembly of section .text.__sfp:

400133fc <__sfp>:
400133fc:	e59f30f0 	ldr	r3, [pc, #240]	; 400134f4 <__sfp+0xf8>
40013400:	e92d41f0 	push	{r4, r5, r6, r7, r8, lr}
40013404:	e5935000 	ldr	r5, [r3]
40013408:	e5953038 	ldr	r3, [r5, #56]	; 0x38
4001340c:	e3530000 	cmp	r3, #0
40013410:	e1a06000 	mov	r6, r0
40013414:	0a000029 	beq	400134c0 <__sfp+0xc4>
40013418:	e3a07004 	mov	r7, #4
4001341c:	e2855e2e 	add	r5, r5, #736	; 0x2e0
40013420:	e5953004 	ldr	r3, [r5, #4]
40013424:	e2533001 	subs	r3, r3, #1
40013428:	e5954008 	ldr	r4, [r5, #8]
4001342c:	5a000004 	bpl	40013444 <__sfp+0x48>
40013430:	ea00001d 	b	400134ac <__sfp+0xb0>
40013434:	e2433001 	sub	r3, r3, #1
40013438:	e3730001 	cmn	r3, #1
4001343c:	e2844068 	add	r4, r4, #104	; 0x68
40013440:	0a000019 	beq	400134ac <__sfp+0xb0>
40013444:	e1d420fc 	ldrsh	r2, [r4, #12]
40013448:	e3520000 	cmp	r2, #0
4001344c:	1afffff8 	bne	40013434 <__sfp+0x38>
40013450:	e3a05000 	mov	r5, #0
40013454:	e3e02000 	mvn	r2, #0
40013458:	e3a03001 	mov	r3, #1
4001345c:	e1c420be 	strh	r2, [r4, #14]
40013460:	e1c430bc 	strh	r3, [r4, #12]
40013464:	e5845064 	str	r5, [r4, #100]	; 0x64
40013468:	e5845000 	str	r5, [r4]
4001346c:	e5845008 	str	r5, [r4, #8]
40013470:	e5845004 	str	r5, [r4, #4]
40013474:	e5845010 	str	r5, [r4, #16]
40013478:	e5845014 	str	r5, [r4, #20]
4001347c:	e5845018 	str	r5, [r4, #24]
40013480:	e1a01005 	mov	r1, r5
40013484:	e3a02008 	mov	r2, #8
40013488:	e284005c 	add	r0, r4, #92	; 0x5c
4001348c:	ebffe31f 	bl	4000c110 <memset>
40013490:	e5845030 	str	r5, [r4, #48]	; 0x30
40013494:	e5845034 	str	r5, [r4, #52]	; 0x34
40013498:	e5845044 	str	r5, [r4, #68]	; 0x44
4001349c:	e5845048 	str	r5, [r4, #72]	; 0x48
400134a0:	e1a00004 	mov	r0, r4
400134a4:	e8bd41f0 	pop	{r4, r5, r6, r7, r8, lr}
400134a8:	e12fff1e 	bx	lr
400134ac:	e5950000 	ldr	r0, [r5]
400134b0:	e3500000 	cmp	r0, #0
400134b4:	0a000004 	beq	400134cc <__sfp+0xd0>
400134b8:	e1a05000 	mov	r5, r0
400134bc:	eaffffd7 	b	40013420 <__sfp+0x24>
400134c0:	e1a00005 	mov	r0, r5
400134c4:	ebffff5e 	bl	40013244 <__sinit.part.1>
400134c8:	eaffffd2 	b	40013418 <__sfp+0x1c>
400134cc:	e1a01007 	mov	r1, r7
400134d0:	e1a00006 	mov	r0, r6
400134d4:	ebffffb4 	bl	400133ac <__sfmoreglue>
400134d8:	e3500000 	cmp	r0, #0
400134dc:	e5850000 	str	r0, [r5]
400134e0:	1afffff4 	bne	400134b8 <__sfp+0xbc>
400134e4:	e3a0300c 	mov	r3, #12
400134e8:	e1a04000 	mov	r4, r0
400134ec:	e5863000 	str	r3, [r6]
400134f0:	eaffffea 	b	400134a0 <__sfp+0xa4>
400134f4:	40019798 	.word	0x40019798

Disassembly of section .text._cleanup:

400134f8 <_cleanup>:
400134f8:	e92d4010 	push	{r4, lr}
400134fc:	e59f3010 	ldr	r3, [pc, #16]	; 40013514 <_cleanup+0x1c>
40013500:	e59f1010 	ldr	r1, [pc, #16]	; 40013518 <_cleanup+0x20>
40013504:	e5930000 	ldr	r0, [r3]
40013508:	eb000136 	bl	400139e8 <_fwalk_reent>
4001350c:	e8bd4010 	pop	{r4, lr}
40013510:	e12fff1e 	bx	lr
40013514:	40019798 	.word	0x40019798
40013518:	400170fc 	.word	0x400170fc

Disassembly of section .text.__sinit:

4001351c <__sinit>:
4001351c:	e5903038 	ldr	r3, [r0, #56]	; 0x38
40013520:	e3530000 	cmp	r3, #0
40013524:	112fff1e 	bxne	lr
40013528:	eaffff45 	b	40013244 <__sinit.part.1>

Disassembly of section .text.__sfp_lock_acquire:

4001352c <__sfp_lock_acquire>:
4001352c:	e12fff1e 	bx	lr

Disassembly of section .text.__sfp_lock_release:

40013530 <__sfp_lock_release>:
40013530:	e12fff1e 	bx	lr

Disassembly of section .text.__sinit_lock_acquire:

40013534 <__sinit_lock_acquire>:
40013534:	e12fff1e 	bx	lr

Disassembly of section .text.__sinit_lock_release:

40013538 <__sinit_lock_release>:
40013538:	e12fff1e 	bx	lr

Disassembly of section .text.__fp_lock_all:

4001353c <__fp_lock_all>:
4001353c:	e92d4010 	push	{r4, lr}
40013540:	e59f3010 	ldr	r3, [pc, #16]	; 40013558 <__fp_lock_all+0x1c>
40013544:	e59f1010 	ldr	r1, [pc, #16]	; 4001355c <__fp_lock_all+0x20>
40013548:	e5930000 	ldr	r0, [r3]
4001354c:	eb000104 	bl	40013964 <_fwalk>
40013550:	e8bd4010 	pop	{r4, lr}
40013554:	e12fff1e 	bx	lr
40013558:	40019b60 	.word	0x40019b60
4001355c:	400133a4 	.word	0x400133a4

Disassembly of section .text.__fp_unlock_all:

40013560 <__fp_unlock_all>:
40013560:	e92d4010 	push	{r4, lr}
40013564:	e59f3010 	ldr	r3, [pc, #16]	; 4001357c <__fp_unlock_all+0x1c>
40013568:	e59f1010 	ldr	r1, [pc, #16]	; 40013580 <__fp_unlock_all+0x20>
4001356c:	e5930000 	ldr	r0, [r3]
40013570:	eb0000fb 	bl	40013964 <_fwalk>
40013574:	e8bd4010 	pop	{r4, lr}
40013578:	e12fff1e 	bx	lr
4001357c:	40019b60 	.word	0x40019b60
40013580:	40013224 	.word	0x40013224

Disassembly of section .text._malloc_trim_r:

40013584 <_malloc_trim_r>:
40013584:	e92d41f0 	push	{r4, r5, r6, r7, r8, lr}
40013588:	e1a04001 	mov	r4, r1
4001358c:	e59f70e4 	ldr	r7, [pc, #228]	; 40013678 <_malloc_trim_r+0xf4>
40013590:	e1a06000 	mov	r6, r0
40013594:	ebffe322 	bl	4000c224 <__malloc_lock>
40013598:	e5973008 	ldr	r3, [r7, #8]
4001359c:	e5935004 	ldr	r5, [r3, #4]
400135a0:	e2641efe 	rsb	r1, r4, #4064	; 0xfe0
400135a4:	e281100f 	add	r1, r1, #15
400135a8:	e3c55003 	bic	r5, r5, #3
400135ac:	e0814005 	add	r4, r1, r5
400135b0:	e1a04624 	lsr	r4, r4, #12
400135b4:	e2444001 	sub	r4, r4, #1
400135b8:	e1a04604 	lsl	r4, r4, #12
400135bc:	e3540a01 	cmp	r4, #4096	; 0x1000
400135c0:	ba000006 	blt	400135e0 <_malloc_trim_r+0x5c>
400135c4:	e3a01000 	mov	r1, #0
400135c8:	e1a00006 	mov	r0, r6
400135cc:	ebffb700 	bl	400011d4 <_sbrk_r>
400135d0:	e5973008 	ldr	r3, [r7, #8]
400135d4:	e0833005 	add	r3, r3, r5
400135d8:	e1500003 	cmp	r0, r3
400135dc:	0a000004 	beq	400135f4 <_malloc_trim_r+0x70>
400135e0:	e1a00006 	mov	r0, r6
400135e4:	ebffe30f 	bl	4000c228 <__malloc_unlock>
400135e8:	e3a00000 	mov	r0, #0
400135ec:	e8bd41f0 	pop	{r4, r5, r6, r7, r8, lr}
400135f0:	e12fff1e 	bx	lr
400135f4:	e2641000 	rsb	r1, r4, #0
400135f8:	e1a00006 	mov	r0, r6
400135fc:	ebffb6f4 	bl	400011d4 <_sbrk_r>
40013600:	e3700001 	cmn	r0, #1
40013604:	0a00000c 	beq	4001363c <_malloc_trim_r+0xb8>
40013608:	e59f206c 	ldr	r2, [pc, #108]	; 4001367c <_malloc_trim_r+0xf8>
4001360c:	e5971008 	ldr	r1, [r7, #8]
40013610:	e5923000 	ldr	r3, [r2]
40013614:	e0455004 	sub	r5, r5, r4
40013618:	e3855001 	orr	r5, r5, #1
4001361c:	e1a00006 	mov	r0, r6
40013620:	e0434004 	sub	r4, r3, r4
40013624:	e5815004 	str	r5, [r1, #4]
40013628:	e5824000 	str	r4, [r2]
4001362c:	ebffe2fd 	bl	4000c228 <__malloc_unlock>
40013630:	e3a00001 	mov	r0, #1
40013634:	e8bd41f0 	pop	{r4, r5, r6, r7, r8, lr}
40013638:	e12fff1e 	bx	lr
4001363c:	e3a01000 	mov	r1, #0
40013640:	e1a00006 	mov	r0, r6
40013644:	ebffb6e2 	bl	400011d4 <_sbrk_r>
40013648:	e5972008 	ldr	r2, [r7, #8]
4001364c:	e0403002 	sub	r3, r0, r2
40013650:	e353000f 	cmp	r3, #15
40013654:	daffffe1 	ble	400135e0 <_malloc_trim_r+0x5c>
40013658:	e59f1020 	ldr	r1, [pc, #32]	; 40013680 <_malloc_trim_r+0xfc>
4001365c:	e591c000 	ldr	ip, [r1]
40013660:	e59f1014 	ldr	r1, [pc, #20]	; 4001367c <_malloc_trim_r+0xf8>
40013664:	e3833001 	orr	r3, r3, #1
40013668:	e040000c 	sub	r0, r0, ip
4001366c:	e5823004 	str	r3, [r2, #4]
40013670:	e5810000 	str	r0, [r1]
40013674:	eaffffd9 	b	400135e0 <_malloc_trim_r+0x5c>
40013678:	40019f90 	.word	0x40019f90
4001367c:	4011a54c 	.word	0x4011a54c
40013680:	4001a398 	.word	0x4001a398

Disassembly of section .text._free_r:

40013684 <_free_r>:
40013684:	e92d4070 	push	{r4, r5, r6, lr}
40013688:	e2514000 	subs	r4, r1, #0
4001368c:	0a000031 	beq	40013758 <_free_r+0xd4>
40013690:	e1a05000 	mov	r5, r0
40013694:	ebffe2e2 	bl	4000c224 <__malloc_lock>
40013698:	e5141004 	ldr	r1, [r4, #-4]
4001369c:	e59fe2ac 	ldr	lr, [pc, #684]	; 40013950 <_free_r+0x2cc>
400136a0:	e3c13001 	bic	r3, r1, #1
400136a4:	e244c008 	sub	ip, r4, #8
400136a8:	e08c0003 	add	r0, ip, r3
400136ac:	e59e6008 	ldr	r6, [lr, #8]
400136b0:	e5902004 	ldr	r2, [r0, #4]
400136b4:	e1500006 	cmp	r0, r6
400136b8:	e3c22003 	bic	r2, r2, #3
400136bc:	0a00004e 	beq	400137fc <_free_r+0x178>
400136c0:	e3110001 	tst	r1, #1
400136c4:	e5802004 	str	r2, [r0, #4]
400136c8:	1a000009 	bne	400136f4 <_free_r+0x70>
400136cc:	e5144008 	ldr	r4, [r4, #-8]
400136d0:	e04cc004 	sub	ip, ip, r4
400136d4:	e59c1008 	ldr	r1, [ip, #8]
400136d8:	e28e6008 	add	r6, lr, #8
400136dc:	e1510006 	cmp	r1, r6
400136e0:	e0833004 	add	r3, r3, r4
400136e4:	0a00005c 	beq	4001385c <_free_r+0x1d8>
400136e8:	e59c400c 	ldr	r4, [ip, #12]
400136ec:	e581400c 	str	r4, [r1, #12]
400136f0:	e5841008 	str	r1, [r4, #8]
400136f4:	e0801002 	add	r1, r0, r2
400136f8:	e5911004 	ldr	r1, [r1, #4]
400136fc:	e3110001 	tst	r1, #1
40013700:	13832001 	orrne	r2, r3, #1
40013704:	158c2004 	strne	r2, [ip, #4]
40013708:	178c3003 	strne	r3, [ip, r3]
4001370c:	0a00002c 	beq	400137c4 <_free_r+0x140>
40013710:	e3530c02 	cmp	r3, #512	; 0x200
40013714:	2a000011 	bcs	40013760 <_free_r+0xdc>
40013718:	e3a04001 	mov	r4, #1
4001371c:	e59e0004 	ldr	r0, [lr, #4]
40013720:	e1a031a3 	lsr	r3, r3, #3
40013724:	e0832004 	add	r2, r3, r4
40013728:	e1a03143 	asr	r3, r3, #2
4001372c:	e1803314 	orr	r3, r0, r4, lsl r3
40013730:	e08e1182 	add	r1, lr, r2, lsl #3
40013734:	e79e0182 	ldr	r0, [lr, r2, lsl #3]
40013738:	e2411008 	sub	r1, r1, #8
4001373c:	e58e3004 	str	r3, [lr, #4]
40013740:	e58c100c 	str	r1, [ip, #12]
40013744:	e58c0008 	str	r0, [ip, #8]
40013748:	e78ec182 	str	ip, [lr, r2, lsl #3]
4001374c:	e580c00c 	str	ip, [r0, #12]
40013750:	e1a00005 	mov	r0, r5
40013754:	ebffe2b3 	bl	4000c228 <__malloc_unlock>
40013758:	e8bd4070 	pop	{r4, r5, r6, lr}
4001375c:	e12fff1e 	bx	lr
40013760:	e1a024a3 	lsr	r2, r3, #9
40013764:	e3520004 	cmp	r2, #4
40013768:	8a000048 	bhi	40013890 <_free_r+0x20c>
4001376c:	e1a02323 	lsr	r2, r3, #6
40013770:	e2824039 	add	r4, r2, #57	; 0x39
40013774:	e1a04184 	lsl	r4, r4, #3
40013778:	e2821038 	add	r1, r2, #56	; 0x38
4001377c:	e08e0004 	add	r0, lr, r4
40013780:	e79e2004 	ldr	r2, [lr, r4]
40013784:	e2400008 	sub	r0, r0, #8
40013788:	e1500002 	cmp	r0, r2
4001378c:	0a000045 	beq	400138a8 <_free_r+0x224>
40013790:	e5921004 	ldr	r1, [r2, #4]
40013794:	e3c11003 	bic	r1, r1, #3
40013798:	e1530001 	cmp	r3, r1
4001379c:	2a00002c 	bcs	40013854 <_free_r+0x1d0>
400137a0:	e5922008 	ldr	r2, [r2, #8]
400137a4:	e1500002 	cmp	r0, r2
400137a8:	1afffff8 	bne	40013790 <_free_r+0x10c>
400137ac:	e590300c 	ldr	r3, [r0, #12]
400137b0:	e58c300c 	str	r3, [ip, #12]
400137b4:	e58c0008 	str	r0, [ip, #8]
400137b8:	e583c008 	str	ip, [r3, #8]
400137bc:	e580c00c 	str	ip, [r0, #12]
400137c0:	eaffffe2 	b	40013750 <_free_r+0xcc>
400137c4:	e5901008 	ldr	r1, [r0, #8]
400137c8:	e59f4184 	ldr	r4, [pc, #388]	; 40013954 <_free_r+0x2d0>
400137cc:	e1510004 	cmp	r1, r4
400137d0:	e0833002 	add	r3, r3, r2
400137d4:	0a00003a 	beq	400138c4 <_free_r+0x240>
400137d8:	e590000c 	ldr	r0, [r0, #12]
400137dc:	e3832001 	orr	r2, r3, #1
400137e0:	e3530c02 	cmp	r3, #512	; 0x200
400137e4:	e581000c 	str	r0, [r1, #12]
400137e8:	e5801008 	str	r1, [r0, #8]
400137ec:	e58c2004 	str	r2, [ip, #4]
400137f0:	e78c3003 	str	r3, [ip, r3]
400137f4:	2affffd9 	bcs	40013760 <_free_r+0xdc>
400137f8:	eaffffc6 	b	40013718 <_free_r+0x94>
400137fc:	e3110001 	tst	r1, #1
40013800:	e0833002 	add	r3, r3, r2
40013804:	1a000006 	bne	40013824 <_free_r+0x1a0>
40013808:	e5142008 	ldr	r2, [r4, #-8]
4001380c:	e04cc002 	sub	ip, ip, r2
40013810:	e28c0008 	add	r0, ip, #8
40013814:	e8900003 	ldm	r0, {r0, r1}
40013818:	e580100c 	str	r1, [r0, #12]
4001381c:	e5810008 	str	r0, [r1, #8]
40013820:	e0833002 	add	r3, r3, r2
40013824:	e59f212c 	ldr	r2, [pc, #300]	; 40013958 <_free_r+0x2d4>
40013828:	e5921000 	ldr	r1, [r2]
4001382c:	e3832001 	orr	r2, r3, #1
40013830:	e1530001 	cmp	r3, r1
40013834:	e58c2004 	str	r2, [ip, #4]
40013838:	e58ec008 	str	ip, [lr, #8]
4001383c:	3affffc3 	bcc	40013750 <_free_r+0xcc>
40013840:	e59f3114 	ldr	r3, [pc, #276]	; 4001395c <_free_r+0x2d8>
40013844:	e1a00005 	mov	r0, r5
40013848:	e5931000 	ldr	r1, [r3]
4001384c:	ebffff4c 	bl	40013584 <_malloc_trim_r>
40013850:	eaffffbe 	b	40013750 <_free_r+0xcc>
40013854:	e1a00002 	mov	r0, r2
40013858:	eaffffd3 	b	400137ac <_free_r+0x128>
4001385c:	e0801002 	add	r1, r0, r2
40013860:	e5911004 	ldr	r1, [r1, #4]
40013864:	e3110001 	tst	r1, #1
40013868:	1a000034 	bne	40013940 <_free_r+0x2bc>
4001386c:	e2801008 	add	r1, r0, #8
40013870:	e0823003 	add	r3, r2, r3
40013874:	e8910006 	ldm	r1, {r1, r2}
40013878:	e3830001 	orr	r0, r3, #1
4001387c:	e581200c 	str	r2, [r1, #12]
40013880:	e5821008 	str	r1, [r2, #8]
40013884:	e58c0004 	str	r0, [ip, #4]
40013888:	e78c3003 	str	r3, [ip, r3]
4001388c:	eaffffaf 	b	40013750 <_free_r+0xcc>
40013890:	e3520014 	cmp	r2, #20
40013894:	8a000012 	bhi	400138e4 <_free_r+0x260>
40013898:	e282405c 	add	r4, r2, #92	; 0x5c
4001389c:	e1a04184 	lsl	r4, r4, #3
400138a0:	e282105b 	add	r1, r2, #91	; 0x5b
400138a4:	eaffffb4 	b	4001377c <_free_r+0xf8>
400138a8:	e3a04001 	mov	r4, #1
400138ac:	e59e3004 	ldr	r3, [lr, #4]
400138b0:	e1a02141 	asr	r2, r1, #2
400138b4:	e1832214 	orr	r2, r3, r4, lsl r2
400138b8:	e58e2004 	str	r2, [lr, #4]
400138bc:	e1a03000 	mov	r3, r0
400138c0:	eaffffba 	b	400137b0 <_free_r+0x12c>
400138c4:	e3832001 	orr	r2, r3, #1
400138c8:	e58ec014 	str	ip, [lr, #20]
400138cc:	e58ec010 	str	ip, [lr, #16]
400138d0:	e58c100c 	str	r1, [ip, #12]
400138d4:	e58c1008 	str	r1, [ip, #8]
400138d8:	e58c2004 	str	r2, [ip, #4]
400138dc:	e78c3003 	str	r3, [ip, r3]
400138e0:	eaffff9a 	b	40013750 <_free_r+0xcc>
400138e4:	e3520054 	cmp	r2, #84	; 0x54
400138e8:	8a000004 	bhi	40013900 <_free_r+0x27c>
400138ec:	e1a02623 	lsr	r2, r3, #12
400138f0:	e282406f 	add	r4, r2, #111	; 0x6f
400138f4:	e1a04184 	lsl	r4, r4, #3
400138f8:	e282106e 	add	r1, r2, #110	; 0x6e
400138fc:	eaffff9e 	b	4001377c <_free_r+0xf8>
40013900:	e3520f55 	cmp	r2, #340	; 0x154
40013904:	8a000004 	bhi	4001391c <_free_r+0x298>
40013908:	e1a027a3 	lsr	r2, r3, #15
4001390c:	e2824078 	add	r4, r2, #120	; 0x78
40013910:	e1a04184 	lsl	r4, r4, #3
40013914:	e2821077 	add	r1, r2, #119	; 0x77
40013918:	eaffff97 	b	4001377c <_free_r+0xf8>
4001391c:	e59f103c 	ldr	r1, [pc, #60]	; 40013960 <_free_r+0x2dc>
40013920:	e1520001 	cmp	r2, r1
40013924:	91a02923 	lsrls	r2, r3, #18
40013928:	9282407d 	addls	r4, r2, #125	; 0x7d
4001392c:	91a04184 	lslls	r4, r4, #3
40013930:	9282107c 	addls	r1, r2, #124	; 0x7c
40013934:	83a04ffe 	movhi	r4, #1016	; 0x3f8
40013938:	83a0107e 	movhi	r1, #126	; 0x7e
4001393c:	eaffff8e 	b	4001377c <_free_r+0xf8>
40013940:	e3832001 	orr	r2, r3, #1
40013944:	e58c2004 	str	r2, [ip, #4]
40013948:	e5803000 	str	r3, [r0]
4001394c:	eaffff7f 	b	40013750 <_free_r+0xcc>
40013950:	40019f90 	.word	0x40019f90
40013954:	40019f98 	.word	0x40019f98
40013958:	4001a39c 	.word	0x4001a39c
4001395c:	4011a57c 	.word	0x4011a57c
40013960:	00000554 	.word	0x00000554

Disassembly of section .text._fwalk:

40013964 <_fwalk>:
40013964:	e92d41f0 	push	{r4, r5, r6, r7, r8, lr}
40013968:	e2907e2e 	adds	r7, r0, #736	; 0x2e0
4001396c:	0a000019 	beq	400139d8 <_fwalk+0x74>
40013970:	e1a08001 	mov	r8, r1
40013974:	e3a06000 	mov	r6, #0
40013978:	e5975004 	ldr	r5, [r7, #4]
4001397c:	e2555001 	subs	r5, r5, #1
40013980:	e5974008 	ldr	r4, [r7, #8]
40013984:	4a00000d 	bmi	400139c0 <_fwalk+0x5c>
40013988:	e1d430bc 	ldrh	r3, [r4, #12]
4001398c:	e3530001 	cmp	r3, #1
40013990:	e2455001 	sub	r5, r5, #1
40013994:	9a000006 	bls	400139b4 <_fwalk+0x50>
40013998:	e1d430fe 	ldrsh	r3, [r4, #14]
4001399c:	e3730001 	cmn	r3, #1
400139a0:	0a000003 	beq	400139b4 <_fwalk+0x50>
400139a4:	e1a00004 	mov	r0, r4
400139a8:	e1a0e00f 	mov	lr, pc
400139ac:	e12fff18 	bx	r8
400139b0:	e1866000 	orr	r6, r6, r0
400139b4:	e3750001 	cmn	r5, #1
400139b8:	e2844068 	add	r4, r4, #104	; 0x68
400139bc:	1afffff1 	bne	40013988 <_fwalk+0x24>
400139c0:	e5977000 	ldr	r7, [r7]
400139c4:	e3570000 	cmp	r7, #0
400139c8:	1affffea 	bne	40013978 <_fwalk+0x14>
400139cc:	e1a00006 	mov	r0, r6
400139d0:	e8bd41f0 	pop	{r4, r5, r6, r7, r8, lr}
400139d4:	e12fff1e 	bx	lr
400139d8:	e1a06007 	mov	r6, r7
400139dc:	e1a00006 	mov	r0, r6
400139e0:	e8bd41f0 	pop	{r4, r5, r6, r7, r8, lr}
400139e4:	e12fff1e 	bx	lr

Disassembly of section .text._fwalk_reent:

400139e8 <_fwalk_reent>:
400139e8:	e92d47f0 	push	{r4, r5, r6, r7, r8, r9, sl, lr}
400139ec:	e2906e2e 	adds	r6, r0, #736	; 0x2e0
400139f0:	0a00001b 	beq	40013a64 <_fwalk_reent+0x7c>
400139f4:	e1a08001 	mov	r8, r1
400139f8:	e1a07000 	mov	r7, r0
400139fc:	e3a09000 	mov	r9, #0
40013a00:	e5965004 	ldr	r5, [r6, #4]
40013a04:	e2555001 	subs	r5, r5, #1
40013a08:	e5964008 	ldr	r4, [r6, #8]
40013a0c:	4a00000e 	bmi	40013a4c <_fwalk_reent+0x64>
40013a10:	e1d430bc 	ldrh	r3, [r4, #12]
40013a14:	e3530001 	cmp	r3, #1
40013a18:	e2455001 	sub	r5, r5, #1
40013a1c:	9a000007 	bls	40013a40 <_fwalk_reent+0x58>
40013a20:	e1d430fe 	ldrsh	r3, [r4, #14]
40013a24:	e3730001 	cmn	r3, #1
40013a28:	0a000004 	beq	40013a40 <_fwalk_reent+0x58>
40013a2c:	e1a01004 	mov	r1, r4
40013a30:	e1a00007 	mov	r0, r7
40013a34:	e1a0e00f 	mov	lr, pc
40013a38:	e12fff18 	bx	r8
40013a3c:	e1899000 	orr	r9, r9, r0
40013a40:	e3750001 	cmn	r5, #1
40013a44:	e2844068 	add	r4, r4, #104	; 0x68
40013a48:	1afffff0 	bne	40013a10 <_fwalk_reent+0x28>
40013a4c:	e5966000 	ldr	r6, [r6]
40013a50:	e3560000 	cmp	r6, #0
40013a54:	1affffe9 	bne	40013a00 <_fwalk_reent+0x18>
40013a58:	e1a00009 	mov	r0, r9
40013a5c:	e8bd47f0 	pop	{r4, r5, r6, r7, r8, r9, sl, lr}
40013a60:	e12fff1e 	bx	lr
40013a64:	e1a09006 	mov	r9, r6
40013a68:	e1a00009 	mov	r0, r9
40013a6c:	e8bd47f0 	pop	{r4, r5, r6, r7, r8, r9, sl, lr}
40013a70:	e12fff1e 	bx	lr

Disassembly of section .text.__localeconv_l:

40013a74 <__localeconv_l>:
40013a74:	e28000f0 	add	r0, r0, #240	; 0xf0
40013a78:	e12fff1e 	bx	lr

Disassembly of section .text._localeconv_r:

40013a7c <_localeconv_r>:
40013a7c:	e59f3018 	ldr	r3, [pc, #24]	; 40013a9c <_localeconv_r+0x20>
40013a80:	e5932000 	ldr	r2, [r3]
40013a84:	e5920034 	ldr	r0, [r2, #52]	; 0x34
40013a88:	e59f3010 	ldr	r3, [pc, #16]	; 40013aa0 <_localeconv_r+0x24>
40013a8c:	e3500000 	cmp	r0, #0
40013a90:	01a00003 	moveq	r0, r3
40013a94:	e28000f0 	add	r0, r0, #240	; 0xf0
40013a98:	e12fff1e 	bx	lr
40013a9c:	40019b60 	.word	0x40019b60
40013aa0:	4001a3a0 	.word	0x4001a3a0

Disassembly of section .text.localeconv:

40013aa4 <localeconv>:
40013aa4:	e59f3018 	ldr	r3, [pc, #24]	; 40013ac4 <localeconv+0x20>
40013aa8:	e5932000 	ldr	r2, [r3]
40013aac:	e5920034 	ldr	r0, [r2, #52]	; 0x34
40013ab0:	e59f3010 	ldr	r3, [pc, #16]	; 40013ac8 <localeconv+0x24>
40013ab4:	e3500000 	cmp	r0, #0
40013ab8:	01a00003 	moveq	r0, r3
40013abc:	e28000f0 	add	r0, r0, #240	; 0xf0
40013ac0:	e12fff1e 	bx	lr
40013ac4:	40019b60 	.word	0x40019b60
40013ac8:	4001a3a0 	.word	0x4001a3a0

Disassembly of section .text.__swhatbuf_r:

40013acc <__swhatbuf_r>:
40013acc:	e92d4070 	push	{r4, r5, r6, lr}
40013ad0:	e1a04001 	mov	r4, r1
40013ad4:	e1d110fe 	ldrsh	r1, [r1, #14]
40013ad8:	e3510000 	cmp	r1, #0
40013adc:	e24dd040 	sub	sp, sp, #64	; 0x40
40013ae0:	e1a05002 	mov	r5, r2
40013ae4:	e1a06003 	mov	r6, r3
40013ae8:	ba00000f 	blt	40013b2c <__swhatbuf_r+0x60>
40013aec:	e28d2004 	add	r2, sp, #4
40013af0:	ebffb530 	bl	40000fb8 <_fstat_r>
40013af4:	e3500000 	cmp	r0, #0
40013af8:	ba00000b 	blt	40013b2c <__swhatbuf_r+0x60>
40013afc:	e59d2008 	ldr	r2, [sp, #8]
40013b00:	e2022a0f 	and	r2, r2, #61440	; 0xf000
40013b04:	e2423a02 	sub	r3, r2, #8192	; 0x2000
40013b08:	e2732000 	rsbs	r2, r3, #0
40013b0c:	e0a22003 	adc	r2, r2, r3
40013b10:	e3a00b02 	mov	r0, #2048	; 0x800
40013b14:	e3a03b01 	mov	r3, #1024	; 0x400
40013b18:	e5862000 	str	r2, [r6]
40013b1c:	e5853000 	str	r3, [r5]
40013b20:	e28dd040 	add	sp, sp, #64	; 0x40
40013b24:	e8bd4070 	pop	{r4, r5, r6, lr}
40013b28:	e12fff1e 	bx	lr
40013b2c:	e3a03000 	mov	r3, #0
40013b30:	e1d420bc 	ldrh	r2, [r4, #12]
40013b34:	e2120080 	ands	r0, r2, #128	; 0x80
40013b38:	e5863000 	str	r3, [r6]
40013b3c:	0a000005 	beq	40013b58 <__swhatbuf_r+0x8c>
40013b40:	e3a02040 	mov	r2, #64	; 0x40
40013b44:	e1a00003 	mov	r0, r3
40013b48:	e5852000 	str	r2, [r5]
40013b4c:	e28dd040 	add	sp, sp, #64	; 0x40
40013b50:	e8bd4070 	pop	{r4, r5, r6, lr}
40013b54:	e12fff1e 	bx	lr
40013b58:	e3a03b01 	mov	r3, #1024	; 0x400
40013b5c:	e5853000 	str	r3, [r5]
40013b60:	e28dd040 	add	sp, sp, #64	; 0x40
40013b64:	e8bd4070 	pop	{r4, r5, r6, lr}
40013b68:	e12fff1e 	bx	lr

Disassembly of section .text.__smakebuf_r:

40013b6c <__smakebuf_r>:
40013b6c:	e92d4070 	push	{r4, r5, r6, lr}
40013b70:	e1d120bc 	ldrh	r2, [r1, #12]
40013b74:	e3120002 	tst	r2, #2
40013b78:	e24dd008 	sub	sp, sp, #8
40013b7c:	e1a04001 	mov	r4, r1
40013b80:	0a000007 	beq	40013ba4 <__smakebuf_r+0x38>
40013b84:	e3a01001 	mov	r1, #1
40013b88:	e2842043 	add	r2, r4, #67	; 0x43
40013b8c:	e5841014 	str	r1, [r4, #20]
40013b90:	e5842000 	str	r2, [r4]
40013b94:	e5842010 	str	r2, [r4, #16]
40013b98:	e28dd008 	add	sp, sp, #8
40013b9c:	e8bd4070 	pop	{r4, r5, r6, lr}
40013ba0:	e12fff1e 	bx	lr
40013ba4:	e28d3004 	add	r3, sp, #4
40013ba8:	e1a0200d 	mov	r2, sp
40013bac:	e1a06000 	mov	r6, r0
40013bb0:	ebffffc5 	bl	40013acc <__swhatbuf_r>
40013bb4:	e59d1000 	ldr	r1, [sp]
40013bb8:	e1a05000 	mov	r5, r0
40013bbc:	e1a00006 	mov	r0, r6
40013bc0:	ebffde58 	bl	4000b528 <_malloc_r>
40013bc4:	e3500000 	cmp	r0, #0
40013bc8:	e1d430fc 	ldrsh	r3, [r4, #12]
40013bcc:	0a00001a 	beq	40013c3c <__smakebuf_r+0xd0>
40013bd0:	e59dc004 	ldr	ip, [sp, #4]
40013bd4:	e59f108c 	ldr	r1, [pc, #140]	; 40013c68 <__smakebuf_r+0xfc>
40013bd8:	e59d2000 	ldr	r2, [sp]
40013bdc:	e3833080 	orr	r3, r3, #128	; 0x80
40013be0:	e35c0000 	cmp	ip, #0
40013be4:	e586103c 	str	r1, [r6, #60]	; 0x3c
40013be8:	e1c430bc 	strh	r3, [r4, #12]
40013bec:	e5840000 	str	r0, [r4]
40013bf0:	e5840010 	str	r0, [r4, #16]
40013bf4:	e5842014 	str	r2, [r4, #20]
40013bf8:	1a000004 	bne	40013c10 <__smakebuf_r+0xa4>
40013bfc:	e1833005 	orr	r3, r3, r5
40013c00:	e1c430bc 	strh	r3, [r4, #12]
40013c04:	e28dd008 	add	sp, sp, #8
40013c08:	e8bd4070 	pop	{r4, r5, r6, lr}
40013c0c:	e12fff1e 	bx	lr
40013c10:	e1a00006 	mov	r0, r6
40013c14:	e1d410fe 	ldrsh	r1, [r4, #14]
40013c18:	ebffb502 	bl	40001028 <_isatty_r>
40013c1c:	e3500000 	cmp	r0, #0
40013c20:	11d430bc 	ldrhne	r3, [r4, #12]
40013c24:	13c33003 	bicne	r3, r3, #3
40013c28:	13833001 	orrne	r3, r3, #1
40013c2c:	11a03803 	lslne	r3, r3, #16
40013c30:	01d430fc 	ldrsheq	r3, [r4, #12]
40013c34:	11a03843 	asrne	r3, r3, #16
40013c38:	eaffffef 	b	40013bfc <__smakebuf_r+0x90>
40013c3c:	e3130c02 	tst	r3, #512	; 0x200
40013c40:	1affffd4 	bne	40013b98 <__smakebuf_r+0x2c>
40013c44:	e3a01001 	mov	r1, #1
40013c48:	e3c33003 	bic	r3, r3, #3
40013c4c:	e2842043 	add	r2, r4, #67	; 0x43
40013c50:	e3833002 	orr	r3, r3, #2
40013c54:	e1c430bc 	strh	r3, [r4, #12]
40013c58:	e5841014 	str	r1, [r4, #20]
40013c5c:	e5842000 	str	r2, [r4]
40013c60:	e5842010 	str	r2, [r4, #16]
40013c64:	eaffffcb 	b	40013b98 <__smakebuf_r+0x2c>
40013c68:	4001322c 	.word	0x4001322c

Disassembly of section .text._Balloc:

40013c6c <_Balloc>:
40013c6c:	e590304c 	ldr	r3, [r0, #76]	; 0x4c
40013c70:	e3530000 	cmp	r3, #0
40013c74:	e92d4070 	push	{r4, r5, r6, lr}
40013c78:	e1a05000 	mov	r5, r0
40013c7c:	e1a04001 	mov	r4, r1
40013c80:	0a000009 	beq	40013cac <_Balloc+0x40>
40013c84:	e7930104 	ldr	r0, [r3, r4, lsl #2]
40013c88:	e3500000 	cmp	r0, #0
40013c8c:	0a00000f 	beq	40013cd0 <_Balloc+0x64>
40013c90:	e5902000 	ldr	r2, [r0]
40013c94:	e7832104 	str	r2, [r3, r4, lsl #2]
40013c98:	e3a03000 	mov	r3, #0
40013c9c:	e5803010 	str	r3, [r0, #16]
40013ca0:	e580300c 	str	r3, [r0, #12]
40013ca4:	e8bd4070 	pop	{r4, r5, r6, lr}
40013ca8:	e12fff1e 	bx	lr
40013cac:	e3a02021 	mov	r2, #33	; 0x21
40013cb0:	e3a01004 	mov	r1, #4
40013cb4:	eb000cea 	bl	40017064 <_calloc_r>
40013cb8:	e3500000 	cmp	r0, #0
40013cbc:	e585004c 	str	r0, [r5, #76]	; 0x4c
40013cc0:	11a03000 	movne	r3, r0
40013cc4:	1affffee 	bne	40013c84 <_Balloc+0x18>
40013cc8:	e3a00000 	mov	r0, #0
40013ccc:	eafffff4 	b	40013ca4 <_Balloc+0x38>
40013cd0:	e3a01001 	mov	r1, #1
40013cd4:	e1a06411 	lsl	r6, r1, r4
40013cd8:	e2862005 	add	r2, r6, #5
40013cdc:	e1a00005 	mov	r0, r5
40013ce0:	e1a02102 	lsl	r2, r2, #2
40013ce4:	eb000cde 	bl	40017064 <_calloc_r>
40013ce8:	e3500000 	cmp	r0, #0
40013cec:	0afffff5 	beq	40013cc8 <_Balloc+0x5c>
40013cf0:	e9800050 	stmib	r0, {r4, r6}
40013cf4:	eaffffe7 	b	40013c98 <_Balloc+0x2c>

Disassembly of section .text._Bfree:

40013cf8 <_Bfree>:
40013cf8:	e3510000 	cmp	r1, #0
40013cfc:	1590304c 	ldrne	r3, [r0, #76]	; 0x4c
40013d00:	15912004 	ldrne	r2, [r1, #4]
40013d04:	17930102 	ldrne	r0, [r3, r2, lsl #2]
40013d08:	15810000 	strne	r0, [r1]
40013d0c:	17831102 	strne	r1, [r3, r2, lsl #2]
40013d10:	e12fff1e 	bx	lr

Disassembly of section .text.__multadd:

40013d14 <__multadd>:
40013d14:	e92d40f0 	push	{r4, r5, r6, r7, lr}
40013d18:	e1a04001 	mov	r4, r1
40013d1c:	e1a05000 	mov	r5, r0
40013d20:	e3a0e000 	mov	lr, #0
40013d24:	e5916010 	ldr	r6, [r1, #16]
40013d28:	e59f70bc 	ldr	r7, [pc, #188]	; 40013dec <__multadd+0xd8>
40013d2c:	e24dd00c 	sub	sp, sp, #12
40013d30:	e281c014 	add	ip, r1, #20
40013d34:	e59c0000 	ldr	r0, [ip]
40013d38:	e0001007 	and	r1, r0, r7
40013d3c:	e0233192 	mla	r3, r2, r1, r3
40013d40:	e1a01820 	lsr	r1, r0, #16
40013d44:	e1a00823 	lsr	r0, r3, #16
40013d48:	e0210192 	mla	r1, r2, r1, r0
40013d4c:	e28ee001 	add	lr, lr, #1
40013d50:	e0033007 	and	r3, r3, r7
40013d54:	e0833801 	add	r3, r3, r1, lsl #16
40013d58:	e156000e 	cmp	r6, lr
40013d5c:	e48c3004 	str	r3, [ip], #4
40013d60:	e1a03821 	lsr	r3, r1, #16
40013d64:	cafffff2 	bgt	40013d34 <__multadd+0x20>
40013d68:	e3530000 	cmp	r3, #0
40013d6c:	0a000006 	beq	40013d8c <__multadd+0x78>
40013d70:	e5942008 	ldr	r2, [r4, #8]
40013d74:	e1560002 	cmp	r6, r2
40013d78:	aa000007 	bge	40013d9c <__multadd+0x88>
40013d7c:	e0842106 	add	r2, r4, r6, lsl #2
40013d80:	e2866001 	add	r6, r6, #1
40013d84:	e5823014 	str	r3, [r2, #20]
40013d88:	e5846010 	str	r6, [r4, #16]
40013d8c:	e1a00004 	mov	r0, r4
40013d90:	e28dd00c 	add	sp, sp, #12
40013d94:	e8bd40f0 	pop	{r4, r5, r6, r7, lr}
40013d98:	e12fff1e 	bx	lr
40013d9c:	e5941004 	ldr	r1, [r4, #4]
40013da0:	e1a00005 	mov	r0, r5
40013da4:	e2811001 	add	r1, r1, #1
40013da8:	e58d3004 	str	r3, [sp, #4]
40013dac:	ebffffae 	bl	40013c6c <_Balloc>
40013db0:	e1a07000 	mov	r7, r0
40013db4:	e5942010 	ldr	r2, [r4, #16]
40013db8:	e2822002 	add	r2, r2, #2
40013dbc:	e284100c 	add	r1, r4, #12
40013dc0:	e1a02102 	lsl	r2, r2, #2
40013dc4:	e280000c 	add	r0, r0, #12
40013dc8:	ebffe039 	bl	4000beb4 <memcpy>
40013dcc:	e595204c 	ldr	r2, [r5, #76]	; 0x4c
40013dd0:	e5941004 	ldr	r1, [r4, #4]
40013dd4:	e7920101 	ldr	r0, [r2, r1, lsl #2]
40013dd8:	e59d3004 	ldr	r3, [sp, #4]
40013ddc:	e5840000 	str	r0, [r4]
40013de0:	e7824101 	str	r4, [r2, r1, lsl #2]
40013de4:	e1a04007 	mov	r4, r7
40013de8:	eaffffe3 	b	40013d7c <__multadd+0x68>
40013dec:	0000ffff 	.word	0x0000ffff

Disassembly of section .text.__s2b:

40013df0 <__s2b>:
40013df0:	e59fc0e4 	ldr	ip, [pc, #228]	; 40013edc <__s2b+0xec>
40013df4:	e92d47f0 	push	{r4, r5, r6, r7, r8, r9, sl, lr}
40013df8:	e1a07003 	mov	r7, r3
40013dfc:	e2833008 	add	r3, r3, #8
40013e00:	e0ccec93 	smull	lr, ip, r3, ip
40013e04:	e1a03fc3 	asr	r3, r3, #31
40013e08:	e063c0cc 	rsb	ip, r3, ip, asr #1
40013e0c:	e35c0001 	cmp	ip, #1
40013e10:	e1a05000 	mov	r5, r0
40013e14:	e1a04001 	mov	r4, r1
40013e18:	e1a08002 	mov	r8, r2
40013e1c:	e59d6020 	ldr	r6, [sp, #32]
40013e20:	da00002b 	ble	40013ed4 <__s2b+0xe4>
40013e24:	e3a03001 	mov	r3, #1
40013e28:	e3a01000 	mov	r1, #0
40013e2c:	e1a03083 	lsl	r3, r3, #1
40013e30:	e15c0003 	cmp	ip, r3
40013e34:	e2811001 	add	r1, r1, #1
40013e38:	cafffffb 	bgt	40013e2c <__s2b+0x3c>
40013e3c:	e1a00005 	mov	r0, r5
40013e40:	ebffff89 	bl	40013c6c <_Balloc>
40013e44:	e3a03001 	mov	r3, #1
40013e48:	e3580009 	cmp	r8, #9
40013e4c:	e5806014 	str	r6, [r0, #20]
40013e50:	e5803010 	str	r3, [r0, #16]
40013e54:	d284400a 	addle	r4, r4, #10
40013e58:	d3a08009 	movle	r8, #9
40013e5c:	da00000d 	ble	40013e98 <__s2b+0xa8>
40013e60:	e284a009 	add	sl, r4, #9
40013e64:	e1a0600a 	mov	r6, sl
40013e68:	e3a0900a 	mov	r9, #10
40013e6c:	e0844008 	add	r4, r4, r8
40013e70:	e4d63001 	ldrb	r3, [r6], #1
40013e74:	e1a01000 	mov	r1, r0
40013e78:	e2433030 	sub	r3, r3, #48	; 0x30
40013e7c:	e1a02009 	mov	r2, r9
40013e80:	e1a00005 	mov	r0, r5
40013e84:	ebffffa2 	bl	40013d14 <__multadd>
40013e88:	e1560004 	cmp	r6, r4
40013e8c:	1afffff7 	bne	40013e70 <__s2b+0x80>
40013e90:	e2484008 	sub	r4, r8, #8
40013e94:	e08a4004 	add	r4, sl, r4
40013e98:	e1570008 	cmp	r7, r8
40013e9c:	c0477008 	subgt	r7, r7, r8
40013ea0:	c3a0600a 	movgt	r6, #10
40013ea4:	c0847007 	addgt	r7, r4, r7
40013ea8:	da000007 	ble	40013ecc <__s2b+0xdc>
40013eac:	e4d43001 	ldrb	r3, [r4], #1
40013eb0:	e1a01000 	mov	r1, r0
40013eb4:	e2433030 	sub	r3, r3, #48	; 0x30
40013eb8:	e1a02006 	mov	r2, r6
40013ebc:	e1a00005 	mov	r0, r5
40013ec0:	ebffff93 	bl	40013d14 <__multadd>
40013ec4:	e1570004 	cmp	r7, r4
40013ec8:	1afffff7 	bne	40013eac <__s2b+0xbc>
40013ecc:	e8bd47f0 	pop	{r4, r5, r6, r7, r8, r9, sl, lr}
40013ed0:	e12fff1e 	bx	lr
40013ed4:	e3a01000 	mov	r1, #0
40013ed8:	eaffffd7 	b	40013e3c <__s2b+0x4c>
40013edc:	38e38e39 	.word	0x38e38e39

Disassembly of section .text.__hi0bits:

40013ee0 <__hi0bits>:
40013ee0:	e1a02820 	lsr	r2, r0, #16
40013ee4:	e1a03000 	mov	r3, r0
40013ee8:	e1a02802 	lsl	r2, r2, #16
40013eec:	e3520000 	cmp	r2, #0
40013ef0:	01a03800 	lsleq	r3, r0, #16
40013ef4:	13a00000 	movne	r0, #0
40013ef8:	03a00010 	moveq	r0, #16
40013efc:	e31304ff 	tst	r3, #-16777216	; 0xff000000
40013f00:	01a03403 	lsleq	r3, r3, #8
40013f04:	02800008 	addeq	r0, r0, #8
40013f08:	e313020f 	tst	r3, #-268435456	; 0xf0000000
40013f0c:	01a03203 	lsleq	r3, r3, #4
40013f10:	02800004 	addeq	r0, r0, #4
40013f14:	e3130103 	tst	r3, #-1073741824	; 0xc0000000
40013f18:	01a03103 	lsleq	r3, r3, #2
40013f1c:	02800002 	addeq	r0, r0, #2
40013f20:	e3530000 	cmp	r3, #0
40013f24:	b12fff1e 	bxlt	lr
40013f28:	e3130101 	tst	r3, #1073741824	; 0x40000000
40013f2c:	12800001 	addne	r0, r0, #1
40013f30:	03a00020 	moveq	r0, #32
40013f34:	e12fff1e 	bx	lr

Disassembly of section .text.__lo0bits:

40013f38 <__lo0bits>:
40013f38:	e5903000 	ldr	r3, [r0]
40013f3c:	e2132007 	ands	r2, r3, #7
40013f40:	e1a01000 	mov	r1, r0
40013f44:	0a000009 	beq	40013f70 <__lo0bits+0x38>
40013f48:	e3130001 	tst	r3, #1
40013f4c:	1a00001f 	bne	40013fd0 <__lo0bits+0x98>
40013f50:	e3130002 	tst	r3, #2
40013f54:	11a030a3 	lsrne	r3, r3, #1
40013f58:	01a03123 	lsreq	r3, r3, #2
40013f5c:	15803000 	strne	r3, [r0]
40013f60:	05813000 	streq	r3, [r1]
40013f64:	13a00001 	movne	r0, #1
40013f68:	03a00002 	moveq	r0, #2
40013f6c:	e12fff1e 	bx	lr
40013f70:	e1a00803 	lsl	r0, r3, #16
40013f74:	e1a00820 	lsr	r0, r0, #16
40013f78:	e3500000 	cmp	r0, #0
40013f7c:	03a00010 	moveq	r0, #16
40013f80:	11a00002 	movne	r0, r2
40013f84:	01a03823 	lsreq	r3, r3, #16
40013f88:	e31300ff 	tst	r3, #255	; 0xff
40013f8c:	01a03423 	lsreq	r3, r3, #8
40013f90:	02800008 	addeq	r0, r0, #8
40013f94:	e313000f 	tst	r3, #15
40013f98:	01a03223 	lsreq	r3, r3, #4
40013f9c:	02800004 	addeq	r0, r0, #4
40013fa0:	e3130003 	tst	r3, #3
40013fa4:	01a03123 	lsreq	r3, r3, #2
40013fa8:	02800002 	addeq	r0, r0, #2
40013fac:	e3130001 	tst	r3, #1
40013fb0:	1a000004 	bne	40013fc8 <__lo0bits+0x90>
40013fb4:	e1b030a3 	lsrs	r3, r3, #1
40013fb8:	1a000001 	bne	40013fc4 <__lo0bits+0x8c>
40013fbc:	e3a00020 	mov	r0, #32
40013fc0:	e12fff1e 	bx	lr
40013fc4:	e2800001 	add	r0, r0, #1
40013fc8:	e5813000 	str	r3, [r1]
40013fcc:	e12fff1e 	bx	lr
40013fd0:	e3a00000 	mov	r0, #0
40013fd4:	e12fff1e 	bx	lr

Disassembly of section .text.__i2b:

40013fd8 <__i2b>:
40013fd8:	e92d4010 	push	{r4, lr}
40013fdc:	e1a04001 	mov	r4, r1
40013fe0:	e3a01001 	mov	r1, #1
40013fe4:	ebffff20 	bl	40013c6c <_Balloc>
40013fe8:	e3a02001 	mov	r2, #1
40013fec:	e5804014 	str	r4, [r0, #20]
40013ff0:	e5802010 	str	r2, [r0, #16]
40013ff4:	e8bd4010 	pop	{r4, lr}
40013ff8:	e12fff1e 	bx	lr

Disassembly of section .text.__multiply:

40013ffc <__multiply>:
40013ffc:	e92d4ff0 	push	{r4, r5, r6, r7, r8, r9, sl, fp, lr}
40014000:	e5918010 	ldr	r8, [r1, #16]
40014004:	e5925010 	ldr	r5, [r2, #16]
40014008:	e1580005 	cmp	r8, r5
4001400c:	e24dd014 	sub	sp, sp, #20
40014010:	e1a04001 	mov	r4, r1
40014014:	e1a09002 	mov	r9, r2
40014018:	aa000004 	bge	40014030 <__multiply+0x34>
4001401c:	e1a02008 	mov	r2, r8
40014020:	e1a04009 	mov	r4, r9
40014024:	e1a08005 	mov	r8, r5
40014028:	e1a09001 	mov	r9, r1
4001402c:	e1a05002 	mov	r5, r2
40014030:	e5943008 	ldr	r3, [r4, #8]
40014034:	e5941004 	ldr	r1, [r4, #4]
40014038:	e0887005 	add	r7, r8, r5
4001403c:	e1570003 	cmp	r7, r3
40014040:	c2811001 	addgt	r1, r1, #1
40014044:	ebffff08 	bl	40013c6c <_Balloc>
40014048:	e280a014 	add	sl, r0, #20
4001404c:	e08ab107 	add	fp, sl, r7, lsl #2
40014050:	e15a000b 	cmp	sl, fp
40014054:	e1a03000 	mov	r3, r0
40014058:	e58d0004 	str	r0, [sp, #4]
4001405c:	31a0300a 	movcc	r3, sl
40014060:	33a01000 	movcc	r1, #0
40014064:	2a000002 	bcs	40014074 <__multiply+0x78>
40014068:	e4831004 	str	r1, [r3], #4
4001406c:	e15b0003 	cmp	fp, r3
40014070:	8afffffc 	bhi	40014068 <__multiply+0x6c>
40014074:	e2899014 	add	r9, r9, #20
40014078:	e0893105 	add	r3, r9, r5, lsl #2
4001407c:	e1a02003 	mov	r2, r3
40014080:	e1590003 	cmp	r9, r3
40014084:	e2843014 	add	r3, r4, #20
40014088:	e0838108 	add	r8, r3, r8, lsl #2
4001408c:	2a00003b 	bcs	40014180 <__multiply+0x184>
40014090:	e58db008 	str	fp, [sp, #8]
40014094:	e58d700c 	str	r7, [sp, #12]
40014098:	e1a0b002 	mov	fp, r2
4001409c:	e1a07003 	mov	r7, r3
400140a0:	e59fe120 	ldr	lr, [pc, #288]	; 400141c8 <__multiply+0x1cc>
400140a4:	e599c000 	ldr	ip, [r9]
400140a8:	e01c600e 	ands	r6, ip, lr
400140ac:	0a000014 	beq	40014104 <__multiply+0x108>
400140b0:	e1a0400a 	mov	r4, sl
400140b4:	e1a05007 	mov	r5, r7
400140b8:	e3a01000 	mov	r1, #0
400140bc:	e4952004 	ldr	r2, [r5], #4
400140c0:	e5940000 	ldr	r0, [r4]
400140c4:	e002300e 	and	r3, r2, lr
400140c8:	e000c00e 	and	ip, r0, lr
400140cc:	e1a02822 	lsr	r2, r2, #16
400140d0:	e023c396 	mla	r3, r6, r3, ip
400140d4:	e1a00820 	lsr	r0, r0, #16
400140d8:	e0220296 	mla	r2, r6, r2, r0
400140dc:	e0833001 	add	r3, r3, r1
400140e0:	e0821823 	add	r1, r2, r3, lsr #16
400140e4:	e003300e 	and	r3, r3, lr
400140e8:	e1833801 	orr	r3, r3, r1, lsl #16
400140ec:	e1580005 	cmp	r8, r5
400140f0:	e4843004 	str	r3, [r4], #4
400140f4:	e1a01821 	lsr	r1, r1, #16
400140f8:	8affffef 	bhi	400140bc <__multiply+0xc0>
400140fc:	e5841000 	str	r1, [r4]
40014100:	e599c000 	ldr	ip, [r9]
40014104:	e1b0c82c 	lsrs	ip, ip, #16
40014108:	0a000016 	beq	40014168 <__multiply+0x16c>
4001410c:	e59a3000 	ldr	r3, [sl]
40014110:	e1a0000a 	mov	r0, sl
40014114:	e1a04003 	mov	r4, r3
40014118:	e1a01007 	mov	r1, r7
4001411c:	e3a02000 	mov	r2, #0
40014120:	e5915000 	ldr	r5, [r1]
40014124:	e1a06824 	lsr	r6, r4, #16
40014128:	e005400e 	and	r4, r5, lr
4001412c:	e024649c 	mla	r4, ip, r4, r6
40014130:	e003300e 	and	r3, r3, lr
40014134:	e0842002 	add	r2, r4, r2
40014138:	e1833802 	orr	r3, r3, r2, lsl #16
4001413c:	e4803004 	str	r3, [r0], #4
40014140:	e4913004 	ldr	r3, [r1], #4
40014144:	e5904000 	ldr	r4, [r0]
40014148:	e1a03823 	lsr	r3, r3, #16
4001414c:	e004500e 	and	r5, r4, lr
40014150:	e023539c 	mla	r3, ip, r3, r5
40014154:	e1580001 	cmp	r8, r1
40014158:	e0833822 	add	r3, r3, r2, lsr #16
4001415c:	e1a02823 	lsr	r2, r3, #16
40014160:	8affffee 	bhi	40014120 <__multiply+0x124>
40014164:	e5803000 	str	r3, [r0]
40014168:	e2899004 	add	r9, r9, #4
4001416c:	e15b0009 	cmp	fp, r9
40014170:	e28aa004 	add	sl, sl, #4
40014174:	8affffca 	bhi	400140a4 <__multiply+0xa8>
40014178:	e59db008 	ldr	fp, [sp, #8]
4001417c:	e59d700c 	ldr	r7, [sp, #12]
40014180:	e3570000 	cmp	r7, #0
40014184:	da000009 	ble	400141b0 <__multiply+0x1b4>
40014188:	e51b3004 	ldr	r3, [fp, #-4]
4001418c:	e3530000 	cmp	r3, #0
40014190:	e24bb004 	sub	fp, fp, #4
40014194:	0a000003 	beq	400141a8 <__multiply+0x1ac>
40014198:	ea000004 	b	400141b0 <__multiply+0x1b4>
4001419c:	e53b3004 	ldr	r3, [fp, #-4]!
400141a0:	e3530000 	cmp	r3, #0
400141a4:	1a000001 	bne	400141b0 <__multiply+0x1b4>
400141a8:	e2577001 	subs	r7, r7, #1
400141ac:	1afffffa 	bne	4001419c <__multiply+0x1a0>
400141b0:	e59d3004 	ldr	r3, [sp, #4]
400141b4:	e1a00003 	mov	r0, r3
400141b8:	e5837010 	str	r7, [r3, #16]
400141bc:	e28dd014 	add	sp, sp, #20
400141c0:	e8bd4ff0 	pop	{r4, r5, r6, r7, r8, r9, sl, fp, lr}
400141c4:	e12fff1e 	bx	lr
400141c8:	0000ffff 	.word	0x0000ffff

Disassembly of section .text.__pow5mult:

400141cc <__pow5mult>:
400141cc:	e2123003 	ands	r3, r2, #3
400141d0:	e92d41f0 	push	{r4, r5, r6, r7, r8, lr}
400141d4:	e1a04002 	mov	r4, r2
400141d8:	e1a07000 	mov	r7, r0
400141dc:	01a05001 	moveq	r5, r1
400141e0:	1a000025 	bne	4001427c <__pow5mult+0xb0>
400141e4:	e1b04144 	asrs	r4, r4, #2
400141e8:	0a000019 	beq	40014254 <__pow5mult+0x88>
400141ec:	e5976048 	ldr	r6, [r7, #72]	; 0x48
400141f0:	e3560000 	cmp	r6, #0
400141f4:	0a000027 	beq	40014298 <__pow5mult+0xcc>
400141f8:	e3a08000 	mov	r8, #0
400141fc:	ea000005 	b	40014218 <__pow5mult+0x4c>
40014200:	e1b040c4 	asrs	r4, r4, #1
40014204:	0a000012 	beq	40014254 <__pow5mult+0x88>
40014208:	e5960000 	ldr	r0, [r6]
4001420c:	e3500000 	cmp	r0, #0
40014210:	0a000012 	beq	40014260 <__pow5mult+0x94>
40014214:	e1a06000 	mov	r6, r0
40014218:	e3140001 	tst	r4, #1
4001421c:	0afffff7 	beq	40014200 <__pow5mult+0x34>
40014220:	e1a02006 	mov	r2, r6
40014224:	e1a01005 	mov	r1, r5
40014228:	e1a00007 	mov	r0, r7
4001422c:	ebffff72 	bl	40013ffc <__multiply>
40014230:	e3550000 	cmp	r5, #0
40014234:	15952004 	ldrne	r2, [r5, #4]
40014238:	1597304c 	ldrne	r3, [r7, #76]	; 0x4c
4001423c:	17931102 	ldrne	r1, [r3, r2, lsl #2]
40014240:	15851000 	strne	r1, [r5]
40014244:	17835102 	strne	r5, [r3, r2, lsl #2]
40014248:	e1b040c4 	asrs	r4, r4, #1
4001424c:	e1a05000 	mov	r5, r0
40014250:	1affffec 	bne	40014208 <__pow5mult+0x3c>
40014254:	e1a00005 	mov	r0, r5
40014258:	e8bd41f0 	pop	{r4, r5, r6, r7, r8, lr}
4001425c:	e12fff1e 	bx	lr
40014260:	e1a02006 	mov	r2, r6
40014264:	e1a01006 	mov	r1, r6
40014268:	e1a00007 	mov	r0, r7
4001426c:	ebffff62 	bl	40013ffc <__multiply>
40014270:	e5860000 	str	r0, [r6]
40014274:	e5808000 	str	r8, [r0]
40014278:	eaffffe5 	b	40014214 <__pow5mult+0x48>
4001427c:	e59f2044 	ldr	r2, [pc, #68]	; 400142c8 <__pow5mult+0xfc>
40014280:	e2433001 	sub	r3, r3, #1
40014284:	e7922103 	ldr	r2, [r2, r3, lsl #2]
40014288:	e3a03000 	mov	r3, #0
4001428c:	ebfffea0 	bl	40013d14 <__multadd>
40014290:	e1a05000 	mov	r5, r0
40014294:	eaffffd2 	b	400141e4 <__pow5mult+0x18>
40014298:	e3a01001 	mov	r1, #1
4001429c:	e1a00007 	mov	r0, r7
400142a0:	ebfffe71 	bl	40013c6c <_Balloc>
400142a4:	e3a01001 	mov	r1, #1
400142a8:	e3a03000 	mov	r3, #0
400142ac:	e59f2018 	ldr	r2, [pc, #24]	; 400142cc <__pow5mult+0x100>
400142b0:	e5801010 	str	r1, [r0, #16]
400142b4:	e5802014 	str	r2, [r0, #20]
400142b8:	e1a06000 	mov	r6, r0
400142bc:	e5870048 	str	r0, [r7, #72]	; 0x48
400142c0:	e5803000 	str	r3, [r0]
400142c4:	eaffffcb 	b	400141f8 <__pow5mult+0x2c>
400142c8:	40019990 	.word	0x40019990
400142cc:	00000271 	.word	0x00000271

Disassembly of section .text.__lshift:

400142d0 <__lshift>:
400142d0:	e92d47f0 	push	{r4, r5, r6, r7, r8, r9, sl, lr}
400142d4:	e5917010 	ldr	r7, [r1, #16]
400142d8:	e1a092c2 	asr	r9, r2, #5
400142dc:	e5913008 	ldr	r3, [r1, #8]
400142e0:	e0897007 	add	r7, r9, r7
400142e4:	e2874001 	add	r4, r7, #1
400142e8:	e1540003 	cmp	r4, r3
400142ec:	e1a05001 	mov	r5, r1
400142f0:	e1a08002 	mov	r8, r2
400142f4:	e1a06000 	mov	r6, r0
400142f8:	e5911004 	ldr	r1, [r1, #4]
400142fc:	da000003 	ble	40014310 <__lshift+0x40>
40014300:	e1a03083 	lsl	r3, r3, #1
40014304:	e1540003 	cmp	r4, r3
40014308:	e2811001 	add	r1, r1, #1
4001430c:	cafffffb 	bgt	40014300 <__lshift+0x30>
40014310:	e1a00006 	mov	r0, r6
40014314:	ebfffe54 	bl	40013c6c <_Balloc>
40014318:	e3590000 	cmp	r9, #0
4001431c:	e2803014 	add	r3, r0, #20
40014320:	da000004 	ble	40014338 <__lshift+0x68>
40014324:	e3a02000 	mov	r2, #0
40014328:	e0831109 	add	r1, r3, r9, lsl #2
4001432c:	e4832004 	str	r2, [r3], #4
40014330:	e1510003 	cmp	r1, r3
40014334:	1afffffc 	bne	4001432c <__lshift+0x5c>
40014338:	e595e010 	ldr	lr, [r5, #16]
4001433c:	e2851014 	add	r1, r5, #20
40014340:	e218801f 	ands	r8, r8, #31
40014344:	e081e10e 	add	lr, r1, lr, lsl #2
40014348:	0a000014 	beq	400143a0 <__lshift+0xd0>
4001434c:	e3a0c000 	mov	ip, #0
40014350:	e2682020 	rsb	r2, r8, #32
40014354:	e5919000 	ldr	r9, [r1]
40014358:	e18cc819 	orr	ip, ip, r9, lsl r8
4001435c:	e483c004 	str	ip, [r3], #4
40014360:	e491c004 	ldr	ip, [r1], #4
40014364:	e15e0001 	cmp	lr, r1
40014368:	e1a0c23c 	lsr	ip, ip, r2
4001436c:	8afffff8 	bhi	40014354 <__lshift+0x84>
40014370:	e35c0000 	cmp	ip, #0
40014374:	e583c000 	str	ip, [r3]
40014378:	12874002 	addne	r4, r7, #2
4001437c:	e596304c 	ldr	r3, [r6, #76]	; 0x4c
40014380:	e5952004 	ldr	r2, [r5, #4]
40014384:	e7931102 	ldr	r1, [r3, r2, lsl #2]
40014388:	e2444001 	sub	r4, r4, #1
4001438c:	e5804010 	str	r4, [r0, #16]
40014390:	e5851000 	str	r1, [r5]
40014394:	e7835102 	str	r5, [r3, r2, lsl #2]
40014398:	e8bd47f0 	pop	{r4, r5, r6, r7, r8, r9, sl, lr}
4001439c:	e12fff1e 	bx	lr
400143a0:	e2433004 	sub	r3, r3, #4
400143a4:	e4912004 	ldr	r2, [r1], #4
400143a8:	e15e0001 	cmp	lr, r1
400143ac:	e5a32004 	str	r2, [r3, #4]!
400143b0:	8afffffb 	bhi	400143a4 <__lshift+0xd4>
400143b4:	eafffff0 	b	4001437c <__lshift+0xac>

Disassembly of section .text.__mcmp:

400143b8 <__mcmp>:
400143b8:	e52de004 	push	{lr}		; (str lr, [sp, #-4]!)
400143bc:	e5913010 	ldr	r3, [r1, #16]
400143c0:	e1a0e000 	mov	lr, r0
400143c4:	e5900010 	ldr	r0, [r0, #16]
400143c8:	e0500003 	subs	r0, r0, r3
400143cc:	1a00000d 	bne	40014408 <__mcmp+0x50>
400143d0:	e1a03103 	lsl	r3, r3, #2
400143d4:	e28ee014 	add	lr, lr, #20
400143d8:	e2811014 	add	r1, r1, #20
400143dc:	e0811003 	add	r1, r1, r3
400143e0:	e08e3003 	add	r3, lr, r3
400143e4:	ea000001 	b	400143f0 <__mcmp+0x38>
400143e8:	e15e0003 	cmp	lr, r3
400143ec:	2a000005 	bcs	40014408 <__mcmp+0x50>
400143f0:	e533c004 	ldr	ip, [r3, #-4]!
400143f4:	e5312004 	ldr	r2, [r1, #-4]!
400143f8:	e15c0002 	cmp	ip, r2
400143fc:	0afffff9 	beq	400143e8 <__mcmp+0x30>
40014400:	3a000002 	bcc	40014410 <__mcmp+0x58>
40014404:	e3a00001 	mov	r0, #1
40014408:	e49de004 	pop	{lr}		; (ldr lr, [sp], #4)
4001440c:	e12fff1e 	bx	lr
40014410:	e3e00000 	mvn	r0, #0
40014414:	eafffffb 	b	40014408 <__mcmp+0x50>

Disassembly of section .text.__mdiff:

40014418 <__mdiff>:
40014418:	e92d4ff8 	push	{r3, r4, r5, r6, r7, r8, r9, sl, fp, lr}
4001441c:	e1a0b002 	mov	fp, r2
40014420:	e5919010 	ldr	r9, [r1, #16]
40014424:	e5922010 	ldr	r2, [r2, #16]
40014428:	e0499002 	sub	r9, r9, r2
4001442c:	e3590000 	cmp	r9, #0
40014430:	e1a07001 	mov	r7, r1
40014434:	1a000047 	bne	40014558 <__mdiff+0x140>
40014438:	e1a02102 	lsl	r2, r2, #2
4001443c:	e2816014 	add	r6, r1, #20
40014440:	e28be014 	add	lr, fp, #20
40014444:	e0863002 	add	r3, r6, r2
40014448:	e08e2002 	add	r2, lr, r2
4001444c:	ea000001 	b	40014458 <__mdiff+0x40>
40014450:	e1560003 	cmp	r6, r3
40014454:	2a000049 	bcs	40014580 <__mdiff+0x168>
40014458:	e533c004 	ldr	ip, [r3, #-4]!
4001445c:	e5321004 	ldr	r1, [r2, #-4]!
40014460:	e15c0001 	cmp	ip, r1
40014464:	0afffff9 	beq	40014450 <__mdiff+0x38>
40014468:	21a0800e 	movcs	r8, lr
4001446c:	3a00004b 	bcc	400145a0 <__mdiff+0x188>
40014470:	e5971004 	ldr	r1, [r7, #4]
40014474:	ebfffdfc 	bl	40013c6c <_Balloc>
40014478:	e3a0a000 	mov	sl, #0
4001447c:	e5977010 	ldr	r7, [r7, #16]
40014480:	e59b3010 	ldr	r3, [fp, #16]
40014484:	e59fe130 	ldr	lr, [pc, #304]	; 400145bc <__mdiff+0x1a4>
40014488:	e580900c 	str	r9, [r0, #12]
4001448c:	e1a04008 	mov	r4, r8
40014490:	e1a05006 	mov	r5, r6
40014494:	e0888103 	add	r8, r8, r3, lsl #2
40014498:	e0866107 	add	r6, r6, r7, lsl #2
4001449c:	e280c014 	add	ip, r0, #20
400144a0:	e4959004 	ldr	r9, [r5], #4
400144a4:	e4941004 	ldr	r1, [r4], #4
400144a8:	e009300e 	and	r3, r9, lr
400144ac:	e083300a 	add	r3, r3, sl
400144b0:	e1a02821 	lsr	r2, r1, #16
400144b4:	e001a00e 	and	sl, r1, lr
400144b8:	e043300a 	sub	r3, r3, sl
400144bc:	e0622829 	rsb	r2, r2, r9, lsr #16
400144c0:	e0822843 	add	r2, r2, r3, asr #16
400144c4:	e003300e 	and	r3, r3, lr
400144c8:	e1833802 	orr	r3, r3, r2, lsl #16
400144cc:	e1580004 	cmp	r8, r4
400144d0:	e48c3004 	str	r3, [ip], #4
400144d4:	e1a0a842 	asr	sl, r2, #16
400144d8:	8afffff0 	bhi	400144a0 <__mdiff+0x88>
400144dc:	e1560005 	cmp	r6, r5
400144e0:	9a000012 	bls	40014530 <__mdiff+0x118>
400144e4:	e1a0400c 	mov	r4, ip
400144e8:	e1a01005 	mov	r1, r5
400144ec:	e59fe0c8 	ldr	lr, [pc, #200]	; 400145bc <__mdiff+0x1a4>
400144f0:	e4918004 	ldr	r8, [r1], #4
400144f4:	e008300e 	and	r3, r8, lr
400144f8:	e083300a 	add	r3, r3, sl
400144fc:	e1a02843 	asr	r2, r3, #16
40014500:	e0822828 	add	r2, r2, r8, lsr #16
40014504:	e003300e 	and	r3, r3, lr
40014508:	e1833802 	orr	r3, r3, r2, lsl #16
4001450c:	e1560001 	cmp	r6, r1
40014510:	e4843004 	str	r3, [r4], #4
40014514:	e1a0a842 	asr	sl, r2, #16
40014518:	8afffff4 	bhi	400144f0 <__mdiff+0xd8>
4001451c:	e1e05005 	mvn	r5, r5
40014520:	e0856006 	add	r6, r5, r6
40014524:	e3c66003 	bic	r6, r6, #3
40014528:	e2866004 	add	r6, r6, #4
4001452c:	e08cc006 	add	ip, ip, r6
40014530:	e3530000 	cmp	r3, #0
40014534:	e24cc004 	sub	ip, ip, #4
40014538:	1a000003 	bne	4001454c <__mdiff+0x134>
4001453c:	e53c3004 	ldr	r3, [ip, #-4]!
40014540:	e3530000 	cmp	r3, #0
40014544:	e2477001 	sub	r7, r7, #1
40014548:	0afffffb 	beq	4001453c <__mdiff+0x124>
4001454c:	e5807010 	str	r7, [r0, #16]
40014550:	e8bd4ff8 	pop	{r3, r4, r5, r6, r7, r8, r9, sl, fp, lr}
40014554:	e12fff1e 	bx	lr
40014558:	a2816014 	addge	r6, r1, #20
4001455c:	a28b8014 	addge	r8, fp, #20
40014560:	a3a09000 	movge	r9, #0
40014564:	aaffffc1 	bge	40014470 <__mdiff+0x58>
40014568:	e28b6014 	add	r6, fp, #20
4001456c:	e1a0700b 	mov	r7, fp
40014570:	e2818014 	add	r8, r1, #20
40014574:	e3a09001 	mov	r9, #1
40014578:	e1a0b001 	mov	fp, r1
4001457c:	eaffffbb 	b	40014470 <__mdiff+0x58>
40014580:	e3a01000 	mov	r1, #0
40014584:	ebfffdb8 	bl	40013c6c <_Balloc>
40014588:	e3a03000 	mov	r3, #0
4001458c:	e3a02001 	mov	r2, #1
40014590:	e5803014 	str	r3, [r0, #20]
40014594:	e5802010 	str	r2, [r0, #16]
40014598:	e8bd4ff8 	pop	{r3, r4, r5, r6, r7, r8, r9, sl, fp, lr}
4001459c:	e12fff1e 	bx	lr
400145a0:	e1a03007 	mov	r3, r7
400145a4:	e1a08006 	mov	r8, r6
400145a8:	e1a0700b 	mov	r7, fp
400145ac:	e1a0600e 	mov	r6, lr
400145b0:	e1a0b003 	mov	fp, r3
400145b4:	e3a09001 	mov	r9, #1
400145b8:	eaffffac 	b	40014470 <__mdiff+0x58>
400145bc:	0000ffff 	.word	0x0000ffff

Disassembly of section .text.__ulp:

400145c0 <__ulp>:
400145c0:	e59f305c 	ldr	r3, [pc, #92]	; 40014624 <__ulp+0x64>
400145c4:	e0033001 	and	r3, r3, r1
400145c8:	e243350d 	sub	r3, r3, #54525952	; 0x3400000
400145cc:	e3530000 	cmp	r3, #0
400145d0:	da000002 	ble	400145e0 <__ulp+0x20>
400145d4:	e3a00000 	mov	r0, #0
400145d8:	e1a01003 	mov	r1, r3
400145dc:	e12fff1e 	bx	lr
400145e0:	e2633000 	rsb	r3, r3, #0
400145e4:	e1a03a43 	asr	r3, r3, #20
400145e8:	e3530013 	cmp	r3, #19
400145ec:	da000008 	ble	40014614 <__ulp+0x54>
400145f0:	e2433014 	sub	r3, r3, #20
400145f4:	e353001e 	cmp	r3, #30
400145f8:	d3a02001 	movle	r2, #1
400145fc:	c3a03001 	movgt	r3, #1
40014600:	d263301f 	rsble	r3, r3, #31
40014604:	d1a03312 	lslle	r3, r2, r3
40014608:	e3a01000 	mov	r1, #0
4001460c:	e1a00003 	mov	r0, r3
40014610:	e12fff1e 	bx	lr
40014614:	e3a02702 	mov	r2, #524288	; 0x80000
40014618:	e3a00000 	mov	r0, #0
4001461c:	e1a01352 	asr	r1, r2, r3
40014620:	e12fff1e 	bx	lr
40014624:	7ff00000 	.word	0x7ff00000

Disassembly of section .text.__b2d:

40014628 <__b2d>:
40014628:	e92d41f0 	push	{r4, r5, r6, r7, r8, lr}
4001462c:	e5907010 	ldr	r7, [r0, #16]
40014630:	e2806014 	add	r6, r0, #20
40014634:	e0867107 	add	r7, r6, r7, lsl #2
40014638:	e5178004 	ldr	r8, [r7, #-4]
4001463c:	e1a00008 	mov	r0, r8
40014640:	ebfffe26 	bl	40013ee0 <__hi0bits>
40014644:	e2603020 	rsb	r3, r0, #32
40014648:	e350000a 	cmp	r0, #10
4001464c:	e5813000 	str	r3, [r1]
40014650:	e2473004 	sub	r3, r7, #4
40014654:	ca00000c 	bgt	4001468c <__b2d+0x64>
40014658:	e59f20b0 	ldr	r2, [pc, #176]	; 40014710 <__b2d+0xe8>
4001465c:	e1560003 	cmp	r6, r3
40014660:	e260300b 	rsb	r3, r0, #11
40014664:	e1825338 	orr	r5, r2, r8, lsr r3
40014668:	23a02000 	movcs	r2, #0
4001466c:	35172008 	ldrcc	r2, [r7, #-8]
40014670:	31a02332 	lsrcc	r2, r2, r3
40014674:	e2803015 	add	r3, r0, #21
40014678:	e1824318 	orr	r4, r2, r8, lsl r3
4001467c:	e1a00004 	mov	r0, r4
40014680:	e1a01005 	mov	r1, r5
40014684:	e8bd41f0 	pop	{r4, r5, r6, r7, r8, lr}
40014688:	e12fff1e 	bx	lr
4001468c:	e1560003 	cmp	r6, r3
40014690:	2a000011 	bcs	400146dc <__b2d+0xb4>
40014694:	e250200b 	subs	r2, r0, #11
40014698:	e5173008 	ldr	r3, [r7, #-8]
4001469c:	0a000010 	beq	400146e4 <__b2d+0xbc>
400146a0:	e59f1068 	ldr	r1, [pc, #104]	; 40014710 <__b2d+0xe8>
400146a4:	e247c008 	sub	ip, r7, #8
400146a8:	e156000c 	cmp	r6, ip
400146ac:	e262e020 	rsb	lr, r2, #32
400146b0:	e1818218 	orr	r8, r1, r8, lsl r2
400146b4:	3517000c 	ldrcc	r0, [r7, #-12]
400146b8:	e1885e33 	orr	r5, r8, r3, lsr lr
400146bc:	31a03213 	lslcc	r3, r3, r2
400146c0:	21a00213 	lslcs	r0, r3, r2
400146c4:	31830e30 	orrcc	r0, r3, r0, lsr lr
400146c8:	e1a04000 	mov	r4, r0
400146cc:	e1a01005 	mov	r1, r5
400146d0:	e1a00004 	mov	r0, r4
400146d4:	e8bd41f0 	pop	{r4, r5, r6, r7, r8, lr}
400146d8:	e12fff1e 	bx	lr
400146dc:	e250300b 	subs	r3, r0, #11
400146e0:	1a000006 	bne	40014700 <__b2d+0xd8>
400146e4:	e1a04003 	mov	r4, r3
400146e8:	e38855ff 	orr	r5, r8, #1069547520	; 0x3fc00000
400146ec:	e3855603 	orr	r5, r5, #3145728	; 0x300000
400146f0:	e1a00004 	mov	r0, r4
400146f4:	e1a01005 	mov	r1, r5
400146f8:	e8bd41f0 	pop	{r4, r5, r6, r7, r8, lr}
400146fc:	e12fff1e 	bx	lr
40014700:	e59f2008 	ldr	r2, [pc, #8]	; 40014710 <__b2d+0xe8>
40014704:	e3a00000 	mov	r0, #0
40014708:	e1825318 	orr	r5, r2, r8, lsl r3
4001470c:	eaffffed 	b	400146c8 <__b2d+0xa0>
40014710:	3ff00000 	.word	0x3ff00000

Disassembly of section .text.__d2b:

40014714 <__d2b>:
40014714:	e92d41f0 	push	{r4, r5, r6, r7, r8, lr}
40014718:	e1a04003 	mov	r4, r3
4001471c:	e24dd008 	sub	sp, sp, #8
40014720:	e3a01001 	mov	r1, #1
40014724:	e1a08002 	mov	r8, r2
40014728:	e59d6020 	ldr	r6, [sp, #32]
4001472c:	e59d5024 	ldr	r5, [sp, #36]	; 0x24
40014730:	ebfffd4d 	bl	40013c6c <_Balloc>
40014734:	e59f30e4 	ldr	r3, [pc, #228]	; 40014820 <__d2b+0x10c>
40014738:	e3c414ff 	bic	r1, r4, #-16777216	; 0xff000000
4001473c:	e3c1160f 	bic	r1, r1, #15728640	; 0xf00000
40014740:	e0134a24 	ands	r4, r3, r4, lsr #20
40014744:	13811601 	orrne	r1, r1, #1048576	; 0x100000
40014748:	e3580000 	cmp	r8, #0
4001474c:	e1a07000 	mov	r7, r0
40014750:	e58d1004 	str	r1, [sp, #4]
40014754:	0a00001d 	beq	400147d0 <__d2b+0xbc>
40014758:	e28d0008 	add	r0, sp, #8
4001475c:	e5208008 	str	r8, [r0, #-8]!
40014760:	ebfffdf4 	bl	40013f38 <__lo0bits>
40014764:	e89d000c 	ldm	sp, {r2, r3}
40014768:	e3500000 	cmp	r0, #0
4001476c:	12601020 	rsbne	r1, r0, #32
40014770:	11822113 	orrne	r2, r2, r3, lsl r1
40014774:	11a03033 	lsrne	r3, r3, r0
40014778:	15872014 	strne	r2, [r7, #20]
4001477c:	158d3004 	strne	r3, [sp, #4]
40014780:	05872014 	streq	r2, [r7, #20]
40014784:	e3530000 	cmp	r3, #0
40014788:	03a01001 	moveq	r1, #1
4001478c:	13a01002 	movne	r1, #2
40014790:	e3540000 	cmp	r4, #0
40014794:	e5873018 	str	r3, [r7, #24]
40014798:	e5871010 	str	r1, [r7, #16]
4001479c:	1a000015 	bne	400147f8 <__d2b+0xe4>
400147a0:	e2400e43 	sub	r0, r0, #1072	; 0x430
400147a4:	e0873101 	add	r3, r7, r1, lsl #2
400147a8:	e2400002 	sub	r0, r0, #2
400147ac:	e5860000 	str	r0, [r6]
400147b0:	e5930010 	ldr	r0, [r3, #16]
400147b4:	ebfffdc9 	bl	40013ee0 <__hi0bits>
400147b8:	e0600281 	rsb	r0, r0, r1, lsl #5
400147bc:	e5850000 	str	r0, [r5]
400147c0:	e1a00007 	mov	r0, r7
400147c4:	e28dd008 	add	sp, sp, #8
400147c8:	e8bd41f0 	pop	{r4, r5, r6, r7, r8, lr}
400147cc:	e12fff1e 	bx	lr
400147d0:	e28d0004 	add	r0, sp, #4
400147d4:	ebfffdd7 	bl	40013f38 <__lo0bits>
400147d8:	e3a03001 	mov	r3, #1
400147dc:	e59d2004 	ldr	r2, [sp, #4]
400147e0:	e3540000 	cmp	r4, #0
400147e4:	e1a01003 	mov	r1, r3
400147e8:	e5873010 	str	r3, [r7, #16]
400147ec:	e5872014 	str	r2, [r7, #20]
400147f0:	e2800020 	add	r0, r0, #32
400147f4:	0affffe9 	beq	400147a0 <__d2b+0x8c>
400147f8:	e2444e43 	sub	r4, r4, #1072	; 0x430
400147fc:	e2444003 	sub	r4, r4, #3
40014800:	e0844000 	add	r4, r4, r0
40014804:	e2600035 	rsb	r0, r0, #53	; 0x35
40014808:	e5864000 	str	r4, [r6]
4001480c:	e5850000 	str	r0, [r5]
40014810:	e1a00007 	mov	r0, r7
40014814:	e28dd008 	add	sp, sp, #8
40014818:	e8bd41f0 	pop	{r4, r5, r6, r7, r8, lr}
4001481c:	e12fff1e 	bx	lr
40014820:	000007ff 	.word	0x000007ff

Disassembly of section .text.__ratio:

40014824 <__ratio>:
40014824:	e92d43f0 	push	{r4, r5, r6, r7, r8, r9, lr}
40014828:	e24dd00c 	sub	sp, sp, #12
4001482c:	e1a08001 	mov	r8, r1
40014830:	e1a0100d 	mov	r1, sp
40014834:	e1a09000 	mov	r9, r0
40014838:	ebffff7a 	bl	40014628 <__b2d>
4001483c:	e1a04000 	mov	r4, r0
40014840:	e1a05001 	mov	r5, r1
40014844:	e1a00008 	mov	r0, r8
40014848:	e28d1004 	add	r1, sp, #4
4001484c:	ebffff75 	bl	40014628 <__b2d>
40014850:	e59d3000 	ldr	r3, [sp]
40014854:	e1a06000 	mov	r6, r0
40014858:	e1a07001 	mov	r7, r1
4001485c:	e5980010 	ldr	r0, [r8, #16]
40014860:	e5991010 	ldr	r1, [r9, #16]
40014864:	e59d2004 	ldr	r2, [sp, #4]
40014868:	e0411000 	sub	r1, r1, r0
4001486c:	e0433002 	sub	r3, r3, r2
40014870:	e0833281 	add	r3, r3, r1, lsl #5
40014874:	e3530000 	cmp	r3, #0
40014878:	da000009 	ble	400148a4 <__ratio+0x80>
4001487c:	e0859a03 	add	r9, r5, r3, lsl #20
40014880:	e1a05009 	mov	r5, r9
40014884:	e1a02006 	mov	r2, r6
40014888:	e1a03007 	mov	r3, r7
4001488c:	e1a00004 	mov	r0, r4
40014890:	e1a01005 	mov	r1, r5
40014894:	ebffb64d 	bl	400021d0 <__aeabi_ddiv>
40014898:	e28dd00c 	add	sp, sp, #12
4001489c:	e8bd43f0 	pop	{r4, r5, r6, r7, r8, r9, lr}
400148a0:	e12fff1e 	bx	lr
400148a4:	e0633603 	rsb	r3, r3, r3, lsl #12
400148a8:	e0871a03 	add	r1, r7, r3, lsl #20
400148ac:	e1a07001 	mov	r7, r1
400148b0:	eafffff3 	b	40014884 <__ratio+0x60>

Disassembly of section .text._mprec_log10:

400148b4 <_mprec_log10>:
400148b4:	e3500017 	cmp	r0, #23
400148b8:	e92d40d0 	push	{r4, r6, r7, lr}
400148bc:	e1a04000 	mov	r4, r0
400148c0:	da00000a 	ble	400148f0 <_mprec_log10+0x3c>
400148c4:	e3a00000 	mov	r0, #0
400148c8:	e3a06000 	mov	r6, #0
400148cc:	e59f1030 	ldr	r1, [pc, #48]	; 40014904 <_mprec_log10+0x50>
400148d0:	e59f7030 	ldr	r7, [pc, #48]	; 40014908 <_mprec_log10+0x54>
400148d4:	e1a02006 	mov	r2, r6
400148d8:	e1a03007 	mov	r3, r7
400148dc:	ebffb597 	bl	40001f40 <__aeabi_dmul>
400148e0:	e2544001 	subs	r4, r4, #1
400148e4:	1afffffa 	bne	400148d4 <_mprec_log10+0x20>
400148e8:	e8bd40d0 	pop	{r4, r6, r7, lr}
400148ec:	e12fff1e 	bx	lr
400148f0:	e59f3014 	ldr	r3, [pc, #20]	; 4001490c <_mprec_log10+0x58>
400148f4:	e0834180 	add	r4, r3, r0, lsl #3
400148f8:	e8940003 	ldm	r4, {r0, r1}
400148fc:	e8bd40d0 	pop	{r4, r6, r7, lr}
40014900:	e12fff1e 	bx	lr
40014904:	3ff00000 	.word	0x3ff00000
40014908:	40240000 	.word	0x40240000
4001490c:	400198a0 	.word	0x400198a0

Disassembly of section .text.__copybits:

40014910 <__copybits>:
40014910:	e592c010 	ldr	ip, [r2, #16]
40014914:	e2823014 	add	r3, r2, #20
40014918:	e92d4010 	push	{r4, lr}
4001491c:	e2414001 	sub	r4, r1, #1
40014920:	e1a042c4 	asr	r4, r4, #5
40014924:	e083c10c 	add	ip, r3, ip, lsl #2
40014928:	e2844001 	add	r4, r4, #1
4001492c:	e153000c 	cmp	r3, ip
40014930:	e0804104 	add	r4, r0, r4, lsl #2
40014934:	2a000009 	bcs	40014960 <__copybits+0x50>
40014938:	e2401004 	sub	r1, r0, #4
4001493c:	e493e004 	ldr	lr, [r3], #4
40014940:	e15c0003 	cmp	ip, r3
40014944:	e5a1e004 	str	lr, [r1, #4]!
40014948:	8afffffb 	bhi	4001493c <__copybits+0x2c>
4001494c:	e04c3002 	sub	r3, ip, r2
40014950:	e2433015 	sub	r3, r3, #21
40014954:	e3c33003 	bic	r3, r3, #3
40014958:	e2833004 	add	r3, r3, #4
4001495c:	e0800003 	add	r0, r0, r3
40014960:	e1540000 	cmp	r4, r0
40014964:	9a000003 	bls	40014978 <__copybits+0x68>
40014968:	e3a03000 	mov	r3, #0
4001496c:	e4803004 	str	r3, [r0], #4
40014970:	e1540000 	cmp	r4, r0
40014974:	8afffffc 	bhi	4001496c <__copybits+0x5c>
40014978:	e8bd4010 	pop	{r4, lr}
4001497c:	e12fff1e 	bx	lr

Disassembly of section .text.__any_on:

40014980 <__any_on>:
40014980:	e5903010 	ldr	r3, [r0, #16]
40014984:	e1a022c1 	asr	r2, r1, #5
40014988:	e1530002 	cmp	r3, r2
4001498c:	e280c014 	add	ip, r0, #20
40014990:	b08c3103 	addlt	r3, ip, r3, lsl #2
40014994:	ba00000a 	blt	400149c4 <__any_on+0x44>
40014998:	da000008 	ble	400149c0 <__any_on+0x40>
4001499c:	e211101f 	ands	r1, r1, #31
400149a0:	0a000006 	beq	400149c0 <__any_on+0x40>
400149a4:	e79c3102 	ldr	r3, [ip, r2, lsl #2]
400149a8:	e1a00133 	lsr	r0, r3, r1
400149ac:	e1530110 	cmp	r3, r0, lsl r1
400149b0:	e08c3102 	add	r3, ip, r2, lsl #2
400149b4:	0a000002 	beq	400149c4 <__any_on+0x44>
400149b8:	e3a00001 	mov	r0, #1
400149bc:	e12fff1e 	bx	lr
400149c0:	e08c3102 	add	r3, ip, r2, lsl #2
400149c4:	e15c0003 	cmp	ip, r3
400149c8:	2a00000a 	bcs	400149f8 <__any_on+0x78>
400149cc:	e5130004 	ldr	r0, [r3, #-4]
400149d0:	e3500000 	cmp	r0, #0
400149d4:	e2433004 	sub	r3, r3, #4
400149d8:	0a000003 	beq	400149ec <__any_on+0x6c>
400149dc:	eafffff5 	b	400149b8 <__any_on+0x38>
400149e0:	e5332004 	ldr	r2, [r3, #-4]!
400149e4:	e3520000 	cmp	r2, #0
400149e8:	1afffff2 	bne	400149b8 <__any_on+0x38>
400149ec:	e15c0003 	cmp	ip, r3
400149f0:	3afffffa 	bcc	400149e0 <__any_on+0x60>
400149f4:	e12fff1e 	bx	lr
400149f8:	e3a00000 	mov	r0, #0
400149fc:	e12fff1e 	bx	lr

Disassembly of section .text.__sread:

40014a00 <__sread>:
40014a00:	e92d4010 	push	{r4, lr}
40014a04:	e1a04001 	mov	r4, r1
40014a08:	e1d110fe 	ldrsh	r1, [r1, #14]
40014a0c:	ebffb118 	bl	40000e74 <_read_r>
40014a10:	e3500000 	cmp	r0, #0
40014a14:	a5943050 	ldrge	r3, [r4, #80]	; 0x50
40014a18:	b1d430bc 	ldrhlt	r3, [r4, #12]
40014a1c:	a0833000 	addge	r3, r3, r0
40014a20:	b3c33a01 	biclt	r3, r3, #4096	; 0x1000
40014a24:	a5843050 	strge	r3, [r4, #80]	; 0x50
40014a28:	b1c430bc 	strhlt	r3, [r4, #12]
40014a2c:	e8bd4010 	pop	{r4, lr}
40014a30:	e12fff1e 	bx	lr

Disassembly of section .text.__seofread:

40014a34 <__seofread>:
40014a34:	e3a00000 	mov	r0, #0
40014a38:	e12fff1e 	bx	lr

Disassembly of section .text.__swrite:

40014a3c <__swrite>:
40014a3c:	e92d41f0 	push	{r4, r5, r6, r7, r8, lr}
40014a40:	e1a04001 	mov	r4, r1
40014a44:	e1d110fc 	ldrsh	r1, [r1, #12]
40014a48:	e3110c01 	tst	r1, #256	; 0x100
40014a4c:	e1a06002 	mov	r6, r2
40014a50:	e1a07003 	mov	r7, r3
40014a54:	e1a05000 	mov	r5, r0
40014a58:	0a000004 	beq	40014a70 <__swrite+0x34>
40014a5c:	e1d410fe 	ldrsh	r1, [r4, #14]
40014a60:	e3a03002 	mov	r3, #2
40014a64:	e3a02000 	mov	r2, #0
40014a68:	ebffb146 	bl	40000f88 <_lseek_r>
40014a6c:	e1d410fc 	ldrsh	r1, [r4, #12]
40014a70:	e3c11a01 	bic	r1, r1, #4096	; 0x1000
40014a74:	e1c410bc 	strh	r1, [r4, #12]
40014a78:	e1a03007 	mov	r3, r7
40014a7c:	e1a02006 	mov	r2, r6
40014a80:	e1d410fe 	ldrsh	r1, [r4, #14]
40014a84:	e1a00005 	mov	r0, r5
40014a88:	ebffb11c 	bl	40000f00 <_write_r>
40014a8c:	e8bd41f0 	pop	{r4, r5, r6, r7, r8, lr}
40014a90:	e12fff1e 	bx	lr

Disassembly of section .text.__sseek:

40014a94 <__sseek>:
40014a94:	e92d4010 	push	{r4, lr}
40014a98:	e1a04001 	mov	r4, r1
40014a9c:	e1d110fe 	ldrsh	r1, [r1, #14]
40014aa0:	ebffb138 	bl	40000f88 <_lseek_r>
40014aa4:	e1d430bc 	ldrh	r3, [r4, #12]
40014aa8:	e3700001 	cmn	r0, #1
40014aac:	03c33a01 	biceq	r3, r3, #4096	; 0x1000
40014ab0:	13833a01 	orrne	r3, r3, #4096	; 0x1000
40014ab4:	15840050 	strne	r0, [r4, #80]	; 0x50
40014ab8:	e1c430bc 	strh	r3, [r4, #12]
40014abc:	e8bd4010 	pop	{r4, lr}
40014ac0:	e12fff1e 	bx	lr

Disassembly of section .text.__sclose:

40014ac4 <__sclose>:
40014ac4:	e92d4010 	push	{r4, lr}
40014ac8:	e1d110fe 	ldrsh	r1, [r1, #14]
40014acc:	ebffb0de 	bl	40000e4c <_close_r>
40014ad0:	e8bd4010 	pop	{r4, lr}
40014ad4:	e12fff1e 	bx	lr

Disassembly of section .text.__ssprint_r:

40014ad8 <__ssprint_r>:
40014ad8:	e92d4ff0 	push	{r4, r5, r6, r7, r8, r9, sl, fp, lr}
40014adc:	e5923008 	ldr	r3, [r2, #8]
40014ae0:	e3530000 	cmp	r3, #0
40014ae4:	e24dd00c 	sub	sp, sp, #12
40014ae8:	e1a08002 	mov	r8, r2
40014aec:	0a000058 	beq	40014c54 <__ssprint_r+0x17c>
40014af0:	e1a0a000 	mov	sl, r0
40014af4:	e1a04001 	mov	r4, r1
40014af8:	e5927000 	ldr	r7, [r2]
40014afc:	e5915008 	ldr	r5, [r1, #8]
40014b00:	e5910000 	ldr	r0, [r1]
40014b04:	ea000033 	b	40014bd8 <__ssprint_r+0x100>
40014b08:	e1d430bc 	ldrh	r3, [r4, #12]
40014b0c:	e3130d12 	tst	r3, #1152	; 0x480
40014b10:	0a000022 	beq	40014ba0 <__ssprint_r+0xc8>
40014b14:	e2841010 	add	r1, r4, #16
40014b18:	e8910006 	ldm	r1, {r1, r2}
40014b1c:	e040b001 	sub	fp, r0, r1
40014b20:	e0822082 	add	r2, r2, r2, lsl #1
40014b24:	e28b5001 	add	r5, fp, #1
40014b28:	e0822fa2 	add	r2, r2, r2, lsr #31
40014b2c:	e0855006 	add	r5, r5, r6
40014b30:	e1a020c2 	asr	r2, r2, #1
40014b34:	e1550002 	cmp	r5, r2
40014b38:	91a05002 	movls	r5, r2
40014b3c:	81a02005 	movhi	r2, r5
40014b40:	e3130b01 	tst	r3, #1024	; 0x400
40014b44:	0a00002f 	beq	40014c08 <__ssprint_r+0x130>
40014b48:	e1a01002 	mov	r1, r2
40014b4c:	e1a0000a 	mov	r0, sl
40014b50:	ebffda74 	bl	4000b528 <_malloc_r>
40014b54:	e2503000 	subs	r3, r0, #0
40014b58:	0a000031 	beq	40014c24 <__ssprint_r+0x14c>
40014b5c:	e1a0200b 	mov	r2, fp
40014b60:	e5941010 	ldr	r1, [r4, #16]
40014b64:	e58d3004 	str	r3, [sp, #4]
40014b68:	ebffdcd1 	bl	4000beb4 <memcpy>
40014b6c:	e1d420bc 	ldrh	r2, [r4, #12]
40014b70:	e3c22d12 	bic	r2, r2, #1152	; 0x480
40014b74:	e3822080 	orr	r2, r2, #128	; 0x80
40014b78:	e1c420bc 	strh	r2, [r4, #12]
40014b7c:	e59d3004 	ldr	r3, [sp, #4]
40014b80:	e083000b 	add	r0, r3, fp
40014b84:	e045b00b 	sub	fp, r5, fp
40014b88:	e584b008 	str	fp, [r4, #8]
40014b8c:	e5845014 	str	r5, [r4, #20]
40014b90:	e1a0b006 	mov	fp, r6
40014b94:	e1a05006 	mov	r5, r6
40014b98:	e5843010 	str	r3, [r4, #16]
40014b9c:	e5840000 	str	r0, [r4]
40014ba0:	e1a0200b 	mov	r2, fp
40014ba4:	e1a01009 	mov	r1, r9
40014ba8:	ebffdd06 	bl	4000bfc8 <memmove>
40014bac:	e5983008 	ldr	r3, [r8, #8]
40014bb0:	e5942008 	ldr	r2, [r4, #8]
40014bb4:	e5940000 	ldr	r0, [r4]
40014bb8:	e0436006 	sub	r6, r3, r6
40014bbc:	e0425005 	sub	r5, r2, r5
40014bc0:	e080000b 	add	r0, r0, fp
40014bc4:	e3560000 	cmp	r6, #0
40014bc8:	e5845008 	str	r5, [r4, #8]
40014bcc:	e5840000 	str	r0, [r4]
40014bd0:	e5886008 	str	r6, [r8, #8]
40014bd4:	0a00001e 	beq	40014c54 <__ssprint_r+0x17c>
40014bd8:	e5976004 	ldr	r6, [r7, #4]
40014bdc:	e3560000 	cmp	r6, #0
40014be0:	e1a03007 	mov	r3, r7
40014be4:	e2877008 	add	r7, r7, #8
40014be8:	0afffffa 	beq	40014bd8 <__ssprint_r+0x100>
40014bec:	e1560005 	cmp	r6, r5
40014bf0:	e5939000 	ldr	r9, [r3]
40014bf4:	e1a0b005 	mov	fp, r5
40014bf8:	2affffc2 	bcs	40014b08 <__ssprint_r+0x30>
40014bfc:	e1a05006 	mov	r5, r6
40014c00:	e1a0b006 	mov	fp, r6
40014c04:	eaffffe5 	b	40014ba0 <__ssprint_r+0xc8>
40014c08:	e1a0000a 	mov	r0, sl
40014c0c:	ebffddf0 	bl	4000c3d4 <_realloc_r>
40014c10:	e2503000 	subs	r3, r0, #0
40014c14:	1affffd9 	bne	40014b80 <__ssprint_r+0xa8>
40014c18:	e5941010 	ldr	r1, [r4, #16]
40014c1c:	e1a0000a 	mov	r0, sl
40014c20:	ebfffa97 	bl	40013684 <_free_r>
40014c24:	e3a0300c 	mov	r3, #12
40014c28:	e3a02000 	mov	r2, #0
40014c2c:	e3e00000 	mvn	r0, #0
40014c30:	e58a3000 	str	r3, [sl]
40014c34:	e1d430bc 	ldrh	r3, [r4, #12]
40014c38:	e3833040 	orr	r3, r3, #64	; 0x40
40014c3c:	e1c430bc 	strh	r3, [r4, #12]
40014c40:	e5882008 	str	r2, [r8, #8]
40014c44:	e5882004 	str	r2, [r8, #4]
40014c48:	e28dd00c 	add	sp, sp, #12
40014c4c:	e8bd4ff0 	pop	{r4, r5, r6, r7, r8, r9, sl, fp, lr}
40014c50:	e12fff1e 	bx	lr
40014c54:	e3a00000 	mov	r0, #0
40014c58:	e5880004 	str	r0, [r8, #4]
40014c5c:	e28dd00c 	add	sp, sp, #12
40014c60:	e8bd4ff0 	pop	{r4, r5, r6, r7, r8, r9, sl, fp, lr}
40014c64:	e12fff1e 	bx	lr

Disassembly of section .text._svfiprintf_r:

40014c68 <_svfiprintf_r>:
40014c68:	e92d4ff0 	push	{r4, r5, r6, r7, r8, r9, sl, fp, lr}
40014c6c:	e24dd0b4 	sub	sp, sp, #180	; 0xb4
40014c70:	e1a0c001 	mov	ip, r1
40014c74:	e58d100c 	str	r1, [sp, #12]
40014c78:	e1d110bc 	ldrh	r1, [r1, #12]
40014c7c:	e3110080 	tst	r1, #128	; 0x80
40014c80:	e58d301c 	str	r3, [sp, #28]
40014c84:	e58d0014 	str	r0, [sp, #20]
40014c88:	0a000002 	beq	40014c98 <_svfiprintf_r+0x30>
40014c8c:	e59c3010 	ldr	r3, [ip, #16]
40014c90:	e3530000 	cmp	r3, #0
40014c94:	0a0003d3 	beq	40015be8 <_svfiprintf_r+0xf80>
40014c98:	e3a03000 	mov	r3, #0
40014c9c:	e1a08002 	mov	r8, r2
40014ca0:	e28da070 	add	sl, sp, #112	; 0x70
40014ca4:	e58d3028 	str	r3, [sp, #40]	; 0x28
40014ca8:	e58d3004 	str	r3, [sp, #4]
40014cac:	e58d3044 	str	r3, [sp, #68]	; 0x44
40014cb0:	e58d3040 	str	r3, [sp, #64]	; 0x40
40014cb4:	e58da03c 	str	sl, [sp, #60]	; 0x3c
40014cb8:	e59fbfd0 	ldr	fp, [pc, #4048]	; 40015c90 <_svfiprintf_r+0x1028>
40014cbc:	e59f9fd0 	ldr	r9, [pc, #4048]	; 40015c94 <_svfiprintf_r+0x102c>
40014cc0:	e5d83000 	ldrb	r3, [r8]
40014cc4:	e3530000 	cmp	r3, #0
40014cc8:	13530025 	cmpne	r3, #37	; 0x25
40014ccc:	e1a04008 	mov	r4, r8
40014cd0:	0a000013 	beq	40014d24 <_svfiprintf_r+0xbc>
40014cd4:	e5f43001 	ldrb	r3, [r4, #1]!
40014cd8:	e3530000 	cmp	r3, #0
40014cdc:	13530025 	cmpne	r3, #37	; 0x25
40014ce0:	1afffffb 	bne	40014cd4 <_svfiprintf_r+0x6c>
40014ce4:	e0545008 	subs	r5, r4, r8
40014ce8:	0a00000d 	beq	40014d24 <_svfiprintf_r+0xbc>
40014cec:	e59d3040 	ldr	r3, [sp, #64]	; 0x40
40014cf0:	e59d2044 	ldr	r2, [sp, #68]	; 0x44
40014cf4:	e2833001 	add	r3, r3, #1
40014cf8:	e3530007 	cmp	r3, #7
40014cfc:	e0822005 	add	r2, r2, r5
40014d00:	e58a8000 	str	r8, [sl]
40014d04:	e58a5004 	str	r5, [sl, #4]
40014d08:	e58d3040 	str	r3, [sp, #64]	; 0x40
40014d0c:	e58d2044 	str	r2, [sp, #68]	; 0x44
40014d10:	d28aa008 	addle	sl, sl, #8
40014d14:	ca00035a 	bgt	40015a84 <_svfiprintf_r+0xe1c>
40014d18:	e59d3004 	ldr	r3, [sp, #4]
40014d1c:	e0833005 	add	r3, r3, r5
40014d20:	e58d3004 	str	r3, [sp, #4]
40014d24:	e5d43000 	ldrb	r3, [r4]
40014d28:	e3530000 	cmp	r3, #0
40014d2c:	0a0002d0 	beq	40015874 <_svfiprintf_r+0xc0c>
40014d30:	e3a01000 	mov	r1, #0
40014d34:	e3a03000 	mov	r3, #0
40014d38:	e2848001 	add	r8, r4, #1
40014d3c:	e5cd3037 	strb	r3, [sp, #55]	; 0x37
40014d40:	e3e07000 	mvn	r7, #0
40014d44:	e5d43001 	ldrb	r3, [r4, #1]
40014d48:	e1a0c001 	mov	ip, r1
40014d4c:	e1a00001 	mov	r0, r1
40014d50:	e1a06001 	mov	r6, r1
40014d54:	e3a0e001 	mov	lr, #1
40014d58:	e3a0402b 	mov	r4, #43	; 0x2b
40014d5c:	e3a05020 	mov	r5, #32
40014d60:	e2888001 	add	r8, r8, #1
40014d64:	e2432020 	sub	r2, r3, #32
40014d68:	e3520058 	cmp	r2, #88	; 0x58
40014d6c:	979ff102 	ldrls	pc, [pc, r2, lsl #2]
40014d70:	ea00028b 	b	400157a4 <_svfiprintf_r+0xb3c>
40014d74:	40015000 	.word	0x40015000
40014d78:	400157a4 	.word	0x400157a4
40014d7c:	400157a4 	.word	0x400157a4
40014d80:	40014ff4 	.word	0x40014ff4
40014d84:	400157a4 	.word	0x400157a4
40014d88:	400157a4 	.word	0x400157a4
40014d8c:	400157a4 	.word	0x400157a4
40014d90:	400157a4 	.word	0x400157a4
40014d94:	400157a4 	.word	0x400157a4
40014d98:	400157a4 	.word	0x400157a4
40014d9c:	40014ed8 	.word	0x40014ed8
40014da0:	40014fe4 	.word	0x40014fe4
40014da4:	400157a4 	.word	0x400157a4
40014da8:	40014ef4 	.word	0x40014ef4
40014dac:	40015580 	.word	0x40015580
40014db0:	400157a4 	.word	0x400157a4
40014db4:	40015574 	.word	0x40015574
40014db8:	40015550 	.word	0x40015550
40014dbc:	40015550 	.word	0x40015550
40014dc0:	40015550 	.word	0x40015550
40014dc4:	40015550 	.word	0x40015550
40014dc8:	40015550 	.word	0x40015550
40014dcc:	40015550 	.word	0x40015550
40014dd0:	40015550 	.word	0x40015550
40014dd4:	40015550 	.word	0x40015550
40014dd8:	40015550 	.word	0x40015550
40014ddc:	400157a4 	.word	0x400157a4
40014de0:	400157a4 	.word	0x400157a4
40014de4:	400157a4 	.word	0x400157a4
40014de8:	400157a4 	.word	0x400157a4
40014dec:	400157a4 	.word	0x400157a4
40014df0:	400157a4 	.word	0x400157a4
40014df4:	400157a4 	.word	0x400157a4
40014df8:	400157a4 	.word	0x400157a4
40014dfc:	400157a4 	.word	0x400157a4
40014e00:	400157a4 	.word	0x400157a4
40014e04:	40015488 	.word	0x40015488
40014e08:	400157a4 	.word	0x400157a4
40014e0c:	400157a4 	.word	0x400157a4
40014e10:	400157a4 	.word	0x400157a4
40014e14:	400157a4 	.word	0x400157a4
40014e18:	400157a4 	.word	0x400157a4
40014e1c:	400157a4 	.word	0x400157a4
40014e20:	400157a4 	.word	0x400157a4
40014e24:	400157a4 	.word	0x400157a4
40014e28:	400157a4 	.word	0x400157a4
40014e2c:	400157a4 	.word	0x400157a4
40014e30:	40015458 	.word	0x40015458
40014e34:	400157a4 	.word	0x400157a4
40014e38:	400157a4 	.word	0x400157a4
40014e3c:	400157a4 	.word	0x400157a4
40014e40:	400157a4 	.word	0x400157a4
40014e44:	400157a4 	.word	0x400157a4
40014e48:	40015428 	.word	0x40015428
40014e4c:	400157a4 	.word	0x400157a4
40014e50:	400157a4 	.word	0x400157a4
40014e54:	400153e4 	.word	0x400153e4
40014e58:	400157a4 	.word	0x400157a4
40014e5c:	400157a4 	.word	0x400157a4
40014e60:	400157a4 	.word	0x400157a4
40014e64:	400157a4 	.word	0x400157a4
40014e68:	400157a4 	.word	0x400157a4
40014e6c:	400157a4 	.word	0x400157a4
40014e70:	400157a4 	.word	0x400157a4
40014e74:	400157a4 	.word	0x400157a4
40014e78:	400157a4 	.word	0x400157a4
40014e7c:	400157a4 	.word	0x400157a4
40014e80:	40015014 	.word	0x40015014
40014e84:	40015624 	.word	0x40015624
40014e88:	400157a4 	.word	0x400157a4
40014e8c:	400157a4 	.word	0x400157a4
40014e90:	400157a4 	.word	0x400157a4
40014e94:	40015618 	.word	0x40015618
40014e98:	40015624 	.word	0x40015624
40014e9c:	400157a4 	.word	0x400157a4
40014ea0:	400157a4 	.word	0x400157a4
40014ea4:	400155fc 	.word	0x400155fc
40014ea8:	400157a4 	.word	0x400157a4
40014eac:	400155c0 	.word	0x400155c0
40014eb0:	40014f38 	.word	0x40014f38
40014eb4:	400156f4 	.word	0x400156f4
40014eb8:	400156e8 	.word	0x400156e8
40014ebc:	400157a4 	.word	0x400157a4
40014ec0:	40015680 	.word	0x40015680
40014ec4:	400157a4 	.word	0x400157a4
40014ec8:	40014f00 	.word	0x40014f00
40014ecc:	400157a4 	.word	0x400157a4
40014ed0:	400157a4 	.word	0x400157a4
40014ed4:	40014f70 	.word	0x40014f70
40014ed8:	e59d301c 	ldr	r3, [sp, #28]
40014edc:	e5930000 	ldr	r0, [r3]
40014ee0:	e2833004 	add	r3, r3, #4
40014ee4:	e3500000 	cmp	r0, #0
40014ee8:	e58d301c 	str	r3, [sp, #28]
40014eec:	aa000001 	bge	40014ef8 <_svfiprintf_r+0x290>
40014ef0:	e2600000 	rsb	r0, r0, #0
40014ef4:	e3866004 	orr	r6, r6, #4
40014ef8:	e5d83000 	ldrb	r3, [r8]
40014efc:	eaffff97 	b	40014d60 <_svfiprintf_r+0xf8>
40014f00:	e3160020 	tst	r6, #32
40014f04:	e58d0018 	str	r0, [sp, #24]
40014f08:	e59d301c 	ldr	r3, [sp, #28]
40014f0c:	1a00014a 	bne	4001543c <_svfiprintf_r+0x7d4>
40014f10:	e3160010 	tst	r6, #16
40014f14:	1a000230 	bne	400157dc <_svfiprintf_r+0xb74>
40014f18:	e3160040 	tst	r6, #64	; 0x40
40014f1c:	0a00022e 	beq	400157dc <_svfiprintf_r+0xb74>
40014f20:	e1d340b0 	ldrh	r4, [r3]
40014f24:	e2833004 	add	r3, r3, #4
40014f28:	e3a02001 	mov	r2, #1
40014f2c:	e58d301c 	str	r3, [sp, #28]
40014f30:	e3a05000 	mov	r5, #0
40014f34:	ea0001fc 	b	4001572c <_svfiprintf_r+0xac4>
40014f38:	e3160020 	tst	r6, #32
40014f3c:	e58d0018 	str	r0, [sp, #24]
40014f40:	e59d301c 	ldr	r3, [sp, #28]
40014f44:	1a000148 	bne	4001546c <_svfiprintf_r+0x804>
40014f48:	e3160010 	tst	r6, #16
40014f4c:	1a000228 	bne	400157f4 <_svfiprintf_r+0xb8c>
40014f50:	e3160040 	tst	r6, #64	; 0x40
40014f54:	0a000226 	beq	400157f4 <_svfiprintf_r+0xb8c>
40014f58:	e1d340b0 	ldrh	r4, [r3]
40014f5c:	e2833004 	add	r3, r3, #4
40014f60:	e3a02000 	mov	r2, #0
40014f64:	e58d301c 	str	r3, [sp, #28]
40014f68:	e3a05000 	mov	r5, #0
40014f6c:	ea0001ee 	b	4001572c <_svfiprintf_r+0xac4>
40014f70:	e3510000 	cmp	r1, #0
40014f74:	e59f2d1c 	ldr	r2, [pc, #3356]	; 40015c98 <_svfiprintf_r+0x1030>
40014f78:	15cdc037 	strbne	ip, [sp, #55]	; 0x37
40014f7c:	e3160020 	tst	r6, #32
40014f80:	e58d2028 	str	r2, [sp, #40]	; 0x28
40014f84:	e58d0018 	str	r0, [sp, #24]
40014f88:	e59d201c 	ldr	r2, [sp, #28]
40014f8c:	1a00011c 	bne	40015404 <_svfiprintf_r+0x79c>
40014f90:	e3160010 	tst	r6, #16
40014f94:	1a00030b 	bne	40015bc8 <_svfiprintf_r+0xf60>
40014f98:	e3160040 	tst	r6, #64	; 0x40
40014f9c:	13a05000 	movne	r5, #0
40014fa0:	03a05000 	moveq	r5, #0
40014fa4:	11d240b0 	ldrhne	r4, [r2]
40014fa8:	05924000 	ldreq	r4, [r2]
40014fac:	12822004 	addne	r2, r2, #4
40014fb0:	02822004 	addeq	r2, r2, #4
40014fb4:	158d201c 	strne	r2, [sp, #28]
40014fb8:	058d201c 	streq	r2, [sp, #28]
40014fbc:	e3160001 	tst	r6, #1
40014fc0:	0a000116 	beq	40015420 <_svfiprintf_r+0x7b8>
40014fc4:	e1942005 	orrs	r2, r4, r5
40014fc8:	0a000114 	beq	40015420 <_svfiprintf_r+0x7b8>
40014fcc:	e3a02030 	mov	r2, #48	; 0x30
40014fd0:	e5cd3039 	strb	r3, [sp, #57]	; 0x39
40014fd4:	e5cd2038 	strb	r2, [sp, #56]	; 0x38
40014fd8:	e3866002 	orr	r6, r6, #2
40014fdc:	e3a02002 	mov	r2, #2
40014fe0:	ea0001d1 	b	4001572c <_svfiprintf_r+0xac4>
40014fe4:	e5d83000 	ldrb	r3, [r8]
40014fe8:	e1a0100e 	mov	r1, lr
40014fec:	e1a0c004 	mov	ip, r4
40014ff0:	eaffff5a 	b	40014d60 <_svfiprintf_r+0xf8>
40014ff4:	e3866001 	orr	r6, r6, #1
40014ff8:	e5d83000 	ldrb	r3, [r8]
40014ffc:	eaffff57 	b	40014d60 <_svfiprintf_r+0xf8>
40015000:	e35c0000 	cmp	ip, #0
40015004:	e5d83000 	ldrb	r3, [r8]
40015008:	01a0100e 	moveq	r1, lr
4001500c:	01a0c005 	moveq	ip, r5
40015010:	eaffff52 	b	40014d60 <_svfiprintf_r+0xf8>
40015014:	e3a03001 	mov	r3, #1
40015018:	e58d0018 	str	r0, [sp, #24]
4001501c:	e1a02003 	mov	r2, r3
40015020:	e3a00000 	mov	r0, #0
40015024:	e59d101c 	ldr	r1, [sp, #28]
40015028:	e58d3000 	str	r3, [sp]
4001502c:	e5913000 	ldr	r3, [r1]
40015030:	e5cd3048 	strb	r3, [sp, #72]	; 0x48
40015034:	e2813004 	add	r3, r1, #4
40015038:	e58d301c 	str	r3, [sp, #28]
4001503c:	e28d3048 	add	r3, sp, #72	; 0x48
40015040:	e5cd0037 	strb	r0, [sp, #55]	; 0x37
40015044:	e58d2010 	str	r2, [sp, #16]
40015048:	e58d3024 	str	r3, [sp, #36]	; 0x24
4001504c:	e3a07000 	mov	r7, #0
40015050:	e58d6008 	str	r6, [sp, #8]
40015054:	e59d3008 	ldr	r3, [sp, #8]
40015058:	e2135002 	ands	r5, r3, #2
4001505c:	159d3000 	ldrne	r3, [sp]
40015060:	12833002 	addne	r3, r3, #2
40015064:	158d3000 	strne	r3, [sp]
40015068:	e59d3008 	ldr	r3, [sp, #8]
4001506c:	e2133084 	ands	r3, r3, #132	; 0x84
40015070:	e58d3020 	str	r3, [sp, #32]
40015074:	1a00003e 	bne	40015174 <_svfiprintf_r+0x50c>
40015078:	e59d3018 	ldr	r3, [sp, #24]
4001507c:	e59d2000 	ldr	r2, [sp]
40015080:	e0434002 	sub	r4, r3, r2
40015084:	e3540000 	cmp	r4, #0
40015088:	da000039 	ble	40015174 <_svfiprintf_r+0x50c>
4001508c:	e3540010 	cmp	r4, #16
40015090:	da0002e1 	ble	40015c1c <_svfiprintf_r+0xfb4>
40015094:	e59d3040 	ldr	r3, [sp, #64]	; 0x40
40015098:	e58d702c 	str	r7, [sp, #44]	; 0x2c
4001509c:	e1a0000a 	mov	r0, sl
400150a0:	e1a07004 	mov	r7, r4
400150a4:	e1a0a005 	mov	sl, r5
400150a8:	e3a06010 	mov	r6, #16
400150ac:	e59d2044 	ldr	r2, [sp, #68]	; 0x44
400150b0:	e1a01003 	mov	r1, r3
400150b4:	e59d4014 	ldr	r4, [sp, #20]
400150b8:	e59d500c 	ldr	r5, [sp, #12]
400150bc:	ea000002 	b	400150cc <_svfiprintf_r+0x464>
400150c0:	e2477010 	sub	r7, r7, #16
400150c4:	e3570010 	cmp	r7, #16
400150c8:	da000014 	ble	40015120 <_svfiprintf_r+0x4b8>
400150cc:	e2811001 	add	r1, r1, #1
400150d0:	e3510007 	cmp	r1, #7
400150d4:	e2822010 	add	r2, r2, #16
400150d8:	e580b000 	str	fp, [r0]
400150dc:	e5806004 	str	r6, [r0, #4]
400150e0:	e58d1040 	str	r1, [sp, #64]	; 0x40
400150e4:	e58d2044 	str	r2, [sp, #68]	; 0x44
400150e8:	d2800008 	addle	r0, r0, #8
400150ec:	dafffff3 	ble	400150c0 <_svfiprintf_r+0x458>
400150f0:	e28d203c 	add	r2, sp, #60	; 0x3c
400150f4:	e1a01005 	mov	r1, r5
400150f8:	e1a00004 	mov	r0, r4
400150fc:	ebfffe75 	bl	40014ad8 <__ssprint_r>
40015100:	e3500000 	cmp	r0, #0
40015104:	1a0001e0 	bne	4001588c <_svfiprintf_r+0xc24>
40015108:	e2477010 	sub	r7, r7, #16
4001510c:	e28d1040 	add	r1, sp, #64	; 0x40
40015110:	e3570010 	cmp	r7, #16
40015114:	e28d0070 	add	r0, sp, #112	; 0x70
40015118:	e8910006 	ldm	r1, {r1, r2}
4001511c:	caffffea 	bgt	400150cc <_svfiprintf_r+0x464>
40015120:	e1a0500a 	mov	r5, sl
40015124:	e1a03001 	mov	r3, r1
40015128:	e1a0a000 	mov	sl, r0
4001512c:	e1a04007 	mov	r4, r7
40015130:	e59d702c 	ldr	r7, [sp, #44]	; 0x2c
40015134:	e2833001 	add	r3, r3, #1
40015138:	e3530007 	cmp	r3, #7
4001513c:	e0842002 	add	r2, r4, r2
40015140:	e58ab000 	str	fp, [sl]
40015144:	e58a4004 	str	r4, [sl, #4]
40015148:	e58d3040 	str	r3, [sp, #64]	; 0x40
4001514c:	e58d2044 	str	r2, [sp, #68]	; 0x44
40015150:	d28aa008 	addle	sl, sl, #8
40015154:	da000008 	ble	4001517c <_svfiprintf_r+0x514>
40015158:	e28d203c 	add	r2, sp, #60	; 0x3c
4001515c:	e59d100c 	ldr	r1, [sp, #12]
40015160:	e59d0014 	ldr	r0, [sp, #20]
40015164:	ebfffe5b 	bl	40014ad8 <__ssprint_r>
40015168:	e3500000 	cmp	r0, #0
4001516c:	1a0001c6 	bne	4001588c <_svfiprintf_r+0xc24>
40015170:	e28da070 	add	sl, sp, #112	; 0x70
40015174:	e59d2044 	ldr	r2, [sp, #68]	; 0x44
40015178:	e59d3040 	ldr	r3, [sp, #64]	; 0x40
4001517c:	e5dd1037 	ldrb	r1, [sp, #55]	; 0x37
40015180:	e3510000 	cmp	r1, #0
40015184:	0a00000a 	beq	400151b4 <_svfiprintf_r+0x54c>
40015188:	e3a00001 	mov	r0, #1
4001518c:	e0833000 	add	r3, r3, r0
40015190:	e3530007 	cmp	r3, #7
40015194:	e0822000 	add	r2, r2, r0
40015198:	e28d1037 	add	r1, sp, #55	; 0x37
4001519c:	e58a0004 	str	r0, [sl, #4]
400151a0:	e58a1000 	str	r1, [sl]
400151a4:	e58d3040 	str	r3, [sp, #64]	; 0x40
400151a8:	e58d2044 	str	r2, [sp, #68]	; 0x44
400151ac:	d28aa008 	addle	sl, sl, #8
400151b0:	ca000245 	bgt	40015acc <_svfiprintf_r+0xe64>
400151b4:	e3550000 	cmp	r5, #0
400151b8:	0a00000a 	beq	400151e8 <_svfiprintf_r+0x580>
400151bc:	e3a00002 	mov	r0, #2
400151c0:	e2833001 	add	r3, r3, #1
400151c4:	e3530007 	cmp	r3, #7
400151c8:	e0822000 	add	r2, r2, r0
400151cc:	e28d1038 	add	r1, sp, #56	; 0x38
400151d0:	e58a0004 	str	r0, [sl, #4]
400151d4:	e58a1000 	str	r1, [sl]
400151d8:	e58d3040 	str	r3, [sp, #64]	; 0x40
400151dc:	e58d2044 	str	r2, [sp, #68]	; 0x44
400151e0:	d28aa008 	addle	sl, sl, #8
400151e4:	ca00022e 	bgt	40015aa4 <_svfiprintf_r+0xe3c>
400151e8:	e59d1020 	ldr	r1, [sp, #32]
400151ec:	e3510080 	cmp	r1, #128	; 0x80
400151f0:	0a0001af 	beq	400158b4 <_svfiprintf_r+0xc4c>
400151f4:	e59d1010 	ldr	r1, [sp, #16]
400151f8:	e0477001 	sub	r7, r7, r1
400151fc:	e3570000 	cmp	r7, #0
40015200:	da00002f 	ble	400152c4 <_svfiprintf_r+0x65c>
40015204:	e3570010 	cmp	r7, #16
40015208:	da00001b 	ble	4001527c <_svfiprintf_r+0x614>
4001520c:	e3a05010 	mov	r5, #16
40015210:	e59d4014 	ldr	r4, [sp, #20]
40015214:	e59d600c 	ldr	r6, [sp, #12]
40015218:	ea000002 	b	40015228 <_svfiprintf_r+0x5c0>
4001521c:	e2477010 	sub	r7, r7, #16
40015220:	e3570010 	cmp	r7, #16
40015224:	da000014 	ble	4001527c <_svfiprintf_r+0x614>
40015228:	e2833001 	add	r3, r3, #1
4001522c:	e3530007 	cmp	r3, #7
40015230:	e2822010 	add	r2, r2, #16
40015234:	e58a9000 	str	r9, [sl]
40015238:	e58a5004 	str	r5, [sl, #4]
4001523c:	e58d3040 	str	r3, [sp, #64]	; 0x40
40015240:	e58d2044 	str	r2, [sp, #68]	; 0x44
40015244:	d28aa008 	addle	sl, sl, #8
40015248:	dafffff3 	ble	4001521c <_svfiprintf_r+0x5b4>
4001524c:	e28d203c 	add	r2, sp, #60	; 0x3c
40015250:	e1a01006 	mov	r1, r6
40015254:	e1a00004 	mov	r0, r4
40015258:	ebfffe1e 	bl	40014ad8 <__ssprint_r>
4001525c:	e3500000 	cmp	r0, #0
40015260:	1a000189 	bne	4001588c <_svfiprintf_r+0xc24>
40015264:	e2477010 	sub	r7, r7, #16
40015268:	e3570010 	cmp	r7, #16
4001526c:	e28da070 	add	sl, sp, #112	; 0x70
40015270:	e59d2044 	ldr	r2, [sp, #68]	; 0x44
40015274:	e59d3040 	ldr	r3, [sp, #64]	; 0x40
40015278:	caffffea 	bgt	40015228 <_svfiprintf_r+0x5c0>
4001527c:	e2833001 	add	r3, r3, #1
40015280:	e3530007 	cmp	r3, #7
40015284:	e0822007 	add	r2, r2, r7
40015288:	e58a9000 	str	r9, [sl]
4001528c:	e58a7004 	str	r7, [sl, #4]
40015290:	e58d3040 	str	r3, [sp, #64]	; 0x40
40015294:	e58d2044 	str	r2, [sp, #68]	; 0x44
40015298:	d28aa008 	addle	sl, sl, #8
4001529c:	da000008 	ble	400152c4 <_svfiprintf_r+0x65c>
400152a0:	e28d203c 	add	r2, sp, #60	; 0x3c
400152a4:	e59d100c 	ldr	r1, [sp, #12]
400152a8:	e59d0014 	ldr	r0, [sp, #20]
400152ac:	ebfffe09 	bl	40014ad8 <__ssprint_r>
400152b0:	e3500000 	cmp	r0, #0
400152b4:	1a000174 	bne	4001588c <_svfiprintf_r+0xc24>
400152b8:	e59d2044 	ldr	r2, [sp, #68]	; 0x44
400152bc:	e59d3040 	ldr	r3, [sp, #64]	; 0x40
400152c0:	e28da070 	add	sl, sp, #112	; 0x70
400152c4:	e2833001 	add	r3, r3, #1
400152c8:	e59d1010 	ldr	r1, [sp, #16]
400152cc:	e3530007 	cmp	r3, #7
400152d0:	e58d3040 	str	r3, [sp, #64]	; 0x40
400152d4:	e59d3024 	ldr	r3, [sp, #36]	; 0x24
400152d8:	e0812002 	add	r2, r1, r2
400152dc:	e58a3000 	str	r3, [sl]
400152e0:	e58a1004 	str	r1, [sl, #4]
400152e4:	e58d2044 	str	r2, [sp, #68]	; 0x44
400152e8:	d28aa008 	addle	sl, sl, #8
400152ec:	ca0001aa 	bgt	4001599c <_svfiprintf_r+0xd34>
400152f0:	e59d3008 	ldr	r3, [sp, #8]
400152f4:	e3130004 	tst	r3, #4
400152f8:	0a00002c 	beq	400153b0 <_svfiprintf_r+0x748>
400152fc:	e59d3018 	ldr	r3, [sp, #24]
40015300:	e59d1000 	ldr	r1, [sp]
40015304:	e0434001 	sub	r4, r3, r1
40015308:	e3540000 	cmp	r4, #0
4001530c:	da000027 	ble	400153b0 <_svfiprintf_r+0x748>
40015310:	e3540010 	cmp	r4, #16
40015314:	d59d3040 	ldrle	r3, [sp, #64]	; 0x40
40015318:	da00001c 	ble	40015390 <_svfiprintf_r+0x728>
4001531c:	e3a05010 	mov	r5, #16
40015320:	e59d3040 	ldr	r3, [sp, #64]	; 0x40
40015324:	e59d6014 	ldr	r6, [sp, #20]
40015328:	e59d700c 	ldr	r7, [sp, #12]
4001532c:	ea000002 	b	4001533c <_svfiprintf_r+0x6d4>
40015330:	e2444010 	sub	r4, r4, #16
40015334:	e3540010 	cmp	r4, #16
40015338:	da000014 	ble	40015390 <_svfiprintf_r+0x728>
4001533c:	e2833001 	add	r3, r3, #1
40015340:	e3530007 	cmp	r3, #7
40015344:	e2822010 	add	r2, r2, #16
40015348:	e58ab000 	str	fp, [sl]
4001534c:	e58a5004 	str	r5, [sl, #4]
40015350:	e58d3040 	str	r3, [sp, #64]	; 0x40
40015354:	e58d2044 	str	r2, [sp, #68]	; 0x44
40015358:	d28aa008 	addle	sl, sl, #8
4001535c:	dafffff3 	ble	40015330 <_svfiprintf_r+0x6c8>
40015360:	e28d203c 	add	r2, sp, #60	; 0x3c
40015364:	e1a01007 	mov	r1, r7
40015368:	e1a00006 	mov	r0, r6
4001536c:	ebfffdd9 	bl	40014ad8 <__ssprint_r>
40015370:	e3500000 	cmp	r0, #0
40015374:	1a000144 	bne	4001588c <_svfiprintf_r+0xc24>
40015378:	e2444010 	sub	r4, r4, #16
4001537c:	e3540010 	cmp	r4, #16
40015380:	e28da070 	add	sl, sp, #112	; 0x70
40015384:	e59d2044 	ldr	r2, [sp, #68]	; 0x44
40015388:	e59d3040 	ldr	r3, [sp, #64]	; 0x40
4001538c:	caffffea 	bgt	4001533c <_svfiprintf_r+0x6d4>
40015390:	e2833001 	add	r3, r3, #1
40015394:	e0822004 	add	r2, r2, r4
40015398:	e3530007 	cmp	r3, #7
4001539c:	e58d3040 	str	r3, [sp, #64]	; 0x40
400153a0:	e58d2044 	str	r2, [sp, #68]	; 0x44
400153a4:	e58ab000 	str	fp, [sl]
400153a8:	e58a4004 	str	r4, [sl, #4]
400153ac:	ca0001d0 	bgt	40015af4 <_svfiprintf_r+0xe8c>
400153b0:	e59d3004 	ldr	r3, [sp, #4]
400153b4:	e59d1018 	ldr	r1, [sp, #24]
400153b8:	e59d0000 	ldr	r0, [sp]
400153bc:	e1510000 	cmp	r1, r0
400153c0:	a0833001 	addge	r3, r3, r1
400153c4:	b0833000 	addlt	r3, r3, r0
400153c8:	e3520000 	cmp	r2, #0
400153cc:	e58d3004 	str	r3, [sp, #4]
400153d0:	1a00017a 	bne	400159c0 <_svfiprintf_r+0xd58>
400153d4:	e3a03000 	mov	r3, #0
400153d8:	e28da070 	add	sl, sp, #112	; 0x70
400153dc:	e58d3040 	str	r3, [sp, #64]	; 0x40
400153e0:	eafffe36 	b	40014cc0 <_svfiprintf_r+0x58>
400153e4:	e3510000 	cmp	r1, #0
400153e8:	e59f28ac 	ldr	r2, [pc, #2220]	; 40015c9c <_svfiprintf_r+0x1034>
400153ec:	15cdc037 	strbne	ip, [sp, #55]	; 0x37
400153f0:	e3160020 	tst	r6, #32
400153f4:	e58d2028 	str	r2, [sp, #40]	; 0x28
400153f8:	e58d0018 	str	r0, [sp, #24]
400153fc:	e59d201c 	ldr	r2, [sp, #28]
40015400:	0afffee2 	beq	40014f90 <_svfiprintf_r+0x328>
40015404:	e2822007 	add	r2, r2, #7
40015408:	e3c22007 	bic	r2, r2, #7
4001540c:	e2821008 	add	r1, r2, #8
40015410:	e3160001 	tst	r6, #1
40015414:	e58d101c 	str	r1, [sp, #28]
40015418:	e8920030 	ldm	r2, {r4, r5}
4001541c:	1afffee8 	bne	40014fc4 <_svfiprintf_r+0x35c>
40015420:	e3a02002 	mov	r2, #2
40015424:	ea0000c0 	b	4001572c <_svfiprintf_r+0xac4>
40015428:	e3866010 	orr	r6, r6, #16
4001542c:	e3160020 	tst	r6, #32
40015430:	e58d0018 	str	r0, [sp, #24]
40015434:	e59d301c 	ldr	r3, [sp, #28]
40015438:	0afffeb4 	beq	40014f10 <_svfiprintf_r+0x2a8>
4001543c:	e2833007 	add	r3, r3, #7
40015440:	e3c33007 	bic	r3, r3, #7
40015444:	e2832008 	add	r2, r3, #8
40015448:	e58d201c 	str	r2, [sp, #28]
4001544c:	e8930030 	ldm	r3, {r4, r5}
40015450:	e3a02001 	mov	r2, #1
40015454:	ea0000b4 	b	4001572c <_svfiprintf_r+0xac4>
40015458:	e3866010 	orr	r6, r6, #16
4001545c:	e3160020 	tst	r6, #32
40015460:	e58d0018 	str	r0, [sp, #24]
40015464:	e59d301c 	ldr	r3, [sp, #28]
40015468:	0afffeb6 	beq	40014f48 <_svfiprintf_r+0x2e0>
4001546c:	e2833007 	add	r3, r3, #7
40015470:	e3c33007 	bic	r3, r3, #7
40015474:	e2832008 	add	r2, r3, #8
40015478:	e58d201c 	str	r2, [sp, #28]
4001547c:	e8930030 	ldm	r3, {r4, r5}
40015480:	e3a02000 	mov	r2, #0
40015484:	ea0000a8 	b	4001572c <_svfiprintf_r+0xac4>
40015488:	e3510000 	cmp	r1, #0
4001548c:	e3866010 	orr	r6, r6, #16
40015490:	15cdc037 	strbne	ip, [sp, #55]	; 0x37
40015494:	e3160020 	tst	r6, #32
40015498:	e58d0018 	str	r0, [sp, #24]
4001549c:	1a000065 	bne	40015638 <_svfiprintf_r+0x9d0>
400154a0:	e3160010 	tst	r6, #16
400154a4:	1a0001cc 	bne	40015bdc <_svfiprintf_r+0xf74>
400154a8:	e3160040 	tst	r6, #64	; 0x40
400154ac:	1a00019f 	bne	40015b30 <_svfiprintf_r+0xec8>
400154b0:	e59d101c 	ldr	r1, [sp, #28]
400154b4:	e5914000 	ldr	r4, [r1]
400154b8:	e1a05fc4 	asr	r5, r4, #31
400154bc:	e1a02004 	mov	r2, r4
400154c0:	e1a03005 	mov	r3, r5
400154c4:	e2811004 	add	r1, r1, #4
400154c8:	e58d101c 	str	r1, [sp, #28]
400154cc:	e3520000 	cmp	r2, #0
400154d0:	e2d33000 	sbcs	r3, r3, #0
400154d4:	ba000062 	blt	40015664 <_svfiprintf_r+0x9fc>
400154d8:	e5dd3037 	ldrb	r3, [sp, #55]	; 0x37
400154dc:	e3770001 	cmn	r7, #1
400154e0:	e58d3020 	str	r3, [sp, #32]
400154e4:	e3a02001 	mov	r2, #1
400154e8:	1a000094 	bne	40015740 <_svfiprintf_r+0xad8>
400154ec:	e3520001 	cmp	r2, #1
400154f0:	0a000141 	beq	400159fc <_svfiprintf_r+0xd94>
400154f4:	e3520002 	cmp	r2, #2
400154f8:	128d1070 	addne	r1, sp, #112	; 0x70
400154fc:	1a0000c3 	bne	40015810 <_svfiprintf_r+0xba8>
40015500:	e28d3070 	add	r3, sp, #112	; 0x70
40015504:	e1a02003 	mov	r2, r3
40015508:	e59dc028 	ldr	ip, [sp, #40]	; 0x28
4001550c:	e1a03224 	lsr	r3, r4, #4
40015510:	e1833e05 	orr	r3, r3, r5, lsl #28
40015514:	e1a00225 	lsr	r0, r5, #4
40015518:	e204100f 	and	r1, r4, #15
4001551c:	e1a05000 	mov	r5, r0
40015520:	e1a04003 	mov	r4, r3
40015524:	e7dc3001 	ldrb	r3, [ip, r1]
40015528:	e1941005 	orrs	r1, r4, r5
4001552c:	e5623001 	strb	r3, [r2, #-1]!
40015530:	1afffff5 	bne	4001550c <_svfiprintf_r+0x8a4>
40015534:	e1a03002 	mov	r3, r2
40015538:	e58d2024 	str	r2, [sp, #36]	; 0x24
4001553c:	e28d2070 	add	r2, sp, #112	; 0x70
40015540:	e0423003 	sub	r3, r2, r3
40015544:	e58d6008 	str	r6, [sp, #8]
40015548:	e58d3010 	str	r3, [sp, #16]
4001554c:	ea00008b 	b	40015780 <_svfiprintf_r+0xb18>
40015550:	e3a00000 	mov	r0, #0
40015554:	e2432030 	sub	r2, r3, #48	; 0x30
40015558:	e4d83001 	ldrb	r3, [r8], #1
4001555c:	e0800100 	add	r0, r0, r0, lsl #2
40015560:	e0820080 	add	r0, r2, r0, lsl #1
40015564:	e2432030 	sub	r2, r3, #48	; 0x30
40015568:	e3520009 	cmp	r2, #9
4001556c:	9afffff9 	bls	40015558 <_svfiprintf_r+0x8f0>
40015570:	eafffdfb 	b	40014d64 <_svfiprintf_r+0xfc>
40015574:	e3866080 	orr	r6, r6, #128	; 0x80
40015578:	e5d83000 	ldrb	r3, [r8]
4001557c:	eafffdf7 	b	40014d60 <_svfiprintf_r+0xf8>
40015580:	e5d83000 	ldrb	r3, [r8]
40015584:	e353002a 	cmp	r3, #42	; 0x2a
40015588:	e2887001 	add	r7, r8, #1
4001558c:	0a0001b5 	beq	40015c68 <_svfiprintf_r+0x1000>
40015590:	e2432030 	sub	r2, r3, #48	; 0x30
40015594:	e3520009 	cmp	r2, #9
40015598:	e1a08007 	mov	r8, r7
4001559c:	e3a07000 	mov	r7, #0
400155a0:	8afffdef 	bhi	40014d64 <_svfiprintf_r+0xfc>
400155a4:	e4d83001 	ldrb	r3, [r8], #1
400155a8:	e0877107 	add	r7, r7, r7, lsl #2
400155ac:	e0827087 	add	r7, r2, r7, lsl #1
400155b0:	e2432030 	sub	r2, r3, #48	; 0x30
400155b4:	e3520009 	cmp	r2, #9
400155b8:	9afffff9 	bls	400155a4 <_svfiprintf_r+0x93c>
400155bc:	eafffde8 	b	40014d64 <_svfiprintf_r+0xfc>
400155c0:	e3510000 	cmp	r1, #0
400155c4:	15cdc037 	strbne	ip, [sp, #55]	; 0x37
400155c8:	e3160020 	tst	r6, #32
400155cc:	1a000165 	bne	40015b68 <_svfiprintf_r+0xf00>
400155d0:	e3160010 	tst	r6, #16
400155d4:	1a000174 	bne	40015bac <_svfiprintf_r+0xf44>
400155d8:	e3160040 	tst	r6, #64	; 0x40
400155dc:	0a000172 	beq	40015bac <_svfiprintf_r+0xf44>
400155e0:	e59d201c 	ldr	r2, [sp, #28]
400155e4:	e5923000 	ldr	r3, [r2]
400155e8:	e2822004 	add	r2, r2, #4
400155ec:	e58d201c 	str	r2, [sp, #28]
400155f0:	e1dd20b4 	ldrh	r2, [sp, #4]
400155f4:	e1c320b0 	strh	r2, [r3]
400155f8:	eafffdb0 	b	40014cc0 <_svfiprintf_r+0x58>
400155fc:	e5d83000 	ldrb	r3, [r8]
40015600:	e353006c 	cmp	r3, #108	; 0x6c
40015604:	05d83001 	ldrbeq	r3, [r8, #1]
40015608:	03866020 	orreq	r6, r6, #32
4001560c:	02888001 	addeq	r8, r8, #1
40015610:	13866010 	orrne	r6, r6, #16
40015614:	eafffdd1 	b	40014d60 <_svfiprintf_r+0xf8>
40015618:	e3866040 	orr	r6, r6, #64	; 0x40
4001561c:	e5d83000 	ldrb	r3, [r8]
40015620:	eafffdce 	b	40014d60 <_svfiprintf_r+0xf8>
40015624:	e3510000 	cmp	r1, #0
40015628:	15cdc037 	strbne	ip, [sp, #55]	; 0x37
4001562c:	e3160020 	tst	r6, #32
40015630:	e58d0018 	str	r0, [sp, #24]
40015634:	0affff99 	beq	400154a0 <_svfiprintf_r+0x838>
40015638:	e59d301c 	ldr	r3, [sp, #28]
4001563c:	e2833007 	add	r3, r3, #7
40015640:	e3c31007 	bic	r1, r3, #7
40015644:	e891000c 	ldm	r1, {r2, r3}
40015648:	e3520000 	cmp	r2, #0
4001564c:	e2811008 	add	r1, r1, #8
40015650:	e1a05003 	mov	r5, r3
40015654:	e2d33000 	sbcs	r3, r3, #0
40015658:	e58d101c 	str	r1, [sp, #28]
4001565c:	e1a04002 	mov	r4, r2
40015660:	aaffff9c 	bge	400154d8 <_svfiprintf_r+0x870>
40015664:	e3a0302d 	mov	r3, #45	; 0x2d
40015668:	e2744000 	rsbs	r4, r4, #0
4001566c:	e2e55000 	rsc	r5, r5, #0
40015670:	e5cd3037 	strb	r3, [sp, #55]	; 0x37
40015674:	e58d3020 	str	r3, [sp, #32]
40015678:	e3a02001 	mov	r2, #1
4001567c:	ea00002d 	b	40015738 <_svfiprintf_r+0xad0>
40015680:	e59d301c 	ldr	r3, [sp, #28]
40015684:	e5932000 	ldr	r2, [r3]
40015688:	e58d2024 	str	r2, [sp, #36]	; 0x24
4001568c:	e3520000 	cmp	r2, #0
40015690:	e3a02000 	mov	r2, #0
40015694:	e58d0018 	str	r0, [sp, #24]
40015698:	e5cd2037 	strb	r2, [sp, #55]	; 0x37
4001569c:	e2834004 	add	r4, r3, #4
400156a0:	0a000160 	beq	40015c28 <_svfiprintf_r+0xfc0>
400156a4:	e3770001 	cmn	r7, #1
400156a8:	0a000136 	beq	40015b88 <_svfiprintf_r+0xf20>
400156ac:	e59d5024 	ldr	r5, [sp, #36]	; 0x24
400156b0:	e1a02007 	mov	r2, r7
400156b4:	e3a01000 	mov	r1, #0
400156b8:	e1a00005 	mov	r0, r5
400156bc:	ebffd97c 	bl	4000bcb4 <memchr>
400156c0:	e3500000 	cmp	r0, #0
400156c4:	0a000160 	beq	40015c4c <_svfiprintf_r+0xfe4>
400156c8:	e0403005 	sub	r3, r0, r5
400156cc:	e58d3010 	str	r3, [sp, #16]
400156d0:	e5dd3037 	ldrb	r3, [sp, #55]	; 0x37
400156d4:	e58d401c 	str	r4, [sp, #28]
400156d8:	e58d6008 	str	r6, [sp, #8]
400156dc:	e58d3020 	str	r3, [sp, #32]
400156e0:	e3a07000 	mov	r7, #0
400156e4:	ea000025 	b	40015780 <_svfiprintf_r+0xb18>
400156e8:	e3866020 	orr	r6, r6, #32
400156ec:	e5d83000 	ldrb	r3, [r8]
400156f0:	eafffd9a 	b	40014d60 <_svfiprintf_r+0xf8>
400156f4:	e3a02030 	mov	r2, #48	; 0x30
400156f8:	e3a03078 	mov	r3, #120	; 0x78
400156fc:	e5cd2038 	strb	r2, [sp, #56]	; 0x38
40015700:	e3a05000 	mov	r5, #0
40015704:	e3a02002 	mov	r2, #2
40015708:	e59d101c 	ldr	r1, [sp, #28]
4001570c:	e5cd3039 	strb	r3, [sp, #57]	; 0x39
40015710:	e2813004 	add	r3, r1, #4
40015714:	e58d301c 	str	r3, [sp, #28]
40015718:	e59f3578 	ldr	r3, [pc, #1400]	; 40015c98 <_svfiprintf_r+0x1030>
4001571c:	e58d0018 	str	r0, [sp, #24]
40015720:	e5914000 	ldr	r4, [r1]
40015724:	e58d3028 	str	r3, [sp, #40]	; 0x28
40015728:	e3866002 	orr	r6, r6, #2
4001572c:	e3a03000 	mov	r3, #0
40015730:	e58d3020 	str	r3, [sp, #32]
40015734:	e5cd3037 	strb	r3, [sp, #55]	; 0x37
40015738:	e3770001 	cmn	r7, #1
4001573c:	0affff6a 	beq	400154ec <_svfiprintf_r+0x884>
40015740:	e1843005 	orr	r3, r4, r5
40015744:	e3530000 	cmp	r3, #0
40015748:	03570000 	cmpeq	r7, #0
4001574c:	e3c63080 	bic	r3, r6, #128	; 0x80
40015750:	e58d3008 	str	r3, [sp, #8]
40015754:	1a0000a5 	bne	400159f0 <_svfiprintf_r+0xd88>
40015758:	e3520000 	cmp	r2, #0
4001575c:	1a00009e 	bne	400159dc <_svfiprintf_r+0xd74>
40015760:	e2163001 	ands	r3, r6, #1
40015764:	e58d3010 	str	r3, [sp, #16]
40015768:	028d3070 	addeq	r3, sp, #112	; 0x70
4001576c:	058d3024 	streq	r3, [sp, #36]	; 0x24
40015770:	13a03030 	movne	r3, #48	; 0x30
40015774:	128d20b0 	addne	r2, sp, #176	; 0xb0
40015778:	15623041 	strbne	r3, [r2, #-65]!	; 0xffffffbf
4001577c:	158d2024 	strne	r2, [sp, #36]	; 0x24
40015780:	e59d3010 	ldr	r3, [sp, #16]
40015784:	e1570003 	cmp	r7, r3
40015788:	a1a03007 	movge	r3, r7
4001578c:	e59d2020 	ldr	r2, [sp, #32]
40015790:	e3520000 	cmp	r2, #0
40015794:	e58d3000 	str	r3, [sp]
40015798:	12833001 	addne	r3, r3, #1
4001579c:	158d3000 	strne	r3, [sp]
400157a0:	eafffe2b 	b	40015054 <_svfiprintf_r+0x3ec>
400157a4:	e3510000 	cmp	r1, #0
400157a8:	15cdc037 	strbne	ip, [sp, #55]	; 0x37
400157ac:	e3530000 	cmp	r3, #0
400157b0:	e58d0018 	str	r0, [sp, #24]
400157b4:	0a00002e 	beq	40015874 <_svfiprintf_r+0xc0c>
400157b8:	e5cd3048 	strb	r3, [sp, #72]	; 0x48
400157bc:	e3a03000 	mov	r3, #0
400157c0:	e3a02001 	mov	r2, #1
400157c4:	e5cd3037 	strb	r3, [sp, #55]	; 0x37
400157c8:	e28d3048 	add	r3, sp, #72	; 0x48
400157cc:	e58d2000 	str	r2, [sp]
400157d0:	e58d2010 	str	r2, [sp, #16]
400157d4:	e58d3024 	str	r3, [sp, #36]	; 0x24
400157d8:	eafffe1b 	b	4001504c <_svfiprintf_r+0x3e4>
400157dc:	e5934000 	ldr	r4, [r3]
400157e0:	e2833004 	add	r3, r3, #4
400157e4:	e3a02001 	mov	r2, #1
400157e8:	e58d301c 	str	r3, [sp, #28]
400157ec:	e3a05000 	mov	r5, #0
400157f0:	eaffffcd 	b	4001572c <_svfiprintf_r+0xac4>
400157f4:	e5934000 	ldr	r4, [r3]
400157f8:	e2833004 	add	r3, r3, #4
400157fc:	e3a02000 	mov	r2, #0
40015800:	e58d301c 	str	r3, [sp, #28]
40015804:	e3a05000 	mov	r5, #0
40015808:	eaffffc7 	b	4001572c <_svfiprintf_r+0xac4>
4001580c:	e1a01002 	mov	r1, r2
40015810:	e1a021a4 	lsr	r2, r4, #3
40015814:	e1822e85 	orr	r2, r2, r5, lsl #29
40015818:	e1a001a5 	lsr	r0, r5, #3
4001581c:	e2043007 	and	r3, r4, #7
40015820:	e1a05000 	mov	r5, r0
40015824:	e1a04002 	mov	r4, r2
40015828:	e2833030 	add	r3, r3, #48	; 0x30
4001582c:	e1942005 	orrs	r2, r4, r5
40015830:	e5413001 	strb	r3, [r1, #-1]
40015834:	e2412001 	sub	r2, r1, #1
40015838:	1afffff3 	bne	4001580c <_svfiprintf_r+0xba4>
4001583c:	e3530030 	cmp	r3, #48	; 0x30
40015840:	03a03000 	moveq	r3, #0
40015844:	12063001 	andne	r3, r6, #1
40015848:	e3530000 	cmp	r3, #0
4001584c:	0a0000bf 	beq	40015b50 <_svfiprintf_r+0xee8>
40015850:	e3a03030 	mov	r3, #48	; 0x30
40015854:	e2411002 	sub	r1, r1, #2
40015858:	e28d0070 	add	r0, sp, #112	; 0x70
4001585c:	e58d1024 	str	r1, [sp, #36]	; 0x24
40015860:	e0401001 	sub	r1, r0, r1
40015864:	e58d6008 	str	r6, [sp, #8]
40015868:	e58d1010 	str	r1, [sp, #16]
4001586c:	e5423001 	strb	r3, [r2, #-1]
40015870:	eaffffc2 	b	40015780 <_svfiprintf_r+0xb18>
40015874:	e59d3044 	ldr	r3, [sp, #68]	; 0x44
40015878:	e3530000 	cmp	r3, #0
4001587c:	159d0014 	ldrne	r0, [sp, #20]
40015880:	128d203c 	addne	r2, sp, #60	; 0x3c
40015884:	159d100c 	ldrne	r1, [sp, #12]
40015888:	1bfffc92 	blne	40014ad8 <__ssprint_r>
4001588c:	e59d300c 	ldr	r3, [sp, #12]
40015890:	e1d330bc 	ldrh	r3, [r3, #12]
40015894:	e3130040 	tst	r3, #64	; 0x40
40015898:	e59d3004 	ldr	r3, [sp, #4]
4001589c:	13e03000 	mvnne	r3, #0
400158a0:	e58d3004 	str	r3, [sp, #4]
400158a4:	e59d0004 	ldr	r0, [sp, #4]
400158a8:	e28dd0b4 	add	sp, sp, #180	; 0xb4
400158ac:	e8bd4ff0 	pop	{r4, r5, r6, r7, r8, r9, sl, fp, lr}
400158b0:	e12fff1e 	bx	lr
400158b4:	e59d1018 	ldr	r1, [sp, #24]
400158b8:	e59d0000 	ldr	r0, [sp]
400158bc:	e0414000 	sub	r4, r1, r0
400158c0:	e3540000 	cmp	r4, #0
400158c4:	dafffe4a 	ble	400151f4 <_svfiprintf_r+0x58c>
400158c8:	e3540010 	cmp	r4, #16
400158cc:	da00001f 	ble	40015950 <_svfiprintf_r+0xce8>
400158d0:	e1a0100a 	mov	r1, sl
400158d4:	e3a05010 	mov	r5, #16
400158d8:	e1a0a004 	mov	sl, r4
400158dc:	e59d6014 	ldr	r6, [sp, #20]
400158e0:	e59d400c 	ldr	r4, [sp, #12]
400158e4:	ea000002 	b	400158f4 <_svfiprintf_r+0xc8c>
400158e8:	e24aa010 	sub	sl, sl, #16
400158ec:	e35a0010 	cmp	sl, #16
400158f0:	da000014 	ble	40015948 <_svfiprintf_r+0xce0>
400158f4:	e2833001 	add	r3, r3, #1
400158f8:	e3530007 	cmp	r3, #7
400158fc:	e2822010 	add	r2, r2, #16
40015900:	e5819000 	str	r9, [r1]
40015904:	e5815004 	str	r5, [r1, #4]
40015908:	e58d3040 	str	r3, [sp, #64]	; 0x40
4001590c:	e58d2044 	str	r2, [sp, #68]	; 0x44
40015910:	d2811008 	addle	r1, r1, #8
40015914:	dafffff3 	ble	400158e8 <_svfiprintf_r+0xc80>
40015918:	e28d203c 	add	r2, sp, #60	; 0x3c
4001591c:	e1a01004 	mov	r1, r4
40015920:	e1a00006 	mov	r0, r6
40015924:	ebfffc6b 	bl	40014ad8 <__ssprint_r>
40015928:	e3500000 	cmp	r0, #0
4001592c:	1affffd6 	bne	4001588c <_svfiprintf_r+0xc24>
40015930:	e24aa010 	sub	sl, sl, #16
40015934:	e35a0010 	cmp	sl, #16
40015938:	e28d1070 	add	r1, sp, #112	; 0x70
4001593c:	e59d2044 	ldr	r2, [sp, #68]	; 0x44
40015940:	e59d3040 	ldr	r3, [sp, #64]	; 0x40
40015944:	caffffea 	bgt	400158f4 <_svfiprintf_r+0xc8c>
40015948:	e1a0400a 	mov	r4, sl
4001594c:	e1a0a001 	mov	sl, r1
40015950:	e2833001 	add	r3, r3, #1
40015954:	e3530007 	cmp	r3, #7
40015958:	e0822004 	add	r2, r2, r4
4001595c:	e58a9000 	str	r9, [sl]
40015960:	e58a4004 	str	r4, [sl, #4]
40015964:	e58d3040 	str	r3, [sp, #64]	; 0x40
40015968:	e58d2044 	str	r2, [sp, #68]	; 0x44
4001596c:	d28aa008 	addle	sl, sl, #8
40015970:	dafffe1f 	ble	400151f4 <_svfiprintf_r+0x58c>
40015974:	e28d203c 	add	r2, sp, #60	; 0x3c
40015978:	e59d100c 	ldr	r1, [sp, #12]
4001597c:	e59d0014 	ldr	r0, [sp, #20]
40015980:	ebfffc54 	bl	40014ad8 <__ssprint_r>
40015984:	e3500000 	cmp	r0, #0
40015988:	1affffbf 	bne	4001588c <_svfiprintf_r+0xc24>
4001598c:	e28da070 	add	sl, sp, #112	; 0x70
40015990:	e59d2044 	ldr	r2, [sp, #68]	; 0x44
40015994:	e59d3040 	ldr	r3, [sp, #64]	; 0x40
40015998:	eafffe15 	b	400151f4 <_svfiprintf_r+0x58c>
4001599c:	e28d203c 	add	r2, sp, #60	; 0x3c
400159a0:	e59d100c 	ldr	r1, [sp, #12]
400159a4:	e59d0014 	ldr	r0, [sp, #20]
400159a8:	ebfffc4a 	bl	40014ad8 <__ssprint_r>
400159ac:	e3500000 	cmp	r0, #0
400159b0:	1affffb5 	bne	4001588c <_svfiprintf_r+0xc24>
400159b4:	e28da070 	add	sl, sp, #112	; 0x70
400159b8:	e59d2044 	ldr	r2, [sp, #68]	; 0x44
400159bc:	eafffe4b 	b	400152f0 <_svfiprintf_r+0x688>
400159c0:	e28d203c 	add	r2, sp, #60	; 0x3c
400159c4:	e59d100c 	ldr	r1, [sp, #12]
400159c8:	e59d0014 	ldr	r0, [sp, #20]
400159cc:	ebfffc41 	bl	40014ad8 <__ssprint_r>
400159d0:	e3500000 	cmp	r0, #0
400159d4:	0afffe7e 	beq	400153d4 <_svfiprintf_r+0x76c>
400159d8:	eaffffab 	b	4001588c <_svfiprintf_r+0xc24>
400159dc:	e3a03000 	mov	r3, #0
400159e0:	e58d3010 	str	r3, [sp, #16]
400159e4:	e28d3070 	add	r3, sp, #112	; 0x70
400159e8:	e58d3024 	str	r3, [sp, #36]	; 0x24
400159ec:	eaffff63 	b	40015780 <_svfiprintf_r+0xb18>
400159f0:	e3520001 	cmp	r2, #1
400159f4:	e1a06003 	mov	r6, r3
400159f8:	1afffebd 	bne	400154f4 <_svfiprintf_r+0x88c>
400159fc:	e3550000 	cmp	r5, #0
40015a00:	03540009 	cmpeq	r4, #9
40015a04:	9a000042 	bls	40015b14 <_svfiprintf_r+0xeac>
40015a08:	e28d3070 	add	r3, sp, #112	; 0x70
40015a0c:	e58da000 	str	sl, [sp]
40015a10:	e1a0a007 	mov	sl, r7
40015a14:	e1a07006 	mov	r7, r6
40015a18:	e1a06003 	mov	r6, r3
40015a1c:	e1a00004 	mov	r0, r4
40015a20:	e1a01005 	mov	r1, r5
40015a24:	e3a0200a 	mov	r2, #10
40015a28:	e3a03000 	mov	r3, #0
40015a2c:	ebffb2e0 	bl	400025b4 <__aeabi_uldivmod>
40015a30:	e2822030 	add	r2, r2, #48	; 0x30
40015a34:	e5662001 	strb	r2, [r6, #-1]!
40015a38:	e1a00004 	mov	r0, r4
40015a3c:	e1a01005 	mov	r1, r5
40015a40:	e3a03000 	mov	r3, #0
40015a44:	e3a0200a 	mov	r2, #10
40015a48:	ebffb2d9 	bl	400025b4 <__aeabi_uldivmod>
40015a4c:	e1a04000 	mov	r4, r0
40015a50:	e1a05001 	mov	r5, r1
40015a54:	e1943005 	orrs	r3, r4, r5
40015a58:	1affffef 	bne	40015a1c <_svfiprintf_r+0xdb4>
40015a5c:	e1a03006 	mov	r3, r6
40015a60:	e58d6024 	str	r6, [sp, #36]	; 0x24
40015a64:	e1a06007 	mov	r6, r7
40015a68:	e28d2070 	add	r2, sp, #112	; 0x70
40015a6c:	e0423003 	sub	r3, r2, r3
40015a70:	e1a0700a 	mov	r7, sl
40015a74:	e58d6008 	str	r6, [sp, #8]
40015a78:	e59da000 	ldr	sl, [sp]
40015a7c:	e58d3010 	str	r3, [sp, #16]
40015a80:	eaffff3e 	b	40015780 <_svfiprintf_r+0xb18>
40015a84:	e28d203c 	add	r2, sp, #60	; 0x3c
40015a88:	e59d100c 	ldr	r1, [sp, #12]
40015a8c:	e59d0014 	ldr	r0, [sp, #20]
40015a90:	ebfffc10 	bl	40014ad8 <__ssprint_r>
40015a94:	e3500000 	cmp	r0, #0
40015a98:	1affff7b 	bne	4001588c <_svfiprintf_r+0xc24>
40015a9c:	e28da070 	add	sl, sp, #112	; 0x70
40015aa0:	eafffc9c 	b	40014d18 <_svfiprintf_r+0xb0>
40015aa4:	e28d203c 	add	r2, sp, #60	; 0x3c
40015aa8:	e59d100c 	ldr	r1, [sp, #12]
40015aac:	e59d0014 	ldr	r0, [sp, #20]
40015ab0:	ebfffc08 	bl	40014ad8 <__ssprint_r>
40015ab4:	e3500000 	cmp	r0, #0
40015ab8:	1affff73 	bne	4001588c <_svfiprintf_r+0xc24>
40015abc:	e28da070 	add	sl, sp, #112	; 0x70
40015ac0:	e59d2044 	ldr	r2, [sp, #68]	; 0x44
40015ac4:	e59d3040 	ldr	r3, [sp, #64]	; 0x40
40015ac8:	eafffdc6 	b	400151e8 <_svfiprintf_r+0x580>
40015acc:	e28d203c 	add	r2, sp, #60	; 0x3c
40015ad0:	e59d100c 	ldr	r1, [sp, #12]
40015ad4:	e59d0014 	ldr	r0, [sp, #20]
40015ad8:	ebfffbfe 	bl	40014ad8 <__ssprint_r>
40015adc:	e3500000 	cmp	r0, #0
40015ae0:	1affff69 	bne	4001588c <_svfiprintf_r+0xc24>
40015ae4:	e28da070 	add	sl, sp, #112	; 0x70
40015ae8:	e59d2044 	ldr	r2, [sp, #68]	; 0x44
40015aec:	e59d3040 	ldr	r3, [sp, #64]	; 0x40
40015af0:	eafffdaf 	b	400151b4 <_svfiprintf_r+0x54c>
40015af4:	e28d203c 	add	r2, sp, #60	; 0x3c
40015af8:	e59d100c 	ldr	r1, [sp, #12]
40015afc:	e59d0014 	ldr	r0, [sp, #20]
40015b00:	ebfffbf4 	bl	40014ad8 <__ssprint_r>
40015b04:	e3500000 	cmp	r0, #0
40015b08:	1affff5f 	bne	4001588c <_svfiprintf_r+0xc24>
40015b0c:	e59d2044 	ldr	r2, [sp, #68]	; 0x44
40015b10:	eafffe26 	b	400153b0 <_svfiprintf_r+0x748>
40015b14:	e28d30b0 	add	r3, sp, #176	; 0xb0
40015b18:	e2844030 	add	r4, r4, #48	; 0x30
40015b1c:	e5634041 	strb	r4, [r3, #-65]!	; 0xffffffbf
40015b20:	e58d6008 	str	r6, [sp, #8]
40015b24:	e58d2010 	str	r2, [sp, #16]
40015b28:	e58d3024 	str	r3, [sp, #36]	; 0x24
40015b2c:	eaffff13 	b	40015780 <_svfiprintf_r+0xb18>
40015b30:	e59d301c 	ldr	r3, [sp, #28]
40015b34:	e1d340f0 	ldrsh	r4, [r3]
40015b38:	e2833004 	add	r3, r3, #4
40015b3c:	e1a05fc4 	asr	r5, r4, #31
40015b40:	e58d301c 	str	r3, [sp, #28]
40015b44:	e1a02004 	mov	r2, r4
40015b48:	e1a03005 	mov	r3, r5
40015b4c:	eafffe5e 	b	400154cc <_svfiprintf_r+0x864>
40015b50:	e28d3070 	add	r3, sp, #112	; 0x70
40015b54:	e0433002 	sub	r3, r3, r2
40015b58:	e58d6008 	str	r6, [sp, #8]
40015b5c:	e58d3010 	str	r3, [sp, #16]
40015b60:	e58d2024 	str	r2, [sp, #36]	; 0x24
40015b64:	eaffff05 	b	40015780 <_svfiprintf_r+0xb18>
40015b68:	e59d301c 	ldr	r3, [sp, #28]
40015b6c:	e59d2004 	ldr	r2, [sp, #4]
40015b70:	e5931000 	ldr	r1, [r3]
40015b74:	e2833004 	add	r3, r3, #4
40015b78:	e58d301c 	str	r3, [sp, #28]
40015b7c:	e1a03fc2 	asr	r3, r2, #31
40015b80:	e881000c 	stm	r1, {r2, r3}
40015b84:	eafffc4d 	b	40014cc0 <_svfiprintf_r+0x58>
40015b88:	e59d0024 	ldr	r0, [sp, #36]	; 0x24
40015b8c:	e58d401c 	str	r4, [sp, #28]
40015b90:	e58d6008 	str	r6, [sp, #8]
40015b94:	ebffdcae 	bl	4000ce54 <strlen>
40015b98:	e5dd3037 	ldrb	r3, [sp, #55]	; 0x37
40015b9c:	e58d0010 	str	r0, [sp, #16]
40015ba0:	e58d3020 	str	r3, [sp, #32]
40015ba4:	e3a07000 	mov	r7, #0
40015ba8:	eafffef4 	b	40015780 <_svfiprintf_r+0xb18>
40015bac:	e59d201c 	ldr	r2, [sp, #28]
40015bb0:	e5923000 	ldr	r3, [r2]
40015bb4:	e2822004 	add	r2, r2, #4
40015bb8:	e58d201c 	str	r2, [sp, #28]
40015bbc:	e59d2004 	ldr	r2, [sp, #4]
40015bc0:	e5832000 	str	r2, [r3]
40015bc4:	eafffc3d 	b	40014cc0 <_svfiprintf_r+0x58>
40015bc8:	e5924000 	ldr	r4, [r2]
40015bcc:	e2822004 	add	r2, r2, #4
40015bd0:	e58d201c 	str	r2, [sp, #28]
40015bd4:	e3a05000 	mov	r5, #0
40015bd8:	eafffcf7 	b	40014fbc <_svfiprintf_r+0x354>
40015bdc:	e59d301c 	ldr	r3, [sp, #28]
40015be0:	e5934000 	ldr	r4, [r3]
40015be4:	eaffffd3 	b	40015b38 <_svfiprintf_r+0xed0>
40015be8:	e3a01040 	mov	r1, #64	; 0x40
40015bec:	e58d2000 	str	r2, [sp]
40015bf0:	ebffd64c 	bl	4000b528 <_malloc_r>
40015bf4:	e59d300c 	ldr	r3, [sp, #12]
40015bf8:	e3500000 	cmp	r0, #0
40015bfc:	e5830000 	str	r0, [r3]
40015c00:	e5830010 	str	r0, [r3, #16]
40015c04:	e59d2000 	ldr	r2, [sp]
40015c08:	0a000025 	beq	40015ca4 <_svfiprintf_r+0x103c>
40015c0c:	e3a03040 	mov	r3, #64	; 0x40
40015c10:	e59d100c 	ldr	r1, [sp, #12]
40015c14:	e5813014 	str	r3, [r1, #20]
40015c18:	eafffc1e 	b	40014c98 <_svfiprintf_r+0x30>
40015c1c:	e59d2044 	ldr	r2, [sp, #68]	; 0x44
40015c20:	e59d3040 	ldr	r3, [sp, #64]	; 0x40
40015c24:	eafffd42 	b	40015134 <_svfiprintf_r+0x4cc>
40015c28:	e3570006 	cmp	r7, #6
40015c2c:	31a03007 	movcc	r3, r7
40015c30:	23a03006 	movcs	r3, #6
40015c34:	e58d3010 	str	r3, [sp, #16]
40015c38:	e58d3000 	str	r3, [sp]
40015c3c:	e59f305c 	ldr	r3, [pc, #92]	; 40015ca0 <_svfiprintf_r+0x1038>
40015c40:	e58d401c 	str	r4, [sp, #28]
40015c44:	e58d3024 	str	r3, [sp, #36]	; 0x24
40015c48:	eafffcff 	b	4001504c <_svfiprintf_r+0x3e4>
40015c4c:	e5dd3037 	ldrb	r3, [sp, #55]	; 0x37
40015c50:	e58d7010 	str	r7, [sp, #16]
40015c54:	e58d401c 	str	r4, [sp, #28]
40015c58:	e58d6008 	str	r6, [sp, #8]
40015c5c:	e3a07000 	mov	r7, #0
40015c60:	e58d3020 	str	r3, [sp, #32]
40015c64:	eafffec5 	b	40015780 <_svfiprintf_r+0xb18>
40015c68:	e59d201c 	ldr	r2, [sp, #28]
40015c6c:	e58d7000 	str	r7, [sp]
40015c70:	e5927000 	ldr	r7, [r2]
40015c74:	e2822004 	add	r2, r2, #4
40015c78:	e3770001 	cmn	r7, #1
40015c7c:	e5d83001 	ldrb	r3, [r8, #1]
40015c80:	b3e07000 	mvnlt	r7, #0
40015c84:	e59d8000 	ldr	r8, [sp]
40015c88:	e58d201c 	str	r2, [sp, #28]
40015c8c:	eafffc33 	b	40014d60 <_svfiprintf_r+0xf8>
40015c90:	400199cc 	.word	0x400199cc
40015c94:	400199dc 	.word	0x400199dc
40015c98:	400199b0 	.word	0x400199b0
40015c9c:	4001999c 	.word	0x4001999c
40015ca0:	400199c4 	.word	0x400199c4
40015ca4:	e3e02000 	mvn	r2, #0
40015ca8:	e3a0300c 	mov	r3, #12
40015cac:	e58d2004 	str	r2, [sp, #4]
40015cb0:	e59d2014 	ldr	r2, [sp, #20]
40015cb4:	e5823000 	str	r3, [r2]
40015cb8:	eafffef9 	b	400158a4 <_svfiprintf_r+0xc3c>

Disassembly of section .text.__sprint_r.part.0:

40015cbc <__sprint_r.part.0>:
40015cbc:	e92d4ff8 	push	{r3, r4, r5, r6, r7, r8, r9, sl, fp, lr}
40015cc0:	e5913064 	ldr	r3, [r1, #100]	; 0x64
40015cc4:	e3130a02 	tst	r3, #8192	; 0x2000
40015cc8:	e1a0b002 	mov	fp, r2
40015ccc:	0a000024 	beq	40015d64 <__sprint_r.part.0+0xa8>
40015cd0:	e5923008 	ldr	r3, [r2, #8]
40015cd4:	e5929000 	ldr	r9, [r2]
40015cd8:	e3530000 	cmp	r3, #0
40015cdc:	11a06001 	movne	r6, r1
40015ce0:	11a07000 	movne	r7, r0
40015ce4:	12899008 	addne	r9, r9, #8
40015ce8:	0a00001b 	beq	40015d5c <__sprint_r.part.0+0xa0>
40015cec:	e519a004 	ldr	sl, [r9, #-4]
40015cf0:	e5195008 	ldr	r5, [r9, #-8]
40015cf4:	e1b0812a 	lsrs	r8, sl, #2
40015cf8:	13a04000 	movne	r4, #0
40015cfc:	12455004 	subne	r5, r5, #4
40015d00:	1a000002 	bne	40015d10 <__sprint_r.part.0+0x54>
40015d04:	ea00000e 	b	40015d44 <__sprint_r.part.0+0x88>
40015d08:	e1580004 	cmp	r8, r4
40015d0c:	0a00000b 	beq	40015d40 <__sprint_r.part.0+0x84>
40015d10:	e1a02006 	mov	r2, r6
40015d14:	e5b51004 	ldr	r1, [r5, #4]!
40015d18:	e1a00007 	mov	r0, r7
40015d1c:	eb00057c 	bl	40017314 <_fputwc_r>
40015d20:	e3700001 	cmn	r0, #1
40015d24:	e2844001 	add	r4, r4, #1
40015d28:	1afffff6 	bne	40015d08 <__sprint_r.part.0+0x4c>
40015d2c:	e3a03000 	mov	r3, #0
40015d30:	e58b3008 	str	r3, [fp, #8]
40015d34:	e58b3004 	str	r3, [fp, #4]
40015d38:	e8bd4ff8 	pop	{r3, r4, r5, r6, r7, r8, r9, sl, fp, lr}
40015d3c:	e12fff1e 	bx	lr
40015d40:	e59b3008 	ldr	r3, [fp, #8]
40015d44:	e3caa003 	bic	sl, sl, #3
40015d48:	e043300a 	sub	r3, r3, sl
40015d4c:	e3530000 	cmp	r3, #0
40015d50:	e58b3008 	str	r3, [fp, #8]
40015d54:	e2899008 	add	r9, r9, #8
40015d58:	1affffe3 	bne	40015cec <__sprint_r.part.0+0x30>
40015d5c:	e3a00000 	mov	r0, #0
40015d60:	eafffff1 	b	40015d2c <__sprint_r.part.0+0x70>
40015d64:	ebffd488 	bl	4000af8c <__sfvwrite_r>
40015d68:	eaffffef 	b	40015d2c <__sprint_r.part.0+0x70>

Disassembly of section .text.__sprint_r:

40015d6c <__sprint_r>:
40015d6c:	e5923008 	ldr	r3, [r2, #8]
40015d70:	e3530000 	cmp	r3, #0
40015d74:	1affffd0 	bne	40015cbc <__sprint_r.part.0>
40015d78:	e5823004 	str	r3, [r2, #4]
40015d7c:	e1a00003 	mov	r0, r3
40015d80:	e12fff1e 	bx	lr

Disassembly of section .text._vfiprintf_r:

40015d84 <_vfiprintf_r>:
40015d84:	e92d4ff0 	push	{r4, r5, r6, r7, r8, r9, sl, fp, lr}
40015d88:	e1a05003 	mov	r5, r3
40015d8c:	e24dd0b4 	sub	sp, sp, #180	; 0xb4
40015d90:	e2503000 	subs	r3, r0, #0
40015d94:	e58d3014 	str	r3, [sp, #20]
40015d98:	e58d1000 	str	r1, [sp]
40015d9c:	e1a0b002 	mov	fp, r2
40015da0:	e58d501c 	str	r5, [sp, #28]
40015da4:	0a000002 	beq	40015db4 <_vfiprintf_r+0x30>
40015da8:	e5933038 	ldr	r3, [r3, #56]	; 0x38
40015dac:	e3530000 	cmp	r3, #0
40015db0:	0a0000c1 	beq	400160bc <_vfiprintf_r+0x338>
40015db4:	e59d3000 	ldr	r3, [sp]
40015db8:	e1d320fc 	ldrsh	r2, [r3, #12]
40015dbc:	e1a01802 	lsl	r1, r2, #16
40015dc0:	e3110202 	tst	r1, #536870912	; 0x20000000
40015dc4:	e1a01821 	lsr	r1, r1, #16
40015dc8:	1a000007 	bne	40015dec <_vfiprintf_r+0x68>
40015dcc:	e1a01003 	mov	r1, r3
40015dd0:	e5933064 	ldr	r3, [r3, #100]	; 0x64
40015dd4:	e3822a02 	orr	r2, r2, #8192	; 0x2000
40015dd8:	e1c120bc 	strh	r2, [r1, #12]
40015ddc:	e3c33a02 	bic	r3, r3, #8192	; 0x2000
40015de0:	e1a02802 	lsl	r2, r2, #16
40015de4:	e5813064 	str	r3, [r1, #100]	; 0x64
40015de8:	e1a01822 	lsr	r1, r2, #16
40015dec:	e3110008 	tst	r1, #8
40015df0:	0a00009a 	beq	40016060 <_vfiprintf_r+0x2dc>
40015df4:	e59d3000 	ldr	r3, [sp]
40015df8:	e5933010 	ldr	r3, [r3, #16]
40015dfc:	e3530000 	cmp	r3, #0
40015e00:	0a000096 	beq	40016060 <_vfiprintf_r+0x2dc>
40015e04:	e201101a 	and	r1, r1, #26
40015e08:	e351000a 	cmp	r1, #10
40015e0c:	0a00009d 	beq	40016088 <_vfiprintf_r+0x304>
40015e10:	e3a03000 	mov	r3, #0
40015e14:	e28d8070 	add	r8, sp, #112	; 0x70
40015e18:	e1a09008 	mov	r9, r8
40015e1c:	e58d302c 	str	r3, [sp, #44]	; 0x2c
40015e20:	e58d300c 	str	r3, [sp, #12]
40015e24:	e58d3044 	str	r3, [sp, #68]	; 0x44
40015e28:	e58d3040 	str	r3, [sp, #64]	; 0x40
40015e2c:	e58d803c 	str	r8, [sp, #60]	; 0x3c
40015e30:	e59fafd0 	ldr	sl, [pc, #4048]	; 40016e08 <_vfiprintf_r+0x1084>
40015e34:	e5db3000 	ldrb	r3, [fp]
40015e38:	e3530000 	cmp	r3, #0
40015e3c:	13530025 	cmpne	r3, #37	; 0x25
40015e40:	e1a0400b 	mov	r4, fp
40015e44:	0a000013 	beq	40015e98 <_vfiprintf_r+0x114>
40015e48:	e5f43001 	ldrb	r3, [r4, #1]!
40015e4c:	e3530000 	cmp	r3, #0
40015e50:	13530025 	cmpne	r3, #37	; 0x25
40015e54:	1afffffb 	bne	40015e48 <_vfiprintf_r+0xc4>
40015e58:	e054500b 	subs	r5, r4, fp
40015e5c:	0a00000d 	beq	40015e98 <_vfiprintf_r+0x114>
40015e60:	e59d3040 	ldr	r3, [sp, #64]	; 0x40
40015e64:	e59d2044 	ldr	r2, [sp, #68]	; 0x44
40015e68:	e2833001 	add	r3, r3, #1
40015e6c:	e3530007 	cmp	r3, #7
40015e70:	e0852002 	add	r2, r5, r2
40015e74:	e589b000 	str	fp, [r9]
40015e78:	e5895004 	str	r5, [r9, #4]
40015e7c:	e58d3040 	str	r3, [sp, #64]	; 0x40
40015e80:	e58d2044 	str	r2, [sp, #68]	; 0x44
40015e84:	d2899008 	addle	r9, r9, #8
40015e88:	ca00006f 	bgt	4001604c <_vfiprintf_r+0x2c8>
40015e8c:	e59d300c 	ldr	r3, [sp, #12]
40015e90:	e0833005 	add	r3, r3, r5
40015e94:	e58d300c 	str	r3, [sp, #12]
40015e98:	e5d43000 	ldrb	r3, [r4]
40015e9c:	e3530000 	cmp	r3, #0
40015ea0:	0a000318 	beq	40016b08 <_vfiprintf_r+0xd84>
40015ea4:	e3a01000 	mov	r1, #0
40015ea8:	e3a03000 	mov	r3, #0
40015eac:	e284b001 	add	fp, r4, #1
40015eb0:	e5cd3037 	strb	r3, [sp, #55]	; 0x37
40015eb4:	e3e07000 	mvn	r7, #0
40015eb8:	e5d43001 	ldrb	r3, [r4, #1]
40015ebc:	e1a0c001 	mov	ip, r1
40015ec0:	e1a00001 	mov	r0, r1
40015ec4:	e1a06001 	mov	r6, r1
40015ec8:	e3a0e001 	mov	lr, #1
40015ecc:	e3a0402b 	mov	r4, #43	; 0x2b
40015ed0:	e3a05020 	mov	r5, #32
40015ed4:	e28bb001 	add	fp, fp, #1
40015ed8:	e2432020 	sub	r2, r3, #32
40015edc:	e3520058 	cmp	r2, #88	; 0x58
40015ee0:	979ff102 	ldrls	pc, [pc, r2, lsl #2]
40015ee4:	ea00026b 	b	40016898 <_vfiprintf_r+0xb14>
40015ee8:	4001665c 	.word	0x4001665c
40015eec:	40016898 	.word	0x40016898
40015ef0:	40016898 	.word	0x40016898
40015ef4:	40016670 	.word	0x40016670
40015ef8:	40016898 	.word	0x40016898
40015efc:	40016898 	.word	0x40016898
40015f00:	40016898 	.word	0x40016898
40015f04:	40016898 	.word	0x40016898
40015f08:	40016898 	.word	0x40016898
40015f0c:	40016898 	.word	0x40016898
40015f10:	400160c4 	.word	0x400160c4
40015f14:	4001684c 	.word	0x4001684c
40015f18:	40016898 	.word	0x40016898
40015f1c:	400160e0 	.word	0x400160e0
40015f20:	400167e4 	.word	0x400167e4
40015f24:	40016898 	.word	0x40016898
40015f28:	40016530 	.word	0x40016530
40015f2c:	4001653c 	.word	0x4001653c
40015f30:	4001653c 	.word	0x4001653c
40015f34:	4001653c 	.word	0x4001653c
40015f38:	4001653c 	.word	0x4001653c
40015f3c:	4001653c 	.word	0x4001653c
40015f40:	4001653c 	.word	0x4001653c
40015f44:	4001653c 	.word	0x4001653c
40015f48:	4001653c 	.word	0x4001653c
40015f4c:	4001653c 	.word	0x4001653c
40015f50:	40016898 	.word	0x40016898
40015f54:	40016898 	.word	0x40016898
40015f58:	40016898 	.word	0x40016898
40015f5c:	40016898 	.word	0x40016898
40015f60:	40016898 	.word	0x40016898
40015f64:	40016898 	.word	0x40016898
40015f68:	40016898 	.word	0x40016898
40015f6c:	40016898 	.word	0x40016898
40015f70:	40016898 	.word	0x40016898
40015f74:	40016898 	.word	0x40016898
40015f78:	400167a0 	.word	0x400167a0
40015f7c:	40016898 	.word	0x40016898
40015f80:	40016898 	.word	0x40016898
40015f84:	40016898 	.word	0x40016898
40015f88:	40016898 	.word	0x40016898
40015f8c:	40016898 	.word	0x40016898
40015f90:	40016898 	.word	0x40016898
40015f94:	40016898 	.word	0x40016898
40015f98:	40016898 	.word	0x40016898
40015f9c:	40016898 	.word	0x40016898
40015fa0:	40016898 	.word	0x40016898
40015fa4:	400167b4 	.word	0x400167b4
40015fa8:	40016898 	.word	0x40016898
40015fac:	40016898 	.word	0x40016898
40015fb0:	40016898 	.word	0x40016898
40015fb4:	40016898 	.word	0x40016898
40015fb8:	40016898 	.word	0x40016898
40015fbc:	400167c0 	.word	0x400167c0
40015fc0:	40016898 	.word	0x40016898
40015fc4:	40016898 	.word	0x40016898
40015fc8:	400167cc 	.word	0x400167cc
40015fcc:	40016898 	.word	0x40016898
40015fd0:	40016898 	.word	0x40016898
40015fd4:	40016898 	.word	0x40016898
40015fd8:	40016898 	.word	0x40016898
40015fdc:	40016898 	.word	0x40016898
40015fe0:	40016898 	.word	0x40016898
40015fe4:	40016898 	.word	0x40016898
40015fe8:	40016898 	.word	0x40016898
40015fec:	40016898 	.word	0x40016898
40015ff0:	40016898 	.word	0x40016898
40015ff4:	40016560 	.word	0x40016560
40015ff8:	400165a4 	.word	0x400165a4
40015ffc:	40016898 	.word	0x40016898
40016000:	40016898 	.word	0x40016898
40016004:	40016898 	.word	0x40016898
40016008:	40016824 	.word	0x40016824
4001600c:	400165a4 	.word	0x400165a4
40016010:	40016898 	.word	0x40016898
40016014:	40016898 	.word	0x40016898
40016018:	40016830 	.word	0x40016830
4001601c:	40016898 	.word	0x40016898
40016020:	4001685c 	.word	0x4001685c
40016024:	400160ec 	.word	0x400160ec
40016028:	400166f0 	.word	0x400166f0
4001602c:	4001672c 	.word	0x4001672c
40016030:	40016898 	.word	0x40016898
40016034:	40016738 	.word	0x40016738
40016038:	40016898 	.word	0x40016898
4001603c:	400164f4 	.word	0x400164f4
40016040:	40016898 	.word	0x40016898
40016044:	40016898 	.word	0x40016898
40016048:	4001667c 	.word	0x4001667c
4001604c:	e3520000 	cmp	r2, #0
40016050:	1a000312 	bne	40016ca0 <_vfiprintf_r+0xf1c>
40016054:	e58d2040 	str	r2, [sp, #64]	; 0x40
40016058:	e1a09008 	mov	r9, r8
4001605c:	eaffff8a 	b	40015e8c <_vfiprintf_r+0x108>
40016060:	e59d4000 	ldr	r4, [sp]
40016064:	e59d0014 	ldr	r0, [sp, #20]
40016068:	e1a01004 	mov	r1, r4
4001606c:	ebffecbb 	bl	40011360 <__swsetup_r>
40016070:	e3500000 	cmp	r0, #0
40016074:	1a0002ad 	bne	40016b30 <_vfiprintf_r+0xdac>
40016078:	e1d410bc 	ldrh	r1, [r4, #12]
4001607c:	e201101a 	and	r1, r1, #26
40016080:	e351000a 	cmp	r1, #10
40016084:	1affff61 	bne	40015e10 <_vfiprintf_r+0x8c>
40016088:	e59d1000 	ldr	r1, [sp]
4001608c:	e1d130fe 	ldrsh	r3, [r1, #14]
40016090:	e3530000 	cmp	r3, #0
40016094:	baffff5d 	blt	40015e10 <_vfiprintf_r+0x8c>
40016098:	e1a03005 	mov	r3, r5
4001609c:	e1a0200b 	mov	r2, fp
400160a0:	e59d0014 	ldr	r0, [sp, #20]
400160a4:	ebffec2f 	bl	40011168 <__sbprintf>
400160a8:	e58d000c 	str	r0, [sp, #12]
400160ac:	e59d000c 	ldr	r0, [sp, #12]
400160b0:	e28dd0b4 	add	sp, sp, #180	; 0xb4
400160b4:	e8bd4ff0 	pop	{r4, r5, r6, r7, r8, r9, sl, fp, lr}
400160b8:	e12fff1e 	bx	lr
400160bc:	ebfff516 	bl	4001351c <__sinit>
400160c0:	eaffff3b 	b	40015db4 <_vfiprintf_r+0x30>
400160c4:	e59d301c 	ldr	r3, [sp, #28]
400160c8:	e5930000 	ldr	r0, [r3]
400160cc:	e2833004 	add	r3, r3, #4
400160d0:	e3500000 	cmp	r0, #0
400160d4:	e58d301c 	str	r3, [sp, #28]
400160d8:	aa000001 	bge	400160e4 <_vfiprintf_r+0x360>
400160dc:	e2600000 	rsb	r0, r0, #0
400160e0:	e3866004 	orr	r6, r6, #4
400160e4:	e5db3000 	ldrb	r3, [fp]
400160e8:	eaffff79 	b	40015ed4 <_vfiprintf_r+0x150>
400160ec:	e58d0018 	str	r0, [sp, #24]
400160f0:	e3160020 	tst	r6, #32
400160f4:	1a000324 	bne	40016d8c <_vfiprintf_r+0x1008>
400160f8:	e59d201c 	ldr	r2, [sp, #28]
400160fc:	e3160010 	tst	r6, #16
40016100:	e1a03002 	mov	r3, r2
40016104:	1a0002ed 	bne	40016cc0 <_vfiprintf_r+0xf3c>
40016108:	e3160040 	tst	r6, #64	; 0x40
4001610c:	0a0002eb 	beq	40016cc0 <_vfiprintf_r+0xf3c>
40016110:	e3a03000 	mov	r3, #0
40016114:	e3a05000 	mov	r5, #0
40016118:	e1d240b0 	ldrh	r4, [r2]
4001611c:	e2822004 	add	r2, r2, #4
40016120:	e58d201c 	str	r2, [sp, #28]
40016124:	e3a02000 	mov	r2, #0
40016128:	e58d2020 	str	r2, [sp, #32]
4001612c:	e5cd2037 	strb	r2, [sp, #55]	; 0x37
40016130:	e3770001 	cmn	r7, #1
40016134:	0a000132 	beq	40016604 <_vfiprintf_r+0x880>
40016138:	e1842005 	orr	r2, r4, r5
4001613c:	e3520000 	cmp	r2, #0
40016140:	03570000 	cmpeq	r7, #0
40016144:	e3c62080 	bic	r2, r6, #128	; 0x80
40016148:	e58d2008 	str	r2, [sp, #8]
4001614c:	1a0002ad 	bne	40016c08 <_vfiprintf_r+0xe84>
40016150:	e3530000 	cmp	r3, #0
40016154:	1a0002a7 	bne	40016bf8 <_vfiprintf_r+0xe74>
40016158:	e2163001 	ands	r3, r6, #1
4001615c:	e58d3010 	str	r3, [sp, #16]
40016160:	058d8024 	streq	r8, [sp, #36]	; 0x24
40016164:	13a03030 	movne	r3, #48	; 0x30
40016168:	128d20b0 	addne	r2, sp, #176	; 0xb0
4001616c:	15623041 	strbne	r3, [r2, #-65]!	; 0xffffffbf
40016170:	158d2024 	strne	r2, [sp, #36]	; 0x24
40016174:	e59d3010 	ldr	r3, [sp, #16]
40016178:	e1570003 	cmp	r7, r3
4001617c:	a1a03007 	movge	r3, r7
40016180:	e59d2020 	ldr	r2, [sp, #32]
40016184:	e3520000 	cmp	r2, #0
40016188:	e58d3004 	str	r3, [sp, #4]
4001618c:	12833001 	addne	r3, r3, #1
40016190:	158d3004 	strne	r3, [sp, #4]
40016194:	e59d3008 	ldr	r3, [sp, #8]
40016198:	e2133002 	ands	r3, r3, #2
4001619c:	e58d3020 	str	r3, [sp, #32]
400161a0:	159d3004 	ldrne	r3, [sp, #4]
400161a4:	12833002 	addne	r3, r3, #2
400161a8:	158d3004 	strne	r3, [sp, #4]
400161ac:	e59d3008 	ldr	r3, [sp, #8]
400161b0:	e2136084 	ands	r6, r3, #132	; 0x84
400161b4:	1a0001e0 	bne	4001693c <_vfiprintf_r+0xbb8>
400161b8:	e59d3018 	ldr	r3, [sp, #24]
400161bc:	e59d2004 	ldr	r2, [sp, #4]
400161c0:	e0434002 	sub	r4, r3, r2
400161c4:	e3540000 	cmp	r4, #0
400161c8:	da0001db 	ble	4001693c <_vfiprintf_r+0xbb8>
400161cc:	e3540010 	cmp	r4, #16
400161d0:	da00037c 	ble	40016fc8 <_vfiprintf_r+0x1244>
400161d4:	e1a0e009 	mov	lr, r9
400161d8:	e3a05010 	mov	r5, #16
400161dc:	e1a09007 	mov	r9, r7
400161e0:	e3a03001 	mov	r3, #1
400161e4:	e59d2044 	ldr	r2, [sp, #68]	; 0x44
400161e8:	e59dc040 	ldr	ip, [sp, #64]	; 0x40
400161ec:	e59d7014 	ldr	r7, [sp, #20]
400161f0:	ea000005 	b	4001620c <_vfiprintf_r+0x488>
400161f4:	e28c1002 	add	r1, ip, #2
400161f8:	e1a0c000 	mov	ip, r0
400161fc:	e28ee008 	add	lr, lr, #8
40016200:	e2444010 	sub	r4, r4, #16
40016204:	e3540010 	cmp	r4, #16
40016208:	da00000f 	ble	4001624c <_vfiprintf_r+0x4c8>
4001620c:	e28c0001 	add	r0, ip, #1
40016210:	e59f1bf4 	ldr	r1, [pc, #3060]	; 40016e0c <_vfiprintf_r+0x1088>
40016214:	e2822010 	add	r2, r2, #16
40016218:	e3500007 	cmp	r0, #7
4001621c:	e58d2044 	str	r2, [sp, #68]	; 0x44
40016220:	e88e0022 	stm	lr, {r1, r5}
40016224:	e58d0040 	str	r0, [sp, #64]	; 0x40
40016228:	dafffff1 	ble	400161f4 <_vfiprintf_r+0x470>
4001622c:	e3520000 	cmp	r2, #0
40016230:	1a0001ad 	bne	400168ec <_vfiprintf_r+0xb68>
40016234:	e2444010 	sub	r4, r4, #16
40016238:	e3540010 	cmp	r4, #16
4001623c:	e1a0c006 	mov	ip, r6
40016240:	e1a01003 	mov	r1, r3
40016244:	e1a0e008 	mov	lr, r8
40016248:	caffffef 	bgt	4001620c <_vfiprintf_r+0x488>
4001624c:	e1a07009 	mov	r7, r9
40016250:	e1a0900e 	mov	r9, lr
40016254:	e59f3bb0 	ldr	r3, [pc, #2992]	; 40016e0c <_vfiprintf_r+0x1088>
40016258:	e3510007 	cmp	r1, #7
4001625c:	e0842002 	add	r2, r4, r2
40016260:	e8890018 	stm	r9, {r3, r4}
40016264:	e58d2044 	str	r2, [sp, #68]	; 0x44
40016268:	e58d1040 	str	r1, [sp, #64]	; 0x40
4001626c:	d2899008 	addle	r9, r9, #8
40016270:	d2810001 	addle	r0, r1, #1
40016274:	da0001b3 	ble	40016948 <_vfiprintf_r+0xbc4>
40016278:	e3520000 	cmp	r2, #0
4001627c:	1a0001a7 	bne	40016920 <_vfiprintf_r+0xb9c>
40016280:	e5dd1037 	ldrb	r1, [sp, #55]	; 0x37
40016284:	e3510000 	cmp	r1, #0
40016288:	0a000307 	beq	40016eac <_vfiprintf_r+0x1128>
4001628c:	e3a02001 	mov	r2, #1
40016290:	e1a09008 	mov	r9, r8
40016294:	e1a00002 	mov	r0, r2
40016298:	e28d1037 	add	r1, sp, #55	; 0x37
4001629c:	e58d2074 	str	r2, [sp, #116]	; 0x74
400162a0:	e58d1070 	str	r1, [sp, #112]	; 0x70
400162a4:	e1a01000 	mov	r1, r0
400162a8:	e2899008 	add	r9, r9, #8
400162ac:	e2800001 	add	r0, r0, #1
400162b0:	e59d3020 	ldr	r3, [sp, #32]
400162b4:	e3530000 	cmp	r3, #0
400162b8:	0a0001bc 	beq	400169b0 <_vfiprintf_r+0xc2c>
400162bc:	e3a01002 	mov	r1, #2
400162c0:	e28d3038 	add	r3, sp, #56	; 0x38
400162c4:	e0822001 	add	r2, r2, r1
400162c8:	e3500007 	cmp	r0, #7
400162cc:	e58d2044 	str	r2, [sp, #68]	; 0x44
400162d0:	e58d0040 	str	r0, [sp, #64]	; 0x40
400162d4:	e5891004 	str	r1, [r9, #4]
400162d8:	e5893000 	str	r3, [r9]
400162dc:	da0001b0 	ble	400169a4 <_vfiprintf_r+0xc20>
400162e0:	e3520000 	cmp	r2, #0
400162e4:	1a00028c 	bne	40016d1c <_vfiprintf_r+0xf98>
400162e8:	e3560080 	cmp	r6, #128	; 0x80
400162ec:	e3a00001 	mov	r0, #1
400162f0:	e3a01000 	mov	r1, #0
400162f4:	e1a09008 	mov	r9, r8
400162f8:	1a0001ae 	bne	400169b8 <_vfiprintf_r+0xc34>
400162fc:	e59d3018 	ldr	r3, [sp, #24]
40016300:	e59dc004 	ldr	ip, [sp, #4]
40016304:	e043400c 	sub	r4, r3, ip
40016308:	e3540000 	cmp	r4, #0
4001630c:	da0001a9 	ble	400169b8 <_vfiprintf_r+0xc34>
40016310:	e3540010 	cmp	r4, #16
40016314:	da000338 	ble	40016ffc <_vfiprintf_r+0x1278>
40016318:	e1a0e009 	mov	lr, r9
4001631c:	e3a05010 	mov	r5, #16
40016320:	e1a09007 	mov	r9, r7
40016324:	e3a06001 	mov	r6, #1
40016328:	e1a07004 	mov	r7, r4
4001632c:	e59d4014 	ldr	r4, [sp, #20]
40016330:	ea000005 	b	4001634c <_vfiprintf_r+0x5c8>
40016334:	e281c002 	add	ip, r1, #2
40016338:	e1a01000 	mov	r1, r0
4001633c:	e28ee008 	add	lr, lr, #8
40016340:	e2477010 	sub	r7, r7, #16
40016344:	e3570010 	cmp	r7, #16
40016348:	da00000f 	ble	4001638c <_vfiprintf_r+0x608>
4001634c:	e2810001 	add	r0, r1, #1
40016350:	e2822010 	add	r2, r2, #16
40016354:	e3500007 	cmp	r0, #7
40016358:	e58d2044 	str	r2, [sp, #68]	; 0x44
4001635c:	e58ea000 	str	sl, [lr]
40016360:	e58e5004 	str	r5, [lr, #4]
40016364:	e58d0040 	str	r0, [sp, #64]	; 0x40
40016368:	dafffff1 	ble	40016334 <_vfiprintf_r+0x5b0>
4001636c:	e3520000 	cmp	r2, #0
40016370:	1a000215 	bne	40016bcc <_vfiprintf_r+0xe48>
40016374:	e2477010 	sub	r7, r7, #16
40016378:	e3570010 	cmp	r7, #16
4001637c:	e1a0c006 	mov	ip, r6
40016380:	e3a01000 	mov	r1, #0
40016384:	e1a0e008 	mov	lr, r8
40016388:	caffffef 	bgt	4001634c <_vfiprintf_r+0x5c8>
4001638c:	e1a04007 	mov	r4, r7
40016390:	e1a07009 	mov	r7, r9
40016394:	e1a0900e 	mov	r9, lr
40016398:	e0822004 	add	r2, r2, r4
4001639c:	e35c0007 	cmp	ip, #7
400163a0:	e58d2044 	str	r2, [sp, #68]	; 0x44
400163a4:	e589a000 	str	sl, [r9]
400163a8:	e5894004 	str	r4, [r9, #4]
400163ac:	e58dc040 	str	ip, [sp, #64]	; 0x40
400163b0:	ca000264 	bgt	40016d48 <_vfiprintf_r+0xfc4>
400163b4:	e59d3010 	ldr	r3, [sp, #16]
400163b8:	e0477003 	sub	r7, r7, r3
400163bc:	e3570000 	cmp	r7, #0
400163c0:	e2899008 	add	r9, r9, #8
400163c4:	e28c0001 	add	r0, ip, #1
400163c8:	e1a0100c 	mov	r1, ip
400163cc:	ca00017d 	bgt	400169c8 <_vfiprintf_r+0xc44>
400163d0:	e59d3010 	ldr	r3, [sp, #16]
400163d4:	e59d1024 	ldr	r1, [sp, #36]	; 0x24
400163d8:	e0832002 	add	r2, r3, r2
400163dc:	e3500007 	cmp	r0, #7
400163e0:	e58d2044 	str	r2, [sp, #68]	; 0x44
400163e4:	e889000a 	stm	r9, {r1, r3}
400163e8:	e58d0040 	str	r0, [sp, #64]	; 0x40
400163ec:	da0001a4 	ble	40016a84 <_vfiprintf_r+0xd00>
400163f0:	e3520000 	cmp	r2, #0
400163f4:	1a000220 	bne	40016c7c <_vfiprintf_r+0xef8>
400163f8:	e59d3008 	ldr	r3, [sp, #8]
400163fc:	e3130004 	tst	r3, #4
40016400:	e58d2040 	str	r2, [sp, #64]	; 0x40
40016404:	0a000032 	beq	400164d4 <_vfiprintf_r+0x750>
40016408:	e59d3018 	ldr	r3, [sp, #24]
4001640c:	e59d1004 	ldr	r1, [sp, #4]
40016410:	e0434001 	sub	r4, r3, r1
40016414:	e3540000 	cmp	r4, #0
40016418:	c1a09008 	movgt	r9, r8
4001641c:	da00020d 	ble	40016c58 <_vfiprintf_r+0xed4>
40016420:	e3540010 	cmp	r4, #16
40016424:	d59d0040 	ldrle	r0, [sp, #64]	; 0x40
40016428:	d2800001 	addle	r0, r0, #1
4001642c:	da00001f 	ble	400164b0 <_vfiprintf_r+0x72c>
40016430:	e1a0c009 	mov	ip, r9
40016434:	e3a05010 	mov	r5, #16
40016438:	e1a09004 	mov	r9, r4
4001643c:	e3a06001 	mov	r6, #1
40016440:	e59d1040 	ldr	r1, [sp, #64]	; 0x40
40016444:	e59d7014 	ldr	r7, [sp, #20]
40016448:	e59d4000 	ldr	r4, [sp]
4001644c:	ea000005 	b	40016468 <_vfiprintf_r+0x6e4>
40016450:	e2810002 	add	r0, r1, #2
40016454:	e1a01003 	mov	r1, r3
40016458:	e28cc008 	add	ip, ip, #8
4001645c:	e2499010 	sub	r9, r9, #16
40016460:	e3590010 	cmp	r9, #16
40016464:	da00000f 	ble	400164a8 <_vfiprintf_r+0x724>
40016468:	e2813001 	add	r3, r1, #1
4001646c:	e59f0998 	ldr	r0, [pc, #2456]	; 40016e0c <_vfiprintf_r+0x1088>
40016470:	e2822010 	add	r2, r2, #16
40016474:	e3530007 	cmp	r3, #7
40016478:	e58d2044 	str	r2, [sp, #68]	; 0x44
4001647c:	e88c0021 	stm	ip, {r0, r5}
40016480:	e58d3040 	str	r3, [sp, #64]	; 0x40
40016484:	dafffff1 	ble	40016450 <_vfiprintf_r+0x6cc>
40016488:	e3520000 	cmp	r2, #0
4001648c:	1a0001aa 	bne	40016b3c <_vfiprintf_r+0xdb8>
40016490:	e2499010 	sub	r9, r9, #16
40016494:	e3590010 	cmp	r9, #16
40016498:	e1a00006 	mov	r0, r6
4001649c:	e3a01000 	mov	r1, #0
400164a0:	e1a0c008 	mov	ip, r8
400164a4:	caffffef 	bgt	40016468 <_vfiprintf_r+0x6e4>
400164a8:	e1a04009 	mov	r4, r9
400164ac:	e1a0900c 	mov	r9, ip
400164b0:	e59f3954 	ldr	r3, [pc, #2388]	; 40016e0c <_vfiprintf_r+0x1088>
400164b4:	e0822004 	add	r2, r2, r4
400164b8:	e3500007 	cmp	r0, #7
400164bc:	e58d2044 	str	r2, [sp, #68]	; 0x44
400164c0:	e8890018 	stm	r9, {r3, r4}
400164c4:	e58d0040 	str	r0, [sp, #64]	; 0x40
400164c8:	da000176 	ble	40016aa8 <_vfiprintf_r+0xd24>
400164cc:	e3520000 	cmp	r2, #0
400164d0:	1a00028c 	bne	40016f08 <_vfiprintf_r+0x1184>
400164d4:	e59d300c 	ldr	r3, [sp, #12]
400164d8:	e59d2018 	ldr	r2, [sp, #24]
400164dc:	e59d1004 	ldr	r1, [sp, #4]
400164e0:	e1520001 	cmp	r2, r1
400164e4:	a0833002 	addge	r3, r3, r2
400164e8:	b0833001 	addlt	r3, r3, r1
400164ec:	e58d300c 	str	r3, [sp, #12]
400164f0:	ea000175 	b	40016acc <_vfiprintf_r+0xd48>
400164f4:	e58d0018 	str	r0, [sp, #24]
400164f8:	e3160020 	tst	r6, #32
400164fc:	1a00022a 	bne	40016dac <_vfiprintf_r+0x1028>
40016500:	e59d201c 	ldr	r2, [sp, #28]
40016504:	e3160010 	tst	r6, #16
40016508:	e1a03002 	mov	r3, r2
4001650c:	1a0001f1 	bne	40016cd8 <_vfiprintf_r+0xf54>
40016510:	e3160040 	tst	r6, #64	; 0x40
40016514:	0a0001ef 	beq	40016cd8 <_vfiprintf_r+0xf54>
40016518:	e1d240b0 	ldrh	r4, [r2]
4001651c:	e2822004 	add	r2, r2, #4
40016520:	e3a03001 	mov	r3, #1
40016524:	e58d201c 	str	r2, [sp, #28]
40016528:	e3a05000 	mov	r5, #0
4001652c:	eafffefc 	b	40016124 <_vfiprintf_r+0x3a0>
40016530:	e3866080 	orr	r6, r6, #128	; 0x80
40016534:	e5db3000 	ldrb	r3, [fp]
40016538:	eafffe65 	b	40015ed4 <_vfiprintf_r+0x150>
4001653c:	e3a00000 	mov	r0, #0
40016540:	e2432030 	sub	r2, r3, #48	; 0x30
40016544:	e4db3001 	ldrb	r3, [fp], #1
40016548:	e0800100 	add	r0, r0, r0, lsl #2
4001654c:	e0820080 	add	r0, r2, r0, lsl #1
40016550:	e2432030 	sub	r2, r3, #48	; 0x30
40016554:	e3520009 	cmp	r2, #9
40016558:	9afffff9 	bls	40016544 <_vfiprintf_r+0x7c0>
4001655c:	eafffe5d 	b	40015ed8 <_vfiprintf_r+0x154>
40016560:	e3a03001 	mov	r3, #1
40016564:	e58d0018 	str	r0, [sp, #24]
40016568:	e1a02003 	mov	r2, r3
4001656c:	e3a00000 	mov	r0, #0
40016570:	e59d101c 	ldr	r1, [sp, #28]
40016574:	e58d3004 	str	r3, [sp, #4]
40016578:	e5913000 	ldr	r3, [r1]
4001657c:	e5cd3048 	strb	r3, [sp, #72]	; 0x48
40016580:	e2813004 	add	r3, r1, #4
40016584:	e58d301c 	str	r3, [sp, #28]
40016588:	e28d3048 	add	r3, sp, #72	; 0x48
4001658c:	e5cd0037 	strb	r0, [sp, #55]	; 0x37
40016590:	e58d2010 	str	r2, [sp, #16]
40016594:	e58d3024 	str	r3, [sp, #36]	; 0x24
40016598:	e58d6008 	str	r6, [sp, #8]
4001659c:	e3a07000 	mov	r7, #0
400165a0:	eafffefb 	b	40016194 <_vfiprintf_r+0x410>
400165a4:	e3510000 	cmp	r1, #0
400165a8:	e58d0018 	str	r0, [sp, #24]
400165ac:	15cdc037 	strbne	ip, [sp, #55]	; 0x37
400165b0:	e3160020 	tst	r6, #32
400165b4:	1a00020a 	bne	40016de4 <_vfiprintf_r+0x1060>
400165b8:	e3160010 	tst	r6, #16
400165bc:	1a00024e 	bne	40016efc <_vfiprintf_r+0x1178>
400165c0:	e3160040 	tst	r6, #64	; 0x40
400165c4:	0a00023f 	beq	40016ec8 <_vfiprintf_r+0x1144>
400165c8:	e59d301c 	ldr	r3, [sp, #28]
400165cc:	e1d340f0 	ldrsh	r4, [r3]
400165d0:	e2833004 	add	r3, r3, #4
400165d4:	e1a05fc4 	asr	r5, r4, #31
400165d8:	e58d301c 	str	r3, [sp, #28]
400165dc:	e1a02004 	mov	r2, r4
400165e0:	e1a03005 	mov	r3, r5
400165e4:	e3520000 	cmp	r2, #0
400165e8:	e2d33000 	sbcs	r3, r3, #0
400165ec:	ba000227 	blt	40016e90 <_vfiprintf_r+0x110c>
400165f0:	e5dd3037 	ldrb	r3, [sp, #55]	; 0x37
400165f4:	e3770001 	cmn	r7, #1
400165f8:	e58d3020 	str	r3, [sp, #32]
400165fc:	e3a03001 	mov	r3, #1
40016600:	1afffecc 	bne	40016138 <_vfiprintf_r+0x3b4>
40016604:	e3530001 	cmp	r3, #1
40016608:	0a000181 	beq	40016c14 <_vfiprintf_r+0xe90>
4001660c:	e3530002 	cmp	r3, #2
40016610:	11a01008 	movne	r1, r8
40016614:	1a000154 	bne	40016b6c <_vfiprintf_r+0xde8>
40016618:	e1a02008 	mov	r2, r8
4001661c:	e59dc02c 	ldr	ip, [sp, #44]	; 0x2c
40016620:	e1a03224 	lsr	r3, r4, #4
40016624:	e1833e05 	orr	r3, r3, r5, lsl #28
40016628:	e1a00225 	lsr	r0, r5, #4
4001662c:	e204100f 	and	r1, r4, #15
40016630:	e1a05000 	mov	r5, r0
40016634:	e1a04003 	mov	r4, r3
40016638:	e7dc3001 	ldrb	r3, [ip, r1]
4001663c:	e1941005 	orrs	r1, r4, r5
40016640:	e5623001 	strb	r3, [r2, #-1]!
40016644:	1afffff5 	bne	40016620 <_vfiprintf_r+0x89c>
40016648:	e0483002 	sub	r3, r8, r2
4001664c:	e58d2024 	str	r2, [sp, #36]	; 0x24
40016650:	e58d6008 	str	r6, [sp, #8]
40016654:	e58d3010 	str	r3, [sp, #16]
40016658:	eafffec5 	b	40016174 <_vfiprintf_r+0x3f0>
4001665c:	e35c0000 	cmp	ip, #0
40016660:	e5db3000 	ldrb	r3, [fp]
40016664:	01a0100e 	moveq	r1, lr
40016668:	01a0c005 	moveq	ip, r5
4001666c:	eafffe18 	b	40015ed4 <_vfiprintf_r+0x150>
40016670:	e3866001 	orr	r6, r6, #1
40016674:	e5db3000 	ldrb	r3, [fp]
40016678:	eafffe15 	b	40015ed4 <_vfiprintf_r+0x150>
4001667c:	e59f278c 	ldr	r2, [pc, #1932]	; 40016e10 <_vfiprintf_r+0x108c>
40016680:	e3510000 	cmp	r1, #0
40016684:	e58d0018 	str	r0, [sp, #24]
40016688:	15cdc037 	strbne	ip, [sp, #55]	; 0x37
4001668c:	e58d202c 	str	r2, [sp, #44]	; 0x2c
40016690:	e3160020 	tst	r6, #32
40016694:	e59d201c 	ldr	r2, [sp, #28]
40016698:	1a0001cb 	bne	40016dcc <_vfiprintf_r+0x1048>
4001669c:	e3160010 	tst	r6, #16
400166a0:	1a000210 	bne	40016ee8 <_vfiprintf_r+0x1164>
400166a4:	e3160040 	tst	r6, #64	; 0x40
400166a8:	13a05000 	movne	r5, #0
400166ac:	03a05000 	moveq	r5, #0
400166b0:	11d240b0 	ldrhne	r4, [r2]
400166b4:	05924000 	ldreq	r4, [r2]
400166b8:	12822004 	addne	r2, r2, #4
400166bc:	02822004 	addeq	r2, r2, #4
400166c0:	158d201c 	strne	r2, [sp, #28]
400166c4:	058d201c 	streq	r2, [sp, #28]
400166c8:	e3160001 	tst	r6, #1
400166cc:	0a000168 	beq	40016c74 <_vfiprintf_r+0xef0>
400166d0:	e1942005 	orrs	r2, r4, r5
400166d4:	0a000166 	beq	40016c74 <_vfiprintf_r+0xef0>
400166d8:	e3a02030 	mov	r2, #48	; 0x30
400166dc:	e5cd3039 	strb	r3, [sp, #57]	; 0x39
400166e0:	e3866002 	orr	r6, r6, #2
400166e4:	e5cd2038 	strb	r2, [sp, #56]	; 0x38
400166e8:	e3a03002 	mov	r3, #2
400166ec:	eafffe8c 	b	40016124 <_vfiprintf_r+0x3a0>
400166f0:	e3a03078 	mov	r3, #120	; 0x78
400166f4:	e3a02030 	mov	r2, #48	; 0x30
400166f8:	e59d101c 	ldr	r1, [sp, #28]
400166fc:	e5cd3039 	strb	r3, [sp, #57]	; 0x39
40016700:	e2813004 	add	r3, r1, #4
40016704:	e58d301c 	str	r3, [sp, #28]
40016708:	e59f3700 	ldr	r3, [pc, #1792]	; 40016e10 <_vfiprintf_r+0x108c>
4001670c:	e58d0018 	str	r0, [sp, #24]
40016710:	e58d302c 	str	r3, [sp, #44]	; 0x2c
40016714:	e5914000 	ldr	r4, [r1]
40016718:	e3866002 	orr	r6, r6, #2
4001671c:	e5cd2038 	strb	r2, [sp, #56]	; 0x38
40016720:	e3a05000 	mov	r5, #0
40016724:	e3a03002 	mov	r3, #2
40016728:	eafffe7d 	b	40016124 <_vfiprintf_r+0x3a0>
4001672c:	e3866020 	orr	r6, r6, #32
40016730:	e5db3000 	ldrb	r3, [fp]
40016734:	eafffde6 	b	40015ed4 <_vfiprintf_r+0x150>
40016738:	e59d301c 	ldr	r3, [sp, #28]
4001673c:	e5932000 	ldr	r2, [r3]
40016740:	e58d2024 	str	r2, [sp, #36]	; 0x24
40016744:	e3520000 	cmp	r2, #0
40016748:	e3a02000 	mov	r2, #0
4001674c:	e58d0018 	str	r0, [sp, #24]
40016750:	e5cd2037 	strb	r2, [sp, #55]	; 0x37
40016754:	e2834004 	add	r4, r3, #4
40016758:	0a00021e 	beq	40016fd8 <_vfiprintf_r+0x1254>
4001675c:	e3770001 	cmn	r7, #1
40016760:	0a000204 	beq	40016f78 <_vfiprintf_r+0x11f4>
40016764:	e59d5024 	ldr	r5, [sp, #36]	; 0x24
40016768:	e1a02007 	mov	r2, r7
4001676c:	e3a01000 	mov	r1, #0
40016770:	e1a00005 	mov	r0, r5
40016774:	ebffd54e 	bl	4000bcb4 <memchr>
40016778:	e3500000 	cmp	r0, #0
4001677c:	0a000220 	beq	40017004 <_vfiprintf_r+0x1280>
40016780:	e0403005 	sub	r3, r0, r5
40016784:	e58d3010 	str	r3, [sp, #16]
40016788:	e5dd3037 	ldrb	r3, [sp, #55]	; 0x37
4001678c:	e58d401c 	str	r4, [sp, #28]
40016790:	e58d6008 	str	r6, [sp, #8]
40016794:	e58d3020 	str	r3, [sp, #32]
40016798:	e3a07000 	mov	r7, #0
4001679c:	eafffe74 	b	40016174 <_vfiprintf_r+0x3f0>
400167a0:	e3510000 	cmp	r1, #0
400167a4:	e58d0018 	str	r0, [sp, #24]
400167a8:	15cdc037 	strbne	ip, [sp, #55]	; 0x37
400167ac:	e3866010 	orr	r6, r6, #16
400167b0:	eaffff7e 	b	400165b0 <_vfiprintf_r+0x82c>
400167b4:	e58d0018 	str	r0, [sp, #24]
400167b8:	e3866010 	orr	r6, r6, #16
400167bc:	eafffe4b 	b	400160f0 <_vfiprintf_r+0x36c>
400167c0:	e58d0018 	str	r0, [sp, #24]
400167c4:	e3866010 	orr	r6, r6, #16
400167c8:	eaffff4a 	b	400164f8 <_vfiprintf_r+0x774>
400167cc:	e59f2640 	ldr	r2, [pc, #1600]	; 40016e14 <_vfiprintf_r+0x1090>
400167d0:	e3510000 	cmp	r1, #0
400167d4:	e58d0018 	str	r0, [sp, #24]
400167d8:	15cdc037 	strbne	ip, [sp, #55]	; 0x37
400167dc:	e58d202c 	str	r2, [sp, #44]	; 0x2c
400167e0:	eaffffaa 	b	40016690 <_vfiprintf_r+0x90c>
400167e4:	e5db3000 	ldrb	r3, [fp]
400167e8:	e353002a 	cmp	r3, #42	; 0x2a
400167ec:	e28b7001 	add	r7, fp, #1
400167f0:	0a00020a 	beq	40017020 <_vfiprintf_r+0x129c>
400167f4:	e2432030 	sub	r2, r3, #48	; 0x30
400167f8:	e3520009 	cmp	r2, #9
400167fc:	e1a0b007 	mov	fp, r7
40016800:	e3a07000 	mov	r7, #0
40016804:	8afffdb3 	bhi	40015ed8 <_vfiprintf_r+0x154>
40016808:	e4db3001 	ldrb	r3, [fp], #1
4001680c:	e0877107 	add	r7, r7, r7, lsl #2
40016810:	e0827087 	add	r7, r2, r7, lsl #1
40016814:	e2432030 	sub	r2, r3, #48	; 0x30
40016818:	e3520009 	cmp	r2, #9
4001681c:	9afffff9 	bls	40016808 <_vfiprintf_r+0xa84>
40016820:	eafffdac 	b	40015ed8 <_vfiprintf_r+0x154>
40016824:	e3866040 	orr	r6, r6, #64	; 0x40
40016828:	e5db3000 	ldrb	r3, [fp]
4001682c:	eafffda8 	b	40015ed4 <_vfiprintf_r+0x150>
40016830:	e5db3000 	ldrb	r3, [fp]
40016834:	e353006c 	cmp	r3, #108	; 0x6c
40016838:	05db3001 	ldrbeq	r3, [fp, #1]
4001683c:	03866020 	orreq	r6, r6, #32
40016840:	028bb001 	addeq	fp, fp, #1
40016844:	13866010 	orrne	r6, r6, #16
40016848:	eafffda1 	b	40015ed4 <_vfiprintf_r+0x150>
4001684c:	e5db3000 	ldrb	r3, [fp]
40016850:	e1a0100e 	mov	r1, lr
40016854:	e1a0c004 	mov	ip, r4
40016858:	eafffd9d 	b	40015ed4 <_vfiprintf_r+0x150>
4001685c:	e3510000 	cmp	r1, #0
40016860:	15cdc037 	strbne	ip, [sp, #55]	; 0x37
40016864:	e3160020 	tst	r6, #32
40016868:	1a0001ba 	bne	40016f58 <_vfiprintf_r+0x11d4>
4001686c:	e3160010 	tst	r6, #16
40016870:	1a000016 	bne	400168d0 <_vfiprintf_r+0xb4c>
40016874:	e3160040 	tst	r6, #64	; 0x40
40016878:	0a000014 	beq	400168d0 <_vfiprintf_r+0xb4c>
4001687c:	e59d201c 	ldr	r2, [sp, #28]
40016880:	e5923000 	ldr	r3, [r2]
40016884:	e2822004 	add	r2, r2, #4
40016888:	e58d201c 	str	r2, [sp, #28]
4001688c:	e1dd20bc 	ldrh	r2, [sp, #12]
40016890:	e1c320b0 	strh	r2, [r3]
40016894:	eafffd66 	b	40015e34 <_vfiprintf_r+0xb0>
40016898:	e3510000 	cmp	r1, #0
4001689c:	15cdc037 	strbne	ip, [sp, #55]	; 0x37
400168a0:	e3530000 	cmp	r3, #0
400168a4:	e58d0018 	str	r0, [sp, #24]
400168a8:	0a000096 	beq	40016b08 <_vfiprintf_r+0xd84>
400168ac:	e5cd3048 	strb	r3, [sp, #72]	; 0x48
400168b0:	e3a03000 	mov	r3, #0
400168b4:	e3a02001 	mov	r2, #1
400168b8:	e5cd3037 	strb	r3, [sp, #55]	; 0x37
400168bc:	e28d3048 	add	r3, sp, #72	; 0x48
400168c0:	e58d2004 	str	r2, [sp, #4]
400168c4:	e58d2010 	str	r2, [sp, #16]
400168c8:	e58d3024 	str	r3, [sp, #36]	; 0x24
400168cc:	eaffff31 	b	40016598 <_vfiprintf_r+0x814>
400168d0:	e59d201c 	ldr	r2, [sp, #28]
400168d4:	e5923000 	ldr	r3, [r2]
400168d8:	e2822004 	add	r2, r2, #4
400168dc:	e58d201c 	str	r2, [sp, #28]
400168e0:	e59d200c 	ldr	r2, [sp, #12]
400168e4:	e5832000 	str	r2, [r3]
400168e8:	eafffd51 	b	40015e34 <_vfiprintf_r+0xb0>
400168ec:	e28d203c 	add	r2, sp, #60	; 0x3c
400168f0:	e59d1000 	ldr	r1, [sp]
400168f4:	e1a00007 	mov	r0, r7
400168f8:	e58d3028 	str	r3, [sp, #40]	; 0x28
400168fc:	ebfffcee 	bl	40015cbc <__sprint_r.part.0>
40016900:	e3500000 	cmp	r0, #0
40016904:	1a000085 	bne	40016b20 <_vfiprintf_r+0xd9c>
40016908:	e59dc040 	ldr	ip, [sp, #64]	; 0x40
4001690c:	e1a0e008 	mov	lr, r8
40016910:	e59d2044 	ldr	r2, [sp, #68]	; 0x44
40016914:	e28c1001 	add	r1, ip, #1
40016918:	e59d3028 	ldr	r3, [sp, #40]	; 0x28
4001691c:	eafffe37 	b	40016200 <_vfiprintf_r+0x47c>
40016920:	e28d203c 	add	r2, sp, #60	; 0x3c
40016924:	e59d1000 	ldr	r1, [sp]
40016928:	e59d0014 	ldr	r0, [sp, #20]
4001692c:	ebfffce2 	bl	40015cbc <__sprint_r.part.0>
40016930:	e3500000 	cmp	r0, #0
40016934:	1a000079 	bne	40016b20 <_vfiprintf_r+0xd9c>
40016938:	e1a09008 	mov	r9, r8
4001693c:	e28d1040 	add	r1, sp, #64	; 0x40
40016940:	e8910006 	ldm	r1, {r1, r2}
40016944:	e2810001 	add	r0, r1, #1
40016948:	e5ddc037 	ldrb	ip, [sp, #55]	; 0x37
4001694c:	e35c0000 	cmp	ip, #0
40016950:	0afffe56 	beq	400162b0 <_vfiprintf_r+0x52c>
40016954:	e3a01001 	mov	r1, #1
40016958:	e28dc037 	add	ip, sp, #55	; 0x37
4001695c:	e0822001 	add	r2, r2, r1
40016960:	e3500007 	cmp	r0, #7
40016964:	e58d2044 	str	r2, [sp, #68]	; 0x44
40016968:	e58d0040 	str	r0, [sp, #64]	; 0x40
4001696c:	e5891004 	str	r1, [r9, #4]
40016970:	e589c000 	str	ip, [r9]
40016974:	dafffe4a 	ble	400162a4 <_vfiprintf_r+0x520>
40016978:	e3520000 	cmp	r2, #0
4001697c:	1a0000db 	bne	40016cf0 <_vfiprintf_r+0xf6c>
40016980:	e59d3020 	ldr	r3, [sp, #32]
40016984:	e3530000 	cmp	r3, #0
40016988:	0afffe56 	beq	400162e8 <_vfiprintf_r+0x564>
4001698c:	e3a02002 	mov	r2, #2
40016990:	e1a00001 	mov	r0, r1
40016994:	e1a09008 	mov	r9, r8
40016998:	e28d3038 	add	r3, sp, #56	; 0x38
4001699c:	e58d2074 	str	r2, [sp, #116]	; 0x74
400169a0:	e58d3070 	str	r3, [sp, #112]	; 0x70
400169a4:	e1a01000 	mov	r1, r0
400169a8:	e2899008 	add	r9, r9, #8
400169ac:	e2800001 	add	r0, r0, #1
400169b0:	e3560080 	cmp	r6, #128	; 0x80
400169b4:	0afffe50 	beq	400162fc <_vfiprintf_r+0x578>
400169b8:	e59d3010 	ldr	r3, [sp, #16]
400169bc:	e0477003 	sub	r7, r7, r3
400169c0:	e3570000 	cmp	r7, #0
400169c4:	dafffe81 	ble	400163d0 <_vfiprintf_r+0x64c>
400169c8:	e3570010 	cmp	r7, #16
400169cc:	da000019 	ble	40016a38 <_vfiprintf_r+0xcb4>
400169d0:	e3a05010 	mov	r5, #16
400169d4:	e59d4014 	ldr	r4, [sp, #20]
400169d8:	e59d6000 	ldr	r6, [sp]
400169dc:	ea000005 	b	400169f8 <_vfiprintf_r+0xc74>
400169e0:	e2810002 	add	r0, r1, #2
400169e4:	e1a01003 	mov	r1, r3
400169e8:	e2899008 	add	r9, r9, #8
400169ec:	e2477010 	sub	r7, r7, #16
400169f0:	e3570010 	cmp	r7, #16
400169f4:	da00000f 	ble	40016a38 <_vfiprintf_r+0xcb4>
400169f8:	e2813001 	add	r3, r1, #1
400169fc:	e2822010 	add	r2, r2, #16
40016a00:	e3530007 	cmp	r3, #7
40016a04:	e58d2044 	str	r2, [sp, #68]	; 0x44
40016a08:	e589a000 	str	sl, [r9]
40016a0c:	e5895004 	str	r5, [r9, #4]
40016a10:	e58d3040 	str	r3, [sp, #64]	; 0x40
40016a14:	dafffff1 	ble	400169e0 <_vfiprintf_r+0xc5c>
40016a18:	e3520000 	cmp	r2, #0
40016a1c:	1a00002e 	bne	40016adc <_vfiprintf_r+0xd58>
40016a20:	e2477010 	sub	r7, r7, #16
40016a24:	e3570010 	cmp	r7, #16
40016a28:	e3a00001 	mov	r0, #1
40016a2c:	e3a01000 	mov	r1, #0
40016a30:	e1a09008 	mov	r9, r8
40016a34:	caffffef 	bgt	400169f8 <_vfiprintf_r+0xc74>
40016a38:	e3500007 	cmp	r0, #7
40016a3c:	e0822007 	add	r2, r2, r7
40016a40:	e589a000 	str	sl, [r9]
40016a44:	e5897004 	str	r7, [r9, #4]
40016a48:	e58d0040 	str	r0, [sp, #64]	; 0x40
40016a4c:	e58d2044 	str	r2, [sp, #68]	; 0x44
40016a50:	d2899008 	addle	r9, r9, #8
40016a54:	d2800001 	addle	r0, r0, #1
40016a58:	dafffe5c 	ble	400163d0 <_vfiprintf_r+0x64c>
40016a5c:	e3520000 	cmp	r2, #0
40016a60:	1a0000be 	bne	40016d60 <_vfiprintf_r+0xfdc>
40016a64:	e3a03001 	mov	r3, #1
40016a68:	e1a09008 	mov	r9, r8
40016a6c:	e59d2010 	ldr	r2, [sp, #16]
40016a70:	e59d1024 	ldr	r1, [sp, #36]	; 0x24
40016a74:	e58d2074 	str	r2, [sp, #116]	; 0x74
40016a78:	e58d2044 	str	r2, [sp, #68]	; 0x44
40016a7c:	e58d1070 	str	r1, [sp, #112]	; 0x70
40016a80:	e58d3040 	str	r3, [sp, #64]	; 0x40
40016a84:	e2899008 	add	r9, r9, #8
40016a88:	e59d3008 	ldr	r3, [sp, #8]
40016a8c:	e3130004 	tst	r3, #4
40016a90:	0a000004 	beq	40016aa8 <_vfiprintf_r+0xd24>
40016a94:	e59d3018 	ldr	r3, [sp, #24]
40016a98:	e59d1004 	ldr	r1, [sp, #4]
40016a9c:	e0434001 	sub	r4, r3, r1
40016aa0:	e3540000 	cmp	r4, #0
40016aa4:	cafffe5d 	bgt	40016420 <_vfiprintf_r+0x69c>
40016aa8:	e59d300c 	ldr	r3, [sp, #12]
40016aac:	e59d1018 	ldr	r1, [sp, #24]
40016ab0:	e59d0004 	ldr	r0, [sp, #4]
40016ab4:	e1510000 	cmp	r1, r0
40016ab8:	a0833001 	addge	r3, r3, r1
40016abc:	b0833000 	addlt	r3, r3, r0
40016ac0:	e3520000 	cmp	r2, #0
40016ac4:	e58d300c 	str	r3, [sp, #12]
40016ac8:	1a00005b 	bne	40016c3c <_vfiprintf_r+0xeb8>
40016acc:	e3a03000 	mov	r3, #0
40016ad0:	e1a09008 	mov	r9, r8
40016ad4:	e58d3040 	str	r3, [sp, #64]	; 0x40
40016ad8:	eafffcd5 	b	40015e34 <_vfiprintf_r+0xb0>
40016adc:	e28d203c 	add	r2, sp, #60	; 0x3c
40016ae0:	e1a01006 	mov	r1, r6
40016ae4:	e1a00004 	mov	r0, r4
40016ae8:	ebfffc73 	bl	40015cbc <__sprint_r.part.0>
40016aec:	e3500000 	cmp	r0, #0
40016af0:	1a00000a 	bne	40016b20 <_vfiprintf_r+0xd9c>
40016af4:	e28d1040 	add	r1, sp, #64	; 0x40
40016af8:	e8910006 	ldm	r1, {r1, r2}
40016afc:	e1a09008 	mov	r9, r8
40016b00:	e2810001 	add	r0, r1, #1
40016b04:	eaffffb8 	b	400169ec <_vfiprintf_r+0xc68>
40016b08:	e59d3044 	ldr	r3, [sp, #68]	; 0x44
40016b0c:	e3530000 	cmp	r3, #0
40016b10:	159d0014 	ldrne	r0, [sp, #20]
40016b14:	128d203c 	addne	r2, sp, #60	; 0x3c
40016b18:	159d1000 	ldrne	r1, [sp]
40016b1c:	1bfffc66 	blne	40015cbc <__sprint_r.part.0>
40016b20:	e59d3000 	ldr	r3, [sp]
40016b24:	e1d330bc 	ldrh	r3, [r3, #12]
40016b28:	e3130040 	tst	r3, #64	; 0x40
40016b2c:	0afffd5e 	beq	400160ac <_vfiprintf_r+0x328>
40016b30:	e3e03000 	mvn	r3, #0
40016b34:	e58d300c 	str	r3, [sp, #12]
40016b38:	eafffd5b 	b	400160ac <_vfiprintf_r+0x328>
40016b3c:	e28d203c 	add	r2, sp, #60	; 0x3c
40016b40:	e1a01004 	mov	r1, r4
40016b44:	e1a00007 	mov	r0, r7
40016b48:	ebfffc5b 	bl	40015cbc <__sprint_r.part.0>
40016b4c:	e3500000 	cmp	r0, #0
40016b50:	1afffff2 	bne	40016b20 <_vfiprintf_r+0xd9c>
40016b54:	e28d1040 	add	r1, sp, #64	; 0x40
40016b58:	e8910006 	ldm	r1, {r1, r2}
40016b5c:	e1a0c008 	mov	ip, r8
40016b60:	e2810001 	add	r0, r1, #1
40016b64:	eafffe3c 	b	4001645c <_vfiprintf_r+0x6d8>
40016b68:	e1a01002 	mov	r1, r2
40016b6c:	e1a021a4 	lsr	r2, r4, #3
40016b70:	e1822e85 	orr	r2, r2, r5, lsl #29
40016b74:	e1a001a5 	lsr	r0, r5, #3
40016b78:	e2043007 	and	r3, r4, #7
40016b7c:	e1a05000 	mov	r5, r0
40016b80:	e1a04002 	mov	r4, r2
40016b84:	e2833030 	add	r3, r3, #48	; 0x30
40016b88:	e1942005 	orrs	r2, r4, r5
40016b8c:	e5413001 	strb	r3, [r1, #-1]
40016b90:	e2412001 	sub	r2, r1, #1
40016b94:	1afffff3 	bne	40016b68 <_vfiprintf_r+0xde4>
40016b98:	e3530030 	cmp	r3, #48	; 0x30
40016b9c:	03a03000 	moveq	r3, #0
40016ba0:	12063001 	andne	r3, r6, #1
40016ba4:	e3530000 	cmp	r3, #0
40016ba8:	0a0000e5 	beq	40016f44 <_vfiprintf_r+0x11c0>
40016bac:	e3a03030 	mov	r3, #48	; 0x30
40016bb0:	e2411002 	sub	r1, r1, #2
40016bb4:	e58d1024 	str	r1, [sp, #36]	; 0x24
40016bb8:	e0481001 	sub	r1, r8, r1
40016bbc:	e58d6008 	str	r6, [sp, #8]
40016bc0:	e58d1010 	str	r1, [sp, #16]
40016bc4:	e5423001 	strb	r3, [r2, #-1]
40016bc8:	eafffd69 	b	40016174 <_vfiprintf_r+0x3f0>
40016bcc:	e28d203c 	add	r2, sp, #60	; 0x3c
40016bd0:	e59d1000 	ldr	r1, [sp]
40016bd4:	e1a00004 	mov	r0, r4
40016bd8:	ebfffc37 	bl	40015cbc <__sprint_r.part.0>
40016bdc:	e3500000 	cmp	r0, #0
40016be0:	1affffce 	bne	40016b20 <_vfiprintf_r+0xd9c>
40016be4:	e28d1040 	add	r1, sp, #64	; 0x40
40016be8:	e8910006 	ldm	r1, {r1, r2}
40016bec:	e1a0e008 	mov	lr, r8
40016bf0:	e281c001 	add	ip, r1, #1
40016bf4:	eafffdd1 	b	40016340 <_vfiprintf_r+0x5bc>
40016bf8:	e3a03000 	mov	r3, #0
40016bfc:	e58d8024 	str	r8, [sp, #36]	; 0x24
40016c00:	e58d3010 	str	r3, [sp, #16]
40016c04:	eafffd5a 	b	40016174 <_vfiprintf_r+0x3f0>
40016c08:	e3530001 	cmp	r3, #1
40016c0c:	e1a06002 	mov	r6, r2
40016c10:	1afffe7d 	bne	4001660c <_vfiprintf_r+0x888>
40016c14:	e3550000 	cmp	r5, #0
40016c18:	03540009 	cmpeq	r4, #9
40016c1c:	8a00007e 	bhi	40016e1c <_vfiprintf_r+0x1098>
40016c20:	e28d20b0 	add	r2, sp, #176	; 0xb0
40016c24:	e2844030 	add	r4, r4, #48	; 0x30
40016c28:	e5624041 	strb	r4, [r2, #-65]!	; 0xffffffbf
40016c2c:	e58d6008 	str	r6, [sp, #8]
40016c30:	e58d3010 	str	r3, [sp, #16]
40016c34:	e58d2024 	str	r2, [sp, #36]	; 0x24
40016c38:	eafffd4d 	b	40016174 <_vfiprintf_r+0x3f0>
40016c3c:	e28d203c 	add	r2, sp, #60	; 0x3c
40016c40:	e59d1000 	ldr	r1, [sp]
40016c44:	e59d0014 	ldr	r0, [sp, #20]
40016c48:	ebfffc1b 	bl	40015cbc <__sprint_r.part.0>
40016c4c:	e3500000 	cmp	r0, #0
40016c50:	0affff9d 	beq	40016acc <_vfiprintf_r+0xd48>
40016c54:	eaffffb1 	b	40016b20 <_vfiprintf_r+0xd9c>
40016c58:	e59d300c 	ldr	r3, [sp, #12]
40016c5c:	e59d2018 	ldr	r2, [sp, #24]
40016c60:	e1520001 	cmp	r2, r1
40016c64:	a0833002 	addge	r3, r3, r2
40016c68:	b0833001 	addlt	r3, r3, r1
40016c6c:	e58d300c 	str	r3, [sp, #12]
40016c70:	eaffff95 	b	40016acc <_vfiprintf_r+0xd48>
40016c74:	e3a03002 	mov	r3, #2
40016c78:	eafffd29 	b	40016124 <_vfiprintf_r+0x3a0>
40016c7c:	e28d203c 	add	r2, sp, #60	; 0x3c
40016c80:	e59d1000 	ldr	r1, [sp]
40016c84:	e59d0014 	ldr	r0, [sp, #20]
40016c88:	ebfffc0b 	bl	40015cbc <__sprint_r.part.0>
40016c8c:	e3500000 	cmp	r0, #0
40016c90:	1affffa2 	bne	40016b20 <_vfiprintf_r+0xd9c>
40016c94:	e1a09008 	mov	r9, r8
40016c98:	e59d2044 	ldr	r2, [sp, #68]	; 0x44
40016c9c:	eaffff79 	b	40016a88 <_vfiprintf_r+0xd04>
40016ca0:	e28d203c 	add	r2, sp, #60	; 0x3c
40016ca4:	e59d1000 	ldr	r1, [sp]
40016ca8:	e59d0014 	ldr	r0, [sp, #20]
40016cac:	ebfffc02 	bl	40015cbc <__sprint_r.part.0>
40016cb0:	e3500000 	cmp	r0, #0
40016cb4:	1affff99 	bne	40016b20 <_vfiprintf_r+0xd9c>
40016cb8:	e1a09008 	mov	r9, r8
40016cbc:	eafffc72 	b	40015e8c <_vfiprintf_r+0x108>
40016cc0:	e2822004 	add	r2, r2, #4
40016cc4:	e5934000 	ldr	r4, [r3]
40016cc8:	e3a05000 	mov	r5, #0
40016ccc:	e3a03000 	mov	r3, #0
40016cd0:	e58d201c 	str	r2, [sp, #28]
40016cd4:	eafffd12 	b	40016124 <_vfiprintf_r+0x3a0>
40016cd8:	e2822004 	add	r2, r2, #4
40016cdc:	e5934000 	ldr	r4, [r3]
40016ce0:	e3a05000 	mov	r5, #0
40016ce4:	e3a03001 	mov	r3, #1
40016ce8:	e58d201c 	str	r2, [sp, #28]
40016cec:	eafffd0c 	b	40016124 <_vfiprintf_r+0x3a0>
40016cf0:	e28d203c 	add	r2, sp, #60	; 0x3c
40016cf4:	e59d1000 	ldr	r1, [sp]
40016cf8:	e59d0014 	ldr	r0, [sp, #20]
40016cfc:	ebfffbee 	bl	40015cbc <__sprint_r.part.0>
40016d00:	e3500000 	cmp	r0, #0
40016d04:	1affff85 	bne	40016b20 <_vfiprintf_r+0xd9c>
40016d08:	e28d1040 	add	r1, sp, #64	; 0x40
40016d0c:	e8910006 	ldm	r1, {r1, r2}
40016d10:	e1a09008 	mov	r9, r8
40016d14:	e2810001 	add	r0, r1, #1
40016d18:	eafffd64 	b	400162b0 <_vfiprintf_r+0x52c>
40016d1c:	e28d203c 	add	r2, sp, #60	; 0x3c
40016d20:	e59d1000 	ldr	r1, [sp]
40016d24:	e59d0014 	ldr	r0, [sp, #20]
40016d28:	ebfffbe3 	bl	40015cbc <__sprint_r.part.0>
40016d2c:	e3500000 	cmp	r0, #0
40016d30:	1affff7a 	bne	40016b20 <_vfiprintf_r+0xd9c>
40016d34:	e28d1040 	add	r1, sp, #64	; 0x40
40016d38:	e8910006 	ldm	r1, {r1, r2}
40016d3c:	e1a09008 	mov	r9, r8
40016d40:	e2810001 	add	r0, r1, #1
40016d44:	eaffff19 	b	400169b0 <_vfiprintf_r+0xc2c>
40016d48:	e3520000 	cmp	r2, #0
40016d4c:	1a000092 	bne	40016f9c <_vfiprintf_r+0x1218>
40016d50:	e3a00001 	mov	r0, #1
40016d54:	e3a01000 	mov	r1, #0
40016d58:	e1a09008 	mov	r9, r8
40016d5c:	eaffff15 	b	400169b8 <_vfiprintf_r+0xc34>
40016d60:	e28d203c 	add	r2, sp, #60	; 0x3c
40016d64:	e59d1000 	ldr	r1, [sp]
40016d68:	e59d0014 	ldr	r0, [sp, #20]
40016d6c:	ebfffbd2 	bl	40015cbc <__sprint_r.part.0>
40016d70:	e3500000 	cmp	r0, #0
40016d74:	1affff69 	bne	40016b20 <_vfiprintf_r+0xd9c>
40016d78:	e28d0040 	add	r0, sp, #64	; 0x40
40016d7c:	e8900005 	ldm	r0, {r0, r2}
40016d80:	e1a09008 	mov	r9, r8
40016d84:	e2800001 	add	r0, r0, #1
40016d88:	eafffd90 	b	400163d0 <_vfiprintf_r+0x64c>
40016d8c:	e59d301c 	ldr	r3, [sp, #28]
40016d90:	e2833007 	add	r3, r3, #7
40016d94:	e3c33007 	bic	r3, r3, #7
40016d98:	e2832008 	add	r2, r3, #8
40016d9c:	e8930030 	ldm	r3, {r4, r5}
40016da0:	e58d201c 	str	r2, [sp, #28]
40016da4:	e3a03000 	mov	r3, #0
40016da8:	eafffcdd 	b	40016124 <_vfiprintf_r+0x3a0>
40016dac:	e59d301c 	ldr	r3, [sp, #28]
40016db0:	e2833007 	add	r3, r3, #7
40016db4:	e3c33007 	bic	r3, r3, #7
40016db8:	e2832008 	add	r2, r3, #8
40016dbc:	e8930030 	ldm	r3, {r4, r5}
40016dc0:	e58d201c 	str	r2, [sp, #28]
40016dc4:	e3a03001 	mov	r3, #1
40016dc8:	eafffcd5 	b	40016124 <_vfiprintf_r+0x3a0>
40016dcc:	e2822007 	add	r2, r2, #7
40016dd0:	e3c22007 	bic	r2, r2, #7
40016dd4:	e2821008 	add	r1, r2, #8
40016dd8:	e58d101c 	str	r1, [sp, #28]
40016ddc:	e8920030 	ldm	r2, {r4, r5}
40016de0:	eafffe38 	b	400166c8 <_vfiprintf_r+0x944>
40016de4:	e59d301c 	ldr	r3, [sp, #28]
40016de8:	e2833007 	add	r3, r3, #7
40016dec:	e3c31007 	bic	r1, r3, #7
40016df0:	e891000c 	ldm	r1, {r2, r3}
40016df4:	e2811008 	add	r1, r1, #8
40016df8:	e58d101c 	str	r1, [sp, #28]
40016dfc:	e1a04002 	mov	r4, r2
40016e00:	e1a05003 	mov	r5, r3
40016e04:	eafffdf6 	b	400165e4 <_vfiprintf_r+0x860>
40016e08:	40019a2c 	.word	0x40019a2c
40016e0c:	40019a1c 	.word	0x40019a1c
40016e10:	40019a00 	.word	0x40019a00
40016e14:	400199ec 	.word	0x400199ec
40016e18:	40019a14 	.word	0x40019a14
40016e1c:	e58d9004 	str	r9, [sp, #4]
40016e20:	e1a09007 	mov	r9, r7
40016e24:	e1a07006 	mov	r7, r6
40016e28:	e1a06008 	mov	r6, r8
40016e2c:	e1a00004 	mov	r0, r4
40016e30:	e1a01005 	mov	r1, r5
40016e34:	e3a0200a 	mov	r2, #10
40016e38:	e3a03000 	mov	r3, #0
40016e3c:	ebffaddc 	bl	400025b4 <__aeabi_uldivmod>
40016e40:	e2822030 	add	r2, r2, #48	; 0x30
40016e44:	e5662001 	strb	r2, [r6, #-1]!
40016e48:	e1a00004 	mov	r0, r4
40016e4c:	e1a01005 	mov	r1, r5
40016e50:	e3a03000 	mov	r3, #0
40016e54:	e3a0200a 	mov	r2, #10
40016e58:	ebffadd5 	bl	400025b4 <__aeabi_uldivmod>
40016e5c:	e1a04000 	mov	r4, r0
40016e60:	e1a05001 	mov	r5, r1
40016e64:	e1943005 	orrs	r3, r4, r5
40016e68:	1affffef 	bne	40016e2c <_vfiprintf_r+0x10a8>
40016e6c:	e1a03006 	mov	r3, r6
40016e70:	e58d6024 	str	r6, [sp, #36]	; 0x24
40016e74:	e1a06007 	mov	r6, r7
40016e78:	e0483003 	sub	r3, r8, r3
40016e7c:	e1a07009 	mov	r7, r9
40016e80:	e58d6008 	str	r6, [sp, #8]
40016e84:	e59d9004 	ldr	r9, [sp, #4]
40016e88:	e58d3010 	str	r3, [sp, #16]
40016e8c:	eafffcb8 	b	40016174 <_vfiprintf_r+0x3f0>
40016e90:	e3a0302d 	mov	r3, #45	; 0x2d
40016e94:	e2744000 	rsbs	r4, r4, #0
40016e98:	e5cd3037 	strb	r3, [sp, #55]	; 0x37
40016e9c:	e58d3020 	str	r3, [sp, #32]
40016ea0:	e2e55000 	rsc	r5, r5, #0
40016ea4:	e3a03001 	mov	r3, #1
40016ea8:	eafffca0 	b	40016130 <_vfiprintf_r+0x3ac>
40016eac:	e59d3020 	ldr	r3, [sp, #32]
40016eb0:	e3530000 	cmp	r3, #0
40016eb4:	1a00001b 	bne	40016f28 <_vfiprintf_r+0x11a4>
40016eb8:	e3a01000 	mov	r1, #0
40016ebc:	e3a00001 	mov	r0, #1
40016ec0:	e1a09008 	mov	r9, r8
40016ec4:	eafffebb 	b	400169b8 <_vfiprintf_r+0xc34>
40016ec8:	e59d101c 	ldr	r1, [sp, #28]
40016ecc:	e5914000 	ldr	r4, [r1]
40016ed0:	e2811004 	add	r1, r1, #4
40016ed4:	e1a05fc4 	asr	r5, r4, #31
40016ed8:	e1a02004 	mov	r2, r4
40016edc:	e1a03005 	mov	r3, r5
40016ee0:	e58d101c 	str	r1, [sp, #28]
40016ee4:	eafffdbe 	b	400165e4 <_vfiprintf_r+0x860>
40016ee8:	e5924000 	ldr	r4, [r2]
40016eec:	e2822004 	add	r2, r2, #4
40016ef0:	e58d201c 	str	r2, [sp, #28]
40016ef4:	e3a05000 	mov	r5, #0
40016ef8:	eafffdf2 	b	400166c8 <_vfiprintf_r+0x944>
40016efc:	e59d301c 	ldr	r3, [sp, #28]
40016f00:	e5934000 	ldr	r4, [r3]
40016f04:	eafffdb1 	b	400165d0 <_vfiprintf_r+0x84c>
40016f08:	e28d203c 	add	r2, sp, #60	; 0x3c
40016f0c:	e59d1000 	ldr	r1, [sp]
40016f10:	e59d0014 	ldr	r0, [sp, #20]
40016f14:	ebfffb68 	bl	40015cbc <__sprint_r.part.0>
40016f18:	e3500000 	cmp	r0, #0
40016f1c:	1afffeff 	bne	40016b20 <_vfiprintf_r+0xd9c>
40016f20:	e59d2044 	ldr	r2, [sp, #68]	; 0x44
40016f24:	eafffedf 	b	40016aa8 <_vfiprintf_r+0xd24>
40016f28:	e3a02002 	mov	r2, #2
40016f2c:	e28d3038 	add	r3, sp, #56	; 0x38
40016f30:	e58d2074 	str	r2, [sp, #116]	; 0x74
40016f34:	e58d3070 	str	r3, [sp, #112]	; 0x70
40016f38:	e3a00001 	mov	r0, #1
40016f3c:	e1a09008 	mov	r9, r8
40016f40:	eafffe97 	b	400169a4 <_vfiprintf_r+0xc20>
40016f44:	e0483002 	sub	r3, r8, r2
40016f48:	e58d6008 	str	r6, [sp, #8]
40016f4c:	e58d3010 	str	r3, [sp, #16]
40016f50:	e58d2024 	str	r2, [sp, #36]	; 0x24
40016f54:	eafffc86 	b	40016174 <_vfiprintf_r+0x3f0>
40016f58:	e59d301c 	ldr	r3, [sp, #28]
40016f5c:	e59d200c 	ldr	r2, [sp, #12]
40016f60:	e5931000 	ldr	r1, [r3]
40016f64:	e2833004 	add	r3, r3, #4
40016f68:	e58d301c 	str	r3, [sp, #28]
40016f6c:	e1a03fc2 	asr	r3, r2, #31
40016f70:	e881000c 	stm	r1, {r2, r3}
40016f74:	eafffbae 	b	40015e34 <_vfiprintf_r+0xb0>
40016f78:	e59d0024 	ldr	r0, [sp, #36]	; 0x24
40016f7c:	e58d401c 	str	r4, [sp, #28]
40016f80:	e58d6008 	str	r6, [sp, #8]
40016f84:	ebffd7b2 	bl	4000ce54 <strlen>
40016f88:	e5dd3037 	ldrb	r3, [sp, #55]	; 0x37
40016f8c:	e58d0010 	str	r0, [sp, #16]
40016f90:	e58d3020 	str	r3, [sp, #32]
40016f94:	e3a07000 	mov	r7, #0
40016f98:	eafffc75 	b	40016174 <_vfiprintf_r+0x3f0>
40016f9c:	e28d203c 	add	r2, sp, #60	; 0x3c
40016fa0:	e59d1000 	ldr	r1, [sp]
40016fa4:	e59d0014 	ldr	r0, [sp, #20]
40016fa8:	ebfffb43 	bl	40015cbc <__sprint_r.part.0>
40016fac:	e3500000 	cmp	r0, #0
40016fb0:	1afffeda 	bne	40016b20 <_vfiprintf_r+0xd9c>
40016fb4:	e28d1040 	add	r1, sp, #64	; 0x40
40016fb8:	e8910006 	ldm	r1, {r1, r2}
40016fbc:	e1a09008 	mov	r9, r8
40016fc0:	e2810001 	add	r0, r1, #1
40016fc4:	eafffe7b 	b	400169b8 <_vfiprintf_r+0xc34>
40016fc8:	e28d1040 	add	r1, sp, #64	; 0x40
40016fcc:	e8910006 	ldm	r1, {r1, r2}
40016fd0:	e2811001 	add	r1, r1, #1
40016fd4:	eafffc9e 	b	40016254 <_vfiprintf_r+0x4d0>
40016fd8:	e3570006 	cmp	r7, #6
40016fdc:	31a03007 	movcc	r3, r7
40016fe0:	23a03006 	movcs	r3, #6
40016fe4:	e58d3010 	str	r3, [sp, #16]
40016fe8:	e58d3004 	str	r3, [sp, #4]
40016fec:	e51f31dc 	ldr	r3, [pc, #-476]	; 40016e18 <_vfiprintf_r+0x1094>
40016ff0:	e58d401c 	str	r4, [sp, #28]
40016ff4:	e58d3024 	str	r3, [sp, #36]	; 0x24
40016ff8:	eafffd66 	b	40016598 <_vfiprintf_r+0x814>
40016ffc:	e1a0c000 	mov	ip, r0
40017000:	eafffce4 	b	40016398 <_vfiprintf_r+0x614>
40017004:	e5dd3037 	ldrb	r3, [sp, #55]	; 0x37
40017008:	e58d7010 	str	r7, [sp, #16]
4001700c:	e58d401c 	str	r4, [sp, #28]
40017010:	e58d6008 	str	r6, [sp, #8]
40017014:	e3a07000 	mov	r7, #0
40017018:	e58d3020 	str	r3, [sp, #32]
4001701c:	eafffc54 	b	40016174 <_vfiprintf_r+0x3f0>
40017020:	e59d201c 	ldr	r2, [sp, #28]
40017024:	e58d7004 	str	r7, [sp, #4]
40017028:	e5927000 	ldr	r7, [r2]
4001702c:	e2822004 	add	r2, r2, #4
40017030:	e3770001 	cmn	r7, #1
40017034:	e5db3001 	ldrb	r3, [fp, #1]
40017038:	b3e07000 	mvnlt	r7, #0
4001703c:	e59db004 	ldr	fp, [sp, #4]
40017040:	e58d201c 	str	r2, [sp, #28]
40017044:	eafffba2 	b	40015ed4 <_vfiprintf_r+0x150>

Disassembly of section .text.vfiprintf:

40017048 <vfiprintf>:
40017048:	e59fc010 	ldr	ip, [pc, #16]	; 40017060 <vfiprintf+0x18>
4001704c:	e1a03002 	mov	r3, r2
40017050:	e1a02001 	mov	r2, r1
40017054:	e1a01000 	mov	r1, r0
40017058:	e59c0000 	ldr	r0, [ip]
4001705c:	eafffb48 	b	40015d84 <_vfiprintf_r>
40017060:	40019b60 	.word	0x40019b60

Disassembly of section .text._calloc_r:

40017064 <_calloc_r>:
40017064:	e92d4010 	push	{r4, lr}
40017068:	e0010192 	mul	r1, r2, r1
4001706c:	ebffd12d 	bl	4000b528 <_malloc_r>
40017070:	e2504000 	subs	r4, r0, #0
40017074:	0a000018 	beq	400170dc <_calloc_r+0x78>
40017078:	e5142004 	ldr	r2, [r4, #-4]
4001707c:	e3c22003 	bic	r2, r2, #3
40017080:	e2422004 	sub	r2, r2, #4
40017084:	e3520024 	cmp	r2, #36	; 0x24
40017088:	8a000016 	bhi	400170e8 <_calloc_r+0x84>
4001708c:	e3520013 	cmp	r2, #19
40017090:	91a02004 	movls	r2, r4
40017094:	9a00000c 	bls	400170cc <_calloc_r+0x68>
40017098:	e3a03000 	mov	r3, #0
4001709c:	e352001b 	cmp	r2, #27
400170a0:	e5843000 	str	r3, [r4]
400170a4:	e5843004 	str	r3, [r4, #4]
400170a8:	92842008 	addls	r2, r4, #8
400170ac:	9a000006 	bls	400170cc <_calloc_r+0x68>
400170b0:	e3520024 	cmp	r2, #36	; 0x24
400170b4:	e5843008 	str	r3, [r4, #8]
400170b8:	e584300c 	str	r3, [r4, #12]
400170bc:	05843010 	streq	r3, [r4, #16]
400170c0:	05843014 	streq	r3, [r4, #20]
400170c4:	12842010 	addne	r2, r4, #16
400170c8:	02842018 	addeq	r2, r4, #24
400170cc:	e3a03000 	mov	r3, #0
400170d0:	e5823000 	str	r3, [r2]
400170d4:	e5823004 	str	r3, [r2, #4]
400170d8:	e5823008 	str	r3, [r2, #8]
400170dc:	e1a00004 	mov	r0, r4
400170e0:	e8bd4010 	pop	{r4, lr}
400170e4:	e12fff1e 	bx	lr
400170e8:	e3a01000 	mov	r1, #0
400170ec:	ebffd407 	bl	4000c110 <memset>
400170f0:	e1a00004 	mov	r0, r4
400170f4:	e8bd4010 	pop	{r4, lr}
400170f8:	e12fff1e 	bx	lr

Disassembly of section .text._fclose_r:

400170fc <_fclose_r>:
400170fc:	e92d4070 	push	{r4, r5, r6, lr}
40017100:	e2514000 	subs	r4, r1, #0
40017104:	0a000008 	beq	4001712c <_fclose_r+0x30>
40017108:	e3500000 	cmp	r0, #0
4001710c:	e1a06000 	mov	r6, r0
40017110:	0a000002 	beq	40017120 <_fclose_r+0x24>
40017114:	e5903038 	ldr	r3, [r0, #56]	; 0x38
40017118:	e3530000 	cmp	r3, #0
4001711c:	0a00002d 	beq	400171d8 <_fclose_r+0xdc>
40017120:	e1d430fc 	ldrsh	r3, [r4, #12]
40017124:	e3530000 	cmp	r3, #0
40017128:	1a000003 	bne	4001713c <_fclose_r+0x40>
4001712c:	e3a05000 	mov	r5, #0
40017130:	e1a00005 	mov	r0, r5
40017134:	e8bd4070 	pop	{r4, r5, r6, lr}
40017138:	e12fff1e 	bx	lr
4001713c:	e1a01004 	mov	r1, r4
40017140:	e1a00006 	mov	r0, r6
40017144:	ebffef84 	bl	40012f5c <__sflush_r>
40017148:	e594302c 	ldr	r3, [r4, #44]	; 0x2c
4001714c:	e3530000 	cmp	r3, #0
40017150:	e1a05000 	mov	r5, r0
40017154:	0a000005 	beq	40017170 <_fclose_r+0x74>
40017158:	e594101c 	ldr	r1, [r4, #28]
4001715c:	e1a00006 	mov	r0, r6
40017160:	e1a0e00f 	mov	lr, pc
40017164:	e12fff13 	bx	r3
40017168:	e3500000 	cmp	r0, #0
4001716c:	b3e05000 	mvnlt	r5, #0
40017170:	e1d430bc 	ldrh	r3, [r4, #12]
40017174:	e3130080 	tst	r3, #128	; 0x80
40017178:	1a000018 	bne	400171e0 <_fclose_r+0xe4>
4001717c:	e5941030 	ldr	r1, [r4, #48]	; 0x30
40017180:	e3510000 	cmp	r1, #0
40017184:	0a000005 	beq	400171a0 <_fclose_r+0xa4>
40017188:	e2843040 	add	r3, r4, #64	; 0x40
4001718c:	e1510003 	cmp	r1, r3
40017190:	11a00006 	movne	r0, r6
40017194:	1bfff13a 	blne	40013684 <_free_r>
40017198:	e3a03000 	mov	r3, #0
4001719c:	e5843030 	str	r3, [r4, #48]	; 0x30
400171a0:	e5941044 	ldr	r1, [r4, #68]	; 0x44
400171a4:	e3510000 	cmp	r1, #0
400171a8:	0a000003 	beq	400171bc <_fclose_r+0xc0>
400171ac:	e1a00006 	mov	r0, r6
400171b0:	ebfff133 	bl	40013684 <_free_r>
400171b4:	e3a03000 	mov	r3, #0
400171b8:	e5843044 	str	r3, [r4, #68]	; 0x44
400171bc:	ebfff0da 	bl	4001352c <__sfp_lock_acquire>
400171c0:	e3a03000 	mov	r3, #0
400171c4:	e1c430bc 	strh	r3, [r4, #12]
400171c8:	ebfff0d8 	bl	40013530 <__sfp_lock_release>
400171cc:	e1a00005 	mov	r0, r5
400171d0:	e8bd4070 	pop	{r4, r5, r6, lr}
400171d4:	e12fff1e 	bx	lr
400171d8:	ebfff0cf 	bl	4001351c <__sinit>
400171dc:	eaffffcf 	b	40017120 <_fclose_r+0x24>
400171e0:	e5941010 	ldr	r1, [r4, #16]
400171e4:	e1a00006 	mov	r0, r6
400171e8:	ebfff125 	bl	40013684 <_free_r>
400171ec:	eaffffe2 	b	4001717c <_fclose_r+0x80>

Disassembly of section .text.fclose:

400171f0 <fclose>:
400171f0:	e59f3008 	ldr	r3, [pc, #8]	; 40017200 <fclose+0x10>
400171f4:	e1a01000 	mov	r1, r0
400171f8:	e5930000 	ldr	r0, [r3]
400171fc:	eaffffbe 	b	400170fc <_fclose_r>
40017200:	40019b60 	.word	0x40019b60

Disassembly of section .text.__fputwc:

40017204 <__fputwc>:
40017204:	e92d43f0 	push	{r4, r5, r6, r7, r8, r9, lr}
40017208:	e24dd00c 	sub	sp, sp, #12
4001720c:	e1a08000 	mov	r8, r0
40017210:	e1a07001 	mov	r7, r1
40017214:	e1a04002 	mov	r4, r2
40017218:	eb000079 	bl	40017404 <__locale_mb_cur_max>
4001721c:	e3500001 	cmp	r0, #1
40017220:	0a000030 	beq	400172e8 <__fputwc+0xe4>
40017224:	e284305c 	add	r3, r4, #92	; 0x5c
40017228:	e1a02007 	mov	r2, r7
4001722c:	e28d1004 	add	r1, sp, #4
40017230:	e1a00008 	mov	r0, r8
40017234:	eb0000ae 	bl	400174f4 <_wcrtomb_r>
40017238:	e3700001 	cmn	r0, #1
4001723c:	e1a06000 	mov	r6, r0
40017240:	0a000022 	beq	400172d0 <__fputwc+0xcc>
40017244:	e3500000 	cmp	r0, #0
40017248:	15dd1004 	ldrbne	r1, [sp, #4]
4001724c:	0a00002c 	beq	40017304 <__fputwc+0x100>
40017250:	e3a05000 	mov	r5, #0
40017254:	e28d9004 	add	r9, sp, #4
40017258:	ea000007 	b	4001727c <__fputwc+0x78>
4001725c:	e5943000 	ldr	r3, [r4]
40017260:	e2832001 	add	r2, r3, #1
40017264:	e5842000 	str	r2, [r4]
40017268:	e5c31000 	strb	r1, [r3]
4001726c:	e2855001 	add	r5, r5, #1
40017270:	e1560005 	cmp	r6, r5
40017274:	9a000022 	bls	40017304 <__fputwc+0x100>
40017278:	e7d51009 	ldrb	r1, [r5, r9]
4001727c:	e5943008 	ldr	r3, [r4, #8]
40017280:	e2433001 	sub	r3, r3, #1
40017284:	e3530000 	cmp	r3, #0
40017288:	e5843008 	str	r3, [r4, #8]
4001728c:	aafffff2 	bge	4001725c <__fputwc+0x58>
40017290:	e5942018 	ldr	r2, [r4, #24]
40017294:	e1530002 	cmp	r3, r2
40017298:	b3a03000 	movlt	r3, #0
4001729c:	a3a03001 	movge	r3, #1
400172a0:	e351000a 	cmp	r1, #10
400172a4:	03a03000 	moveq	r3, #0
400172a8:	e3530000 	cmp	r3, #0
400172ac:	1affffea 	bne	4001725c <__fputwc+0x58>
400172b0:	e1a02004 	mov	r2, r4
400172b4:	e1a00008 	mov	r0, r8
400172b8:	ebffe7d5 	bl	40011214 <__swbuf_r>
400172bc:	e3700001 	cmn	r0, #1
400172c0:	1affffe9 	bne	4001726c <__fputwc+0x68>
400172c4:	e28dd00c 	add	sp, sp, #12
400172c8:	e8bd43f0 	pop	{r4, r5, r6, r7, r8, r9, lr}
400172cc:	e12fff1e 	bx	lr
400172d0:	e1d430bc 	ldrh	r3, [r4, #12]
400172d4:	e3833040 	orr	r3, r3, #64	; 0x40
400172d8:	e1c430bc 	strh	r3, [r4, #12]
400172dc:	e28dd00c 	add	sp, sp, #12
400172e0:	e8bd43f0 	pop	{r4, r5, r6, r7, r8, r9, lr}
400172e4:	e12fff1e 	bx	lr
400172e8:	e2473001 	sub	r3, r7, #1
400172ec:	e35300fe 	cmp	r3, #254	; 0xfe
400172f0:	8affffcb 	bhi	40017224 <__fputwc+0x20>
400172f4:	e20710ff 	and	r1, r7, #255	; 0xff
400172f8:	e1a06000 	mov	r6, r0
400172fc:	e5cd1004 	strb	r1, [sp, #4]
40017300:	eaffffd2 	b	40017250 <__fputwc+0x4c>
40017304:	e1a00007 	mov	r0, r7
40017308:	e28dd00c 	add	sp, sp, #12
4001730c:	e8bd43f0 	pop	{r4, r5, r6, r7, r8, r9, lr}
40017310:	e12fff1e 	bx	lr

Disassembly of section .text._fputwc_r:

40017314 <_fputwc_r>:
40017314:	e1d230fc 	ldrsh	r3, [r2, #12]
40017318:	e3130a02 	tst	r3, #8192	; 0x2000
4001731c:	0592c064 	ldreq	ip, [r2, #100]	; 0x64
40017320:	03833a02 	orreq	r3, r3, #8192	; 0x2000
40017324:	038cca02 	orreq	ip, ip, #8192	; 0x2000
40017328:	01c230bc 	strheq	r3, [r2, #12]
4001732c:	0582c064 	streq	ip, [r2, #100]	; 0x64
40017330:	eaffffb3 	b	40017204 <__fputwc>

Disassembly of section .text.fputwc:

40017334 <fputwc>:
40017334:	e59f305c 	ldr	r3, [pc, #92]	; 40017398 <fputwc+0x64>
40017338:	e92d4070 	push	{r4, r5, r6, lr}
4001733c:	e5935000 	ldr	r5, [r3]
40017340:	e3550000 	cmp	r5, #0
40017344:	e1a06000 	mov	r6, r0
40017348:	e1a04001 	mov	r4, r1
4001734c:	0a000002 	beq	4001735c <fputwc+0x28>
40017350:	e5953038 	ldr	r3, [r5, #56]	; 0x38
40017354:	e3530000 	cmp	r3, #0
40017358:	0a00000b 	beq	4001738c <fputwc+0x58>
4001735c:	e1d430fc 	ldrsh	r3, [r4, #12]
40017360:	e3130a02 	tst	r3, #8192	; 0x2000
40017364:	05942064 	ldreq	r2, [r4, #100]	; 0x64
40017368:	03833a02 	orreq	r3, r3, #8192	; 0x2000
4001736c:	03822a02 	orreq	r2, r2, #8192	; 0x2000
40017370:	05842064 	streq	r2, [r4, #100]	; 0x64
40017374:	01c430bc 	strheq	r3, [r4, #12]
40017378:	e1a02004 	mov	r2, r4
4001737c:	e1a01006 	mov	r1, r6
40017380:	e1a00005 	mov	r0, r5
40017384:	e8bd4070 	pop	{r4, r5, r6, lr}
40017388:	eaffff9d 	b	40017204 <__fputwc>
4001738c:	e1a00005 	mov	r0, r5
40017390:	ebfff061 	bl	4001351c <__sinit>
40017394:	eafffff0 	b	4001735c <fputwc+0x28>
40017398:	40019b60 	.word	0x40019b60

Disassembly of section .text._setlocale_r:

4001739c <_setlocale_r>:
4001739c:	e92d4010 	push	{r4, lr}
400173a0:	e2524000 	subs	r4, r2, #0
400173a4:	0a000004 	beq	400173bc <_setlocale_r+0x20>
400173a8:	e59f1048 	ldr	r1, [pc, #72]	; 400173f8 <_setlocale_r+0x5c>
400173ac:	e1a00004 	mov	r0, r4
400173b0:	ebffa8ba 	bl	400016a0 <strcmp>
400173b4:	e3500000 	cmp	r0, #0
400173b8:	1a000002 	bne	400173c8 <_setlocale_r+0x2c>
400173bc:	e59f0038 	ldr	r0, [pc, #56]	; 400173fc <_setlocale_r+0x60>
400173c0:	e8bd4010 	pop	{r4, lr}
400173c4:	e12fff1e 	bx	lr
400173c8:	e59f102c 	ldr	r1, [pc, #44]	; 400173fc <_setlocale_r+0x60>
400173cc:	e1a00004 	mov	r0, r4
400173d0:	ebffa8b2 	bl	400016a0 <strcmp>
400173d4:	e3500000 	cmp	r0, #0
400173d8:	0afffff7 	beq	400173bc <_setlocale_r+0x20>
400173dc:	e1a00004 	mov	r0, r4
400173e0:	e59f1018 	ldr	r1, [pc, #24]	; 40017400 <_setlocale_r+0x64>
400173e4:	ebffa8ad 	bl	400016a0 <strcmp>
400173e8:	e3500000 	cmp	r0, #0
400173ec:	0afffff2 	beq	400173bc <_setlocale_r+0x20>
400173f0:	e3a00000 	mov	r0, #0
400173f4:	eafffff1 	b	400173c0 <_setlocale_r+0x24>
400173f8:	40019a40 	.word	0x40019a40
400173fc:	40019a3c 	.word	0x40019a3c
40017400:	40019a48 	.word	0x40019a48

Disassembly of section .text.__locale_mb_cur_max:

40017404 <__locale_mb_cur_max>:
40017404:	e59f3018 	ldr	r3, [pc, #24]	; 40017424 <__locale_mb_cur_max+0x20>
40017408:	e5933000 	ldr	r3, [r3]
4001740c:	e5933034 	ldr	r3, [r3, #52]	; 0x34
40017410:	e59f2010 	ldr	r2, [pc, #16]	; 40017428 <__locale_mb_cur_max+0x24>
40017414:	e3530000 	cmp	r3, #0
40017418:	01a03002 	moveq	r3, r2
4001741c:	e5d30128 	ldrb	r0, [r3, #296]	; 0x128
40017420:	e12fff1e 	bx	lr
40017424:	40019b60 	.word	0x40019b60
40017428:	4001a3a0 	.word	0x4001a3a0

Disassembly of section .text.__locale_ctype_ptr_l:

4001742c <__locale_ctype_ptr_l>:
4001742c:	e59000ec 	ldr	r0, [r0, #236]	; 0xec
40017430:	e12fff1e 	bx	lr

Disassembly of section .text.__locale_ctype_ptr:

40017434 <__locale_ctype_ptr>:
40017434:	e59f3018 	ldr	r3, [pc, #24]	; 40017454 <__locale_ctype_ptr+0x20>
40017438:	e5933000 	ldr	r3, [r3]
4001743c:	e5933034 	ldr	r3, [r3, #52]	; 0x34
40017440:	e59f2010 	ldr	r2, [pc, #16]	; 40017458 <__locale_ctype_ptr+0x24>
40017444:	e3530000 	cmp	r3, #0
40017448:	01a03002 	moveq	r3, r2
4001744c:	e59300ec 	ldr	r0, [r3, #236]	; 0xec
40017450:	e12fff1e 	bx	lr
40017454:	40019b60 	.word	0x40019b60
40017458:	4001a3a0 	.word	0x4001a3a0

Disassembly of section .text.setlocale:

4001745c <setlocale>:
4001745c:	e59f300c 	ldr	r3, [pc, #12]	; 40017470 <setlocale+0x14>
40017460:	e1a02001 	mov	r2, r1
40017464:	e1a01000 	mov	r1, r0
40017468:	e5930000 	ldr	r0, [r3]
4001746c:	eaffffca 	b	4001739c <_setlocale_r>
40017470:	40019b60 	.word	0x40019b60

Disassembly of section .text._mbtowc_r:

40017474 <_mbtowc_r>:
40017474:	e59fc024 	ldr	ip, [pc, #36]	; 400174a0 <_mbtowc_r+0x2c>
40017478:	e59cc000 	ldr	ip, [ip]
4001747c:	e59cc034 	ldr	ip, [ip, #52]	; 0x34
40017480:	e52de004 	push	{lr}		; (str lr, [sp, #-4]!)
40017484:	e59fe018 	ldr	lr, [pc, #24]	; 400174a4 <_mbtowc_r+0x30>
40017488:	e35c0000 	cmp	ip, #0
4001748c:	01a0c00e 	moveq	ip, lr
40017490:	e59ce0e4 	ldr	lr, [ip, #228]	; 0xe4
40017494:	e1a0c00e 	mov	ip, lr
40017498:	e49de004 	pop	{lr}		; (ldr lr, [sp], #4)
4001749c:	e12fff1c 	bx	ip
400174a0:	40019b60 	.word	0x40019b60
400174a4:	4001a3a0 	.word	0x4001a3a0

Disassembly of section .text.__ascii_mbtowc:

400174a8 <__ascii_mbtowc>:
400174a8:	e3510000 	cmp	r1, #0
400174ac:	e24dd008 	sub	sp, sp, #8
400174b0:	028d1004 	addeq	r1, sp, #4
400174b4:	e3520000 	cmp	r2, #0
400174b8:	0a000008 	beq	400174e0 <__ascii_mbtowc+0x38>
400174bc:	e3530000 	cmp	r3, #0
400174c0:	0a000009 	beq	400174ec <__ascii_mbtowc+0x44>
400174c4:	e5d23000 	ldrb	r3, [r2]
400174c8:	e5813000 	str	r3, [r1]
400174cc:	e5d22000 	ldrb	r2, [r2]
400174d0:	e2920000 	adds	r0, r2, #0
400174d4:	13a00001 	movne	r0, #1
400174d8:	e28dd008 	add	sp, sp, #8
400174dc:	e12fff1e 	bx	lr
400174e0:	e1a00002 	mov	r0, r2
400174e4:	e28dd008 	add	sp, sp, #8
400174e8:	e12fff1e 	bx	lr
400174ec:	e3e00001 	mvn	r0, #1
400174f0:	eafffff8 	b	400174d8 <__ascii_mbtowc+0x30>

Disassembly of section .text._wcrtomb_r:

400174f4 <_wcrtomb_r>:
400174f4:	e92d4070 	push	{r4, r5, r6, lr}
400174f8:	e251c000 	subs	ip, r1, #0
400174fc:	e24dd010 	sub	sp, sp, #16
40017500:	e1a05000 	mov	r5, r0
40017504:	e1a06003 	mov	r6, r3
40017508:	0a000010 	beq	40017550 <_wcrtomb_r+0x5c>
4001750c:	e59fc06c 	ldr	ip, [pc, #108]	; 40017580 <_wcrtomb_r+0x8c>
40017510:	e59cc000 	ldr	ip, [ip]
40017514:	e59cc034 	ldr	ip, [ip, #52]	; 0x34
40017518:	e59fe064 	ldr	lr, [pc, #100]	; 40017584 <_wcrtomb_r+0x90>
4001751c:	e35c0000 	cmp	ip, #0
40017520:	01a0c00e 	moveq	ip, lr
40017524:	e59c40e0 	ldr	r4, [ip, #224]	; 0xe0
40017528:	e1a0e00f 	mov	lr, pc
4001752c:	e12fff14 	bx	r4
40017530:	e3700001 	cmn	r0, #1
40017534:	03a02000 	moveq	r2, #0
40017538:	03a0308a 	moveq	r3, #138	; 0x8a
4001753c:	05862000 	streq	r2, [r6]
40017540:	05853000 	streq	r3, [r5]
40017544:	e28dd010 	add	sp, sp, #16
40017548:	e8bd4070 	pop	{r4, r5, r6, lr}
4001754c:	e12fff1e 	bx	lr
40017550:	e59f2028 	ldr	r2, [pc, #40]	; 40017580 <_wcrtomb_r+0x8c>
40017554:	e5921000 	ldr	r1, [r2]
40017558:	e5911034 	ldr	r1, [r1, #52]	; 0x34
4001755c:	e59f2020 	ldr	r2, [pc, #32]	; 40017584 <_wcrtomb_r+0x90>
40017560:	e3510000 	cmp	r1, #0
40017564:	01a01002 	moveq	r1, r2
40017568:	e1a0200c 	mov	r2, ip
4001756c:	e59140e0 	ldr	r4, [r1, #224]	; 0xe0
40017570:	e28d1004 	add	r1, sp, #4
40017574:	e1a0e00f 	mov	lr, pc
40017578:	e12fff14 	bx	r4
4001757c:	eaffffeb 	b	40017530 <_wcrtomb_r+0x3c>
40017580:	40019b60 	.word	0x40019b60
40017584:	4001a3a0 	.word	0x4001a3a0

Disassembly of section .text.wcrtomb:

40017588 <wcrtomb>:
40017588:	e92d4070 	push	{r4, r5, r6, lr}
4001758c:	e59f3084 	ldr	r3, [pc, #132]	; 40017618 <wcrtomb+0x90>
40017590:	e5934000 	ldr	r4, [r3]
40017594:	e3500000 	cmp	r0, #0
40017598:	e1a05002 	mov	r5, r2
4001759c:	e24dd010 	sub	sp, sp, #16
400175a0:	e5943034 	ldr	r3, [r4, #52]	; 0x34
400175a4:	e59f2070 	ldr	r2, [pc, #112]	; 4001761c <wcrtomb+0x94>
400175a8:	0a000010 	beq	400175f0 <wcrtomb+0x68>
400175ac:	e3530000 	cmp	r3, #0
400175b0:	01a03002 	moveq	r3, r2
400175b4:	e1a02001 	mov	r2, r1
400175b8:	e59360e0 	ldr	r6, [r3, #224]	; 0xe0
400175bc:	e1a01000 	mov	r1, r0
400175c0:	e1a03005 	mov	r3, r5
400175c4:	e1a00004 	mov	r0, r4
400175c8:	e1a0e00f 	mov	lr, pc
400175cc:	e12fff16 	bx	r6
400175d0:	e3700001 	cmn	r0, #1
400175d4:	03a02000 	moveq	r2, #0
400175d8:	03a0308a 	moveq	r3, #138	; 0x8a
400175dc:	05852000 	streq	r2, [r5]
400175e0:	05843000 	streq	r3, [r4]
400175e4:	e28dd010 	add	sp, sp, #16
400175e8:	e8bd4070 	pop	{r4, r5, r6, lr}
400175ec:	e12fff1e 	bx	lr
400175f0:	e3530000 	cmp	r3, #0
400175f4:	01a03002 	moveq	r3, r2
400175f8:	e28d1004 	add	r1, sp, #4
400175fc:	e1a02000 	mov	r2, r0
40017600:	e59360e0 	ldr	r6, [r3, #224]	; 0xe0
40017604:	e1a00004 	mov	r0, r4
40017608:	e1a03005 	mov	r3, r5
4001760c:	e1a0e00f 	mov	lr, pc
40017610:	e12fff16 	bx	r6
40017614:	eaffffed 	b	400175d0 <wcrtomb+0x48>
40017618:	40019b60 	.word	0x40019b60
4001761c:	4001a3a0 	.word	0x4001a3a0

Disassembly of section .text._wctomb_r:

40017620 <_wctomb_r>:
40017620:	e59fc024 	ldr	ip, [pc, #36]	; 4001764c <_wctomb_r+0x2c>
40017624:	e59cc000 	ldr	ip, [ip]
40017628:	e59cc034 	ldr	ip, [ip, #52]	; 0x34
4001762c:	e52de004 	push	{lr}		; (str lr, [sp, #-4]!)
40017630:	e59fe018 	ldr	lr, [pc, #24]	; 40017650 <_wctomb_r+0x30>
40017634:	e35c0000 	cmp	ip, #0
40017638:	01a0c00e 	moveq	ip, lr
4001763c:	e59ce0e0 	ldr	lr, [ip, #224]	; 0xe0
40017640:	e1a0c00e 	mov	ip, lr
40017644:	e49de004 	pop	{lr}		; (ldr lr, [sp], #4)
40017648:	e12fff1c 	bx	ip
4001764c:	40019b60 	.word	0x40019b60
40017650:	4001a3a0 	.word	0x4001a3a0

Disassembly of section .text.__ascii_wctomb:

40017654 <__ascii_wctomb>:
40017654:	e3510000 	cmp	r1, #0
40017658:	0a000005 	beq	40017674 <__ascii_wctomb+0x20>
4001765c:	e35200ff 	cmp	r2, #255	; 0xff
40017660:	83a0308a 	movhi	r3, #138	; 0x8a
40017664:	95c12000 	strbls	r2, [r1]
40017668:	83e01000 	mvnhi	r1, #0
4001766c:	93a01001 	movls	r1, #1
40017670:	85803000 	strhi	r3, [r0]
40017674:	e1a00001 	mov	r0, r1
40017678:	e12fff1e 	bx	lr

Disassembly of section .text.__udivmoddi4:

4001767c <__udivmoddi4>:
4001767c:	e1510003 	cmp	r1, r3
40017680:	e92d4ff8 	push	{r3, r4, r5, r6, r7, r8, r9, sl, fp, lr}
40017684:	01500002 	cmpeq	r0, r2
40017688:	e1a04000 	mov	r4, r0
4001768c:	e1a05001 	mov	r5, r1
40017690:	e59d7028 	ldr	r7, [sp, #40]	; 0x28
40017694:	33a00000 	movcc	r0, #0
40017698:	33a01000 	movcc	r1, #0
4001769c:	3a000036 	bcc	4001777c <__udivmoddi4+0x100>
400176a0:	e1a01003 	mov	r1, r3
400176a4:	e1a00002 	mov	r0, r2
400176a8:	e1a08002 	mov	r8, r2
400176ac:	e1a09003 	mov	r9, r3
400176b0:	ebffabdc 	bl	40002628 <__clzdi2>
400176b4:	e1a01005 	mov	r1, r5
400176b8:	e1a06000 	mov	r6, r0
400176bc:	e1a00004 	mov	r0, r4
400176c0:	ebffabd8 	bl	40002628 <__clzdi2>
400176c4:	e0466000 	sub	r6, r6, r0
400176c8:	e1a02006 	mov	r2, r6
400176cc:	e1a00008 	mov	r0, r8
400176d0:	e1a01009 	mov	r1, r9
400176d4:	ebffabcc 	bl	4000260c <__aeabi_llsl>
400176d8:	e1550001 	cmp	r5, r1
400176dc:	01540000 	cmpeq	r4, r0
400176e0:	e1a0a000 	mov	sl, r0
400176e4:	e1a0b001 	mov	fp, r1
400176e8:	33a00000 	movcc	r0, #0
400176ec:	33a01000 	movcc	r1, #0
400176f0:	3a000005 	bcc	4001770c <__udivmoddi4+0x90>
400176f4:	e054400a 	subs	r4, r4, sl
400176f8:	e1a02006 	mov	r2, r6
400176fc:	e3a00001 	mov	r0, #1
40017700:	e3a01000 	mov	r1, #0
40017704:	e0c5500b 	sbc	r5, r5, fp
40017708:	ebffabbf 	bl	4000260c <__aeabi_llsl>
4001770c:	e3560000 	cmp	r6, #0
40017710:	0a000019 	beq	4001777c <__udivmoddi4+0x100>
40017714:	e1b0b0ab 	lsrs	fp, fp, #1
40017718:	e1a0a06a 	rrx	sl, sl
4001771c:	e1a03006 	mov	r3, r6
40017720:	e155000b 	cmp	r5, fp
40017724:	0154000a 	cmpeq	r4, sl
40017728:	3a000017 	bcc	4001778c <__udivmoddi4+0x110>
4001772c:	e054400a 	subs	r4, r4, sl
40017730:	e0c5500b 	sbc	r5, r5, fp
40017734:	e0944004 	adds	r4, r4, r4
40017738:	e0a55005 	adc	r5, r5, r5
4001773c:	e2944001 	adds	r4, r4, #1
40017740:	e2a55000 	adc	r5, r5, #0
40017744:	e2533001 	subs	r3, r3, #1
40017748:	1afffff4 	bne	40017720 <__udivmoddi4+0xa4>
4001774c:	e0908004 	adds	r8, r0, r4
40017750:	e0a19005 	adc	r9, r1, r5
40017754:	e1a02006 	mov	r2, r6
40017758:	e1a00004 	mov	r0, r4
4001775c:	e1a01005 	mov	r1, r5
40017760:	ebffaba2 	bl	400025f0 <__aeabi_llsr>
40017764:	e1a02006 	mov	r2, r6
40017768:	e1a04000 	mov	r4, r0
4001776c:	e1a05001 	mov	r5, r1
40017770:	ebffaba5 	bl	4000260c <__aeabi_llsl>
40017774:	e0580000 	subs	r0, r8, r0
40017778:	e0c91001 	sbc	r1, r9, r1
4001777c:	e3570000 	cmp	r7, #0
40017780:	18870030 	stmne	r7, {r4, r5}
40017784:	e8bd4ff8 	pop	{r3, r4, r5, r6, r7, r8, r9, sl, fp, lr}
40017788:	e12fff1e 	bx	lr
4001778c:	e0944004 	adds	r4, r4, r4
40017790:	e0a55005 	adc	r5, r5, r5
40017794:	eaffffea 	b	40017744 <__udivmoddi4+0xc8>
